(dp0
VaddPL
p1
I1
sVCanada
p2
I1
sVdisplayTriggeredWeblabs
p3
I2
sVVitamins
p4
I2
sVdoubleCart
p5
I1
sVGremlins
p6
I3
sVdynamic
p7
I235
sVImprovement
p8
I5
sV164
p9
I1
sVtime\u2014it
p10
I1
sV6pm
p11
I2
sVBlackley
p12
I1
sVcellspacing
p13
I2
sVSoap
p14
I1
sVJ7QTlCylRpQan7boYTeJp0Q
p15
I1
sValiases
p16
I1
sV2BvEFfL
p17
I5
sVreplacements
p18
I1
sVLUMIX
p19
I2
sV51O0QLluCHL
p20
I5
sVaui
p21
I41
sV1064954
p22
I1
sVWatch
p23
I2
sV01hvfEvfPgL
p24
I6
sV2Fcontent
p25
I1
sV344
p26
I1
sV345
p27
I2
sV346
p28
I1
sV347
p29
I4
sV340
p30
I4
sVswap
p31
I1
sV342
p32
I2
sV343
p33
I1
sVClimbing
p34
I1
sVCases
p35
I1
sV392446011
p36
I1
sV348
p37
I4
sVfirstCarousel
p38
I1
sVmarginheight
p39
I1
sV2FDwnXvi9GcCZQJXzuZKy2RYRHblHKPtDFBQ
p40
I1
sVGW
p41
I7
sVdpreview
p42
I1
sVupdated
p43
I1
sV3A10445813011
p44
I6
sVtabletImage
p45
I20
sVV288848063
p46
I1
sV50mm
p47
I18
sVvoid
p48
I1
sV55mm
p49
I8
sVscroller
p50
I1
sVevery
p51
I1
sVGB
p52
I14
sVsBF9qbb0
p53
I1
sVtextbooks
p54
I1
sVTomb
p55
I3
sV9f9
p56
I2
sV440x200
p57
I1
sVschool
p58
I1
sV61RTo5963ML
p59
I5
sVInternet
p60
I1
sV9px
p61
I1
sVdeclareOnLoad
p62
I4
sV51LrH
p63
I1
sVV291918972
p64
I1
sVHercules
p65
I4
sVdelegate
p66
I5
sV298
p67
I3
sVV291918975
p68
I1
sVGo
p69
I2
sV297
p70
I2
sV294
p71
I1
sV292
p72
I1
sVheading
p73
I9
sVclothes
p74
I2
sVenjoy
p75
I1
sVPlayStation
p76
I12
sV11434552011
p77
I1
sVHandmadePanel
p78
I2
sVshoveler
p79
I13
sVV342128453
p80
I2
sVphones
p81
I1
sV01IY99sMV0L
p82
I2
sVbtfContent
p83
I1
sVMicroSD
p84
I3
sVSmit
p85
I1
sV270
p86
I2
sV271
p87
I1
sV273
p88
I1
sV274
p89
I2
sV275
p90
I1
sV276
p91
I1
sVtriggerISSOnClick
p92
I1
sV278
p93
I1
sV25445
p94
I1
sV25446
p95
I2
sV207125090
p96
I1
sViu3
p97
I1
sVconsoles
p98
I1
sVeven
p99
I1
sVasin
p100
I175
sV2983386011
p101
I1
sVhide
p102
I9
sVE5CDA72C8E2D87C0A109763740448DA81F11F8A13
p103
I1
sVSX396
p104
I3
sVselected
p105
I8
sVmom
p106
I1
sVAmazon
p107
I81
sV26396
p108
I2
sV114lRrrwfEL
p109
I2
sVCMOS
p110
I8
sVeQx2B2UMa
p111
I1
sV1E60AB4AC0ECCA00151B45353E21782E539DC601
p112
I1
sVV204593665
p113
I1
sVnew
p114
I26
sVnet
p115
I9
sVpageReady
p116
I1
sVwidget
p117
I49
sV16310091
p118
I1
sVhero
p119
I75
sVBrown
p120
I2
sVB00X4WHP5E
p121
I3
sVerror
p122
I21
sVFlip
p123
I8
sVhere
p124
I2
sV46px
p125
I1
sV108
p126
I1
sV60000
p127
I2
sVGwInstrumentation
p128
I4
sVoct13
p129
I4
sVactive
p130
I4
sV103
p131
I1
sV100
p132
I50
sVplaceholder
p133
I2
sV200px
p134
I3
sVcustomerReviews
p135
I2
sVkids
p136
I4
sVlive
p137
I1
sVluggage
p138
I2
sVitems
p139
I88
sVk
p140
I7
sVeligible
p141
I1
sV8x
p142
I4
sV212334154011
p143
I1
sVHair
p144
I3
sVcredit
p145
I13
sV3689044428
p146
I1
sVprimeTooltip
p147
I1
sVcanPlayType
p148
I2
sVNOT
p149
I1
sVuseragent
p150
I1
sVsecure
p151
I11
sVcampaign
p152
I18
sV2BYEgL
p153
I5
sVRelations
p154
I1
sVreplace
p155
I11
sV1668981302
p156
I2
sVsubstr
p157
I1
sVBook
p158
I5
sVHealth
p159
I9
sVCTA
p160
I1
sVV290053825
p161
I1
sV219kQ7JAPhL
p162
I5
sVfreshPopOverLoading
p163
I2
sV51Ep
p164
I5
sVglance
p165
I2
sV11lY8mYpb3L
p166
I6
sVKindleFireTabletPanel
p167
I2
sV2634438011
p168
I2
sV13146344011
p169
I1
sVStar
p170
I11
sVV310910427
p171
I1
sV500px
p172
I91
sV175
p173
I1
sVsimsLessThanThreshold
p174
I1
sVUX396
p175
I3
sVStay
p176
I3
sVchargers
p177
I2
sVURY8B6h5ecoStYy
p178
I1
sVprogram
p179
I1
sVlocalStorage
p180
I3
sV077936BF375C01306F1FD7F58D469F0A84F85EAE5
p181
I1
sVIncluded
p182
I2
sVtype
p183
I42
sVauix
p184
I1
sV341
p185
I1
sVellipsis
p186
I1
sV32529
p187
I1
sVTenMarks
p188
I1
sV48787
p189
I1
sV4JL
p190
I2
sVDevices
p191
I7
sVit
p192
I3
sV99
p193
I3
sVphone
p194
I2
sV388305011
p195
I2
sVaccessoriesJS
p196
I4
sVV
p197
I7
sV90
p198
I1
sV93
p199
I2
sV95
p200
I7
sV94
p201
I2
sV97
p202
I1
sV96
p203
I6
sVma
p204
I5
sV1994
p205
I2
sV1996
p206
I1
sVmm
p207
I3
sVpresentation
p208
I1
sVsetup
p209
I2
sV41pdP4HxRCL
p210
I5
sVmi
p211
I3
sVbreakfast
p212
I1
sV349
p213
I1
sVpopstate
p214
I1
sVmovies
p215
I11
sVGWSnSBeautydesktopbillboard
p216
I2
sVbattlefront
p217
I1
sVms
p218
I2
sVgifting
p219
I4
sVLYTRO
p220
I3
sVroot
p221
I1
sVJanitorial
p222
I1
sVauthportal
p223
I12
sVMystery
p224
I3
sV2Fk0gogqQbEvhX02ZRHK6buOr9BkDgB9Ynr01UjoGCoViMWQ
p225
I1
sV600
p226
I9
sVChrome
p227
I1
sVBedding
p228
I2
sVnewSimContainer
p229
I7
sVGrocery
p230
I7
sVB0097BEFI6
p231
I2
sVfacade
p232
I2
sVfoods
p233
I1
sVB003ZSJ212
p234
I2
sVDigital
p235
I98
sVShowcase
p236
I2
sVorganizer
p237
I1
sVtimes
p238
I1
sV4h2ML
p239
I3
sVabsolute
p240
I7
sVWheel
p241
I1
sVquot
p242
I1322
sVhol
p243
I1
sV2Bw7bdu09PjS7i1CI
p244
I1
sV8X
p245
I2
sVUSHardlinesDetailPageMetaAsset
p246
I4
sVbackgroundImage
p247
I1
sVGalligan
p248
I1
sVdeepNodeISS
p249
I1
sVpopover
p250
I64
sVplace
p251
I2
sV7031433011
p252
I1
sVconfig
p253
I64
sVCertified
p254
I8
sVLATEST
p255
I4
sVA
p256
I139
sVgaming
p257
I1
sVAmazonGlobal
p258
I1
sVdescription
p259
I2
sVbeauty
p260
I12
sVB00R45XL64
p261
I5
sV11444071011
p262
I1
sVfreshPopOverOn
p263
I5
sV23500
p264
I2
sVTouch
p265
I4
sVasked
p266
I1
sVcreateCarousel
p267
I6
sVbrands
p268
I8
sVpageType
p269
I7
sVcore
p270
I1
sV519x522
p271
I1
sVpurchase
p272
I2
sVAll
p273
I24
sVB006GLMHBM
p274
I1
sV2Fextensions
p275
I2
sV1288
p276
I3
sV11433453011
p277
I1
sVloader
p278
I1
sValias
p279
I48
sVmaintain
p280
I1
sVV288891339
p281
I2
sVV288891336
p282
I2
sVV288891337
p283
I2
sVrewards
p284
I3
sV516
p285
I1
sVorder
p286
I7
sVwine
p287
I2
sVBlue
p288
I9
sVoffice
p289
I4
sVmkId
p290
I7
sVviewportmeta
p291
I3
sVBroom
p292
I3
sV11MXghh1eBL
p293
I4
sVcarnac
p294
I1
sV01Zix61jLSL
p295
I6
sV1RRNMBVV2VJ7MB4JHYHA
p296
I2
sV31PeofDZRgL
p297
I3
sVrewarded
p298
I1
sVdigest
p299
I1
sVbefore
p300
I4
sVdomready
p301
I1
sVime
p302
I1
sVSade
p303
I3
sVimg
p304
I180
sVpersonal
p305
I3
sV500GB
p306
I3
sV51InzcaVqrL
p307
I5
sVSteam
p308
I3
sV407
p309
I4
sVISS
p310
I1
sV405
p311
I2
sV404
p312
I1
sV403
p313
I1
sVPRP
p314
I1
sV401
p315
I2
sV400
p316
I10
sVRates
p317
I1
sVhidden
p318
I19
sV1342
p319
I1
sV409
p320
I2
sV408
p321
I1
sVdisableBuyItAgain
p322
I1
sV628
p323
I2
sVonclick
p324
I1
sVMobile
p325
I1
sVPros
p326
I1
sVupnav2xImagePath
p327
I1
sV30th
p328
I2
sV55624
p329
I2
sVbreak
p330
I3
sVremoveClass
p331
I3
sVupnav2xAiryPreloadImgInfo
p332
I1
sV20793816
p333
I1
sVCards
p334
I5
sVecho
p335
I8
sV172541
p336
I2
sV2280654282
p337
I2
sVControl
p338
I2
sVATV
p339
I1
sVCopy
p340
I2
sVextractAfterRefPart
p341
I5
sVIndie
p342
I2
sV1286228011
p343
I2
sVIndia
p344
I2
sVl
p345
I3
sV379
p346
I3
sV378
p347
I3
sVthat
p348
I1
sVaffiliate
p349
I1
sVgoldbox
p350
I1
sVfitness
p351
I3
sV370
p352
I8
sV372
p353
I2
sV375
p354
I31
sVCheck
p355
I1
sV376
p356
I2
sVfinancial
p357
I2
sVdirectly
p358
I1
sV3A0F170E7CEFE27BDC730D3D7344512BC1296B83
p359
I1
sV419N6NoOp2L
p360
I5
sVYojimbo
p361
I3
sVV315476058
p362
I1
sVB00I8BIBCW
p363
I2
sV393
p364
I3
sVnavp
p365
I1
sV391
p366
I6
sV390
p367
I1
sV396
p368
I4
sV395
p369
I2
sV394
p370
I1
sVlogo
p371
I11
sV399
p372
I1
sV398
p373
I5
sV661ABEA050EC7ED103349320C53489637F654274
p374
I1
sVDresses
p375
I1
sVRoom
p376
I4
sVBEGIN
p377
I1
sVrw
p378
I3
sV21e1iN58lML
p379
I4
sVB00DB9JV5W
p380
I2
sVgradient
p381
I3
sV2300
p382
I1
sVV288560987
p383
I1
sVmason
p384
I1
sVcontent
p385
I43
sVdsl
p386
I2
sVLamps
p387
I1
sVV192194766
p388
I2
sVreader
p389
I5
sVrevolving
p390
I1
sVautorotation
p391
I1
sVSuper
p392
I12
sVWahlberg
p393
I1
sVemptyWishlist
p394
I1
sV5744819011
p395
I1
sVnRUIRJKFVl79NFZgIv7TyRMWxvIxADRdXIeMwC6mEwsQRV
p396
I1
sVworkout
p397
I1
sVlinear
p398
I2
sVtextStroke
p399
I1
sV444886702
p400
I1
sVDAsis
p401
I1
sV299
p402
I1
sVXBR55X810C
p403
I6
sVfree
p404
I4
sVpanelKey
p405
I23
sV244
p406
I1
sV247
p407
I2
sVnav2
p408
I10
sV241
p409
I2
sV240
p410
I3
sVB00PQWIZPY
p411
I2
sVTransformers
p412
I4
sVautoFocus
p413
I1
sV508510
p414
I2
sV248
p415
I13
sVatf
p416
I1
sVnavFooterLine
p417
I4
sVr2
p418
I2
sVbletchley
p419
I1
sV01wBjiz9OvL
p420
I3
sVPhoto
p421
I7
sVgwAsinPopover
p422
I1
sVVR
p423
I2
sV293
p424
I17
sVfilter
p425
I2
sViso
p426
I1
sVprefetch
p427
I2
sV2BvtL
p428
I5
sV11051398011
p429
I1
sV180px
p430
I1
sVPdbBinder
p431
I2
sV2F3uGw6Jr6J7HPHHttxLVZcJl31QWljbcOm5
p432
I1
sVamznbtn
p433
I3
sVuser
p434
I1
sVSkates
p435
I1
sVindustrial
p436
I7
sVfeatures
p437
I1
sVsnwicons
p438
I2
sVPlease
p439
I1
sVprimary
p440
I1
sVCell
p441
I3
sVcursor
p442
I1
sV14A2AN14M50RTHVG3BSF
p443
I3
sV178
p444
I2
sV177
p445
I4
sV176
p446
I5
sVnavigator
p447
I10
sV174
p448
I2
sV172
p449
I1
sV171
p450
I2
sV170
p451
I4
sVtoy
p452
I2
sV51OBjqwDlVL
p453
I5
sVQuilting
p454
I1
sVservice
p455
I1
sV29658
p456
I1
sV0QJJSC00QWKKCRGVP5V6
p457
I2
sVtop
p458
I16
sV16px
p459
I2
sVgirls
p460
I7
sVAutoComplete
p461
I1
sV2C7613704011
p462
I1
sVMicroSDHC
p463
I3
sVyBL
p464
I3
sVNintendo
p465
I13
sVairy
p466
I1
sVtwister
p467
I2
sVdogs
p468
I1
sVToysKidsBabyPanel
p469
I2
sVSearch
p470
I2
sVB
p471
I23
sVRare
p472
I1
sVConverter
p473
I4
sVMini
p474
I2
sVinitSearchCsl
p475
I3
sVsignup
p476
I1
sVCustomers
p477
I1
sVCoolpix
p478
I3
sVnearby
p479
I1
sVelectronicsgiftfinder
p480
I1
sV193
p481
I4
sV26ref
p482
I10
sV205
p483
I1
sVwhite
p484
I6
sVupdateISSCompletion
p485
I1
sVRepair
p486
I1
sV90a10ff1b4964e52d19910ba9ba533df2f5b962a
p487
I2
sVtarget
p488
I4
sValreadyLoaded
p489
I3
sVfabric
p490
I1
sVgwAjax
p491
I6
sVenabled
p492
I1
sVzero
p493
I1
sVCyber
p494
I6
sVSex
p495
I1
sVmerch
p496
I25
sVSee
p497
I7
sVinitializeAutocomplete
p498
I3
sV32GB
p499
I5
sV1000645111
p500
I1
sVacquisition
p501
I4
sVfashion
p502
I36
sVQ4
p503
I1
sVissPromos
p504
I1
sVB009EEJDYC
p505
I2
sV51qHNpFK8RL
p506
I5
sV7258624011
p507
I1
sV7th
p508
I6
sVB00WR534TK
p509
I2
sVoutdoors
p510
I4
sV10394030011
p511
I2
sVSilver
p512
I19
sV465600
p513
I1
sVcloudplayer
p514
I1
sVray
p515
I45
sV400x39
p516
I1
sVWaterproof
p517
I8
sVV288846169
p518
I1
sVV291295256
p519
I1
sVofferListingId
p520
I12
sVpurchases
p521
I2
sVDepository
p522
I1
sVluxury
p523
I2
sVmini2x
p524
I2
sVAmazonUIPageJS
p525
I39
sVbillboardRow
p526
I3
sVEverything
p527
I5
sVcartContent
p528
I1
sVAvailable
p529
I3
sVentityId
p530
I1
sV51JFoR4kQ5L
p531
I5
sV2FTiiEjJxSTYb3NaNSNHuojEnZzeyPq425vM4G7CrAzRZ6EXufLaNDgPpBEDshnmg
p532
I1
sVWish
p533
I5
sVButton
p534
I2
sVComputers
p535
I8
sViPadTablet
p536
I1
sVUSSoftlinesDetailPageMetaAsset
p537
I4
sVoptimized
p538
I1
sVerrors
p539
I1
sVS3700
p540
I4
sV5b9757e077bfe6b81012c8240f47eea943e5d56a
p541
I2
sVscripts
p542
I14
sVB0094K1JPC
p543
I2
sVGuardians
p544
I3
sV21TJPdqEytL
p545
I2
sVtyp
p546
I2
sVAvengers
p547
I3
sVmouseleave
p548
I1
sV21eD0nsyoAL
p549
I4
sVChildrens
p550
I1
sV10529351011
p551
I1
sVcorporate
p552
I1
sV29572
p553
I4
sVcamp
p554
I1
sVm
p555
I48
sVpoints
p556
I3
sVFasteners
p557
I1
sV51LFCvDgEhL
p558
I5
sVconsumer
p559
I3
sVB013X9HA7K
p560
I2
sVnotificationsList
p561
I1
sVfruitCSS
p562
I1
sV26092
p563
I5
sVgetNow
p564
I2
sVTakeovers
p565
I7
sV15684181
p566
I1
sVisDigitalFeaturesEnabled
p567
I3
sVRemote
p568
I2
sVVehicle
p569
I1
sVkeywords
p570
I2
sVearth
p571
I2
sVResources
p572
I3
sVd7c45783a2784adca6ce299277135f8aeb6f4087
p573
I2
sV11782346011
p574
I1
sVx1
p575
I2
sVlayout
p576
I1
sVaPageStart
p577
I2
sVV288785792
p578
I1
sV8209716011
p579
I1
sVheadline
p580
I2
sVmenu
p581
I7
sV698
p582
I2
sVGame
p583
I2
sVFree
p584
I8
sVmens
p585
I6
sVattrs
p586
I1
sV540
p587
I2
sV546
p588
I1
sV7589478011
p589
I1
sVnetworking
p590
I1
sV51XMNBtIRyL
p591
I5
sVannounce
p592
I2
sVFurniture
p593
I5
sVV192250692
p594
I2
sVAccount
p595
I5
sVNetherlands
p596
I1
sVrgba
p597
I1
sVwide
p598
I24
sVdd
p599
I3
sVrock
p600
I1
sVwatch
p601
I1
sVscalable
p602
I19
sVamazon
p603
I834
sVsupplies
p604
I3
sVQuick
p605
I1
sVX
p606
I3
sVdt
p607
I1
sVpinnedNavStart
p608
I1
sVdp
p609
I177
sV41kAYMdhp9L
p610
I6
sVisNewIss
p611
I2
sVearn
p612
I2
sVbar
p613
I3
sVcountries
p614
I1
sVV288416728
p615
I1
sVPhotography
p616
I1
sVAbeBooks
p617
I1
sVV289981026
p618
I1
sVgwPopover
p619
I2
sVFans
p620
I1
sVpublic
p621
I1
sV414
p622
I2
sV415
p623
I1
sVYoshi
p624
I2
sV411
p625
I3
sVprimesignup
p626
I1
sV413
p627
I1
sVB00L9EPT8O
p628
I1
sVsgproduct
p629
I121
sV418
p630
I1
sV419
p631
I3
sVUnderwater
p632
I3
sVDMC
p633
I3
sVNetworking
p634
I2
sVquestions
p635
I1
sVPet
p636
I5
sVB00WAJ8QXC
p637
I2
sV7483990
p638
I2
sV100px
p639
I2
sVbeaconbelt
p640
I2
sVWater
p641
I1
sV7b18c2c4ddb5cbcf682044de853f00784d71478a
p642
I1
sVMade
p643
I3
sVw3
p644
I1
sVamazonShoveler
p645
I4
sV38x
p646
I2
sVB00MHPAFAG
p647
I5
sVAndroid
p648
I8
sVV288630612
p649
I1
sVB00ZDNNRB8
p650
I2
sVbest
p651
I1
sV02
p652
I1
sVShogunPDB
p653
I2
sV00
p654
I24
sV01
p655
I210
sVimgLink
p656
I2
sVEdition
p657
I14
sVAuto
p658
I4
sVRise
p659
I3
sV1C5307RBA374NQT19NH4
p660
I1
sVvisibleItemsWidth
p661
I3
sVplayer2
p662
I3
sVController
p663
I6
sVAppstore
p664
I3
sV368
p665
I1
sV369
p666
I1
sV366
p667
I3
sV367
p668
I2
sV364
p669
I1
sVHappy
p670
I1
sV362
p671
I3
sV363
p672
I3
sV360
p673
I5
sV361
p674
I2
sV19353
p675
I2
sV41qiXyFcgxL
p676
I5
sVC
p677
I20
sVNotice
p678
I1
sVterms
p679
I1
sVwb
p680
I8
sVextend
p681
I6
sVonload
p682
I4
sVWellness
p683
I2
sV56217
p684
I2
sVdiapers
p685
I2
sV380
p686
I2
sV381
p687
I4
sVloading
p688
I29
sVws
p689
I2
sVfastlabs
p690
I2
sV386
p691
I2
sV387
p692
I2
sV388
p693
I2
sV389
p694
I4
sV165793011
p695
I1
sVAdvertise
p696
I1
sVkitchen
p697
I5
sV1C053F185EC333A6689D7EB7C092028F9201DF69
p698
I1
sV21jgC
p699
I2
sVdoCTWKeydown
p700
I1
sVCovers
p701
I1
sVBring
p702
I3
sVINTERESTED
p703
I1
sVgames
p704
I12
sVcloseButton
p705
I1
sVlogic
p706
I1
sVRetail
p707
I4
sVcom
p708
I854
sVAUIX
p709
I1
sVCompact
p710
I1
sVpre
p711
I2
sVDiscontinued
p712
I6
sV900
p713
I3
sV7147444011
p714
I1
sVB01574SORE
p715
I2
sVheight
p716
I211
sV258
p717
I2
sVtriggerElementID
p718
I2
sV366177
p719
I1
sVtowels
p720
I1
sVsearchBackState
p721
I1
sVloaded
p722
I8
sV250
p723
I3
sVfwcim
p724
I2
sV256
p725
I1
sV257
p726
I1
sV255
p727
I4
sVopenid
p728
I24
sViframe
p729
I2
sVcomplimentary
p730
I12
sVchrome
p731
I1
sV2Fauth
p732
I6
sVSewing
p733
I4
sVSY440
p734
I102
sVbeen
p735
I1
sVHomeServicesPanel
p736
I2
sVB00OPX707Y
p737
I3
sVtrigger
p738
I4
sVcsYourAccount
p739
I1
sVPay
p740
I2
sVimgblock
p741
I3
sV2Fref
p742
I1
sVpageContent
p743
I1
sVwebsite
p744
I1
sVDefinition
p745
I2
sVsprite
p746
I20
sVCF
p747
I5
sVirhome
p748
I1
sVB00M0QVG3W
p749
I2
sVB00E9PMMX0
p750
I2
sVajaxUrl
p751
I2
sVcatch
p752
I3
sV165
p753
I13
sVVoice
p754
I7
sV160
p755
I16
sVCtBF
p756
I4
sV163
p757
I1
sVWoolly
p758
I3
sVsave
p759
I1
sVWatchlist
p760
I2
sVAthletic
p761
I1
sVBrands
p762
I1
sVKellan
p763
I1
sVn
p764
I872
sVB015TL6PGM
p765
I2
sVtypeof
p766
I8
sVHarrison
p767
I1
sVAZFooterSelfPublish
p768
I1
sVpOd
p769
I1
sVproperty
p770
I3
sVgno
p771
I21
sV2FIakgJkknnsJFlI0p5PCFj1h0nWWOWrqNalGJ9j04H1F1fowrNS
p772
I1
sVCollectibles
p773
I5
sVcrossorigin
p774
I1
sVamazonfooter
p775
I1
sVcarat
p776
I6
sV11260432011
p777
I1
sVir
p778
I1
sVaccessories
p779
I10
sV10px
p780
I6
sVMens
p781
I1
sVplayer
p782
I5
sVNav
p783
I165
sV21701
p784
I1
sVin
p785
I22
sVia
p786
I4
sVie
p787
I205
sVid
p788
I151
sVif
p789
I81
sVVisa
p790
I2
sV58mm
p791
I4
sVisJpOrCn
p792
I3
sV01h78L
p793
I2
sVGear
p794
I3
sVfullWidthCoreFlyout
p795
I1
sV11091801
p796
I2
sVmake
p797
I4
sVNaN
p798
I1
sVgetElementById
p799
I1
sVV290134841
p800
I1
sVV1
p801
I20
sVV2
p802
I23
sVsplit
p803
I4
sVOf
p804
I2
sVeBooks
p805
I3
sVtemplates
p806
I4
sVflyout2
p807
I1
sVLess
p808
I1
sVVI
p809
I5
sVwcs
p810
I8
sVMcPhee
p811
I1
sVsearchCSL
p812
I6
sVL840
p813
I2
sVL330
p814
I3
sVHome
p815
I28
sV471306
p816
I1
sVgwLayoutReady
p817
I1
sVsimsDetails
p818
I8
sVHDPRM
p819
I3
sVT
p820
I12
sVMonitors
p821
I1
sV8859
p822
I1
sVendif
p823
I3
sV2F5S8H41Mr1bLd2TjEBNkNDps
p824
I1
sVClothing
p825
I8
sVmusical
p826
I2
sV2956501011
p827
I1
sVleft
p828
I35
sVConsole
p829
I6
sVjust
p830
I2
sVEarpods
p831
I6
sVphoto
p832
I2
sVsporting
p833
I4
sVtransientFlyoutTrigger
p834
I1
sVToy
p835
I3
sV3754161
p836
I1
sVPets
p837
I2
sVshuffle
p838
I3
sVyes
p839
I2
sVsignOutText
p840
I1
sVnoscript
p841
I2
sVcollectibles
p842
I2
sVamazonfresh
p843
I1
sV5x
p844
I2
sVOffer
p845
I1
sVtagline
p846
I1
sVTrident
p847
I1
sVCBFOOT
p848
I1
sVyoyo
p849
I1
sVeasy
p850
I1
sVconfigComplete
p851
I1
sVhas
p852
I1
sV31O7kGYGMBL
p853
I5
sV673430403
p854
I1
sVGNOflyout
p855
I1
sV327
p856
I1
sVbook
p857
I3
sVD
p858
I4
sVtabletAltText
p859
I20
sVmktid
p860
I1
sViOS
p861
I2
sV1150
p862
I1
sV3044029242
p863
I1
sVMorning
p864
I3
sVTry
p865
I2
sVWink
p866
I3
sVyourAccountPrimeHover
p867
I1
sVbackground
p868
I19
sVshadow
p869
I1
sVAudible
p870
I9
sVWine
p871
I4
sVSansa
p872
I3
sV41L548E2M9L
p873
I5
sVArt
p874
I3
sVB00889ST2G
p875
I7
sVgift
p876
I6
sVyourAccountPrimeURL
p877
I1
sV55
p878
I18
sVInvestor
p879
I1
sV51
p880
I7
sV50
p881
I4
sVEcho
p882
I14
sVmetaKey
p883
I1
sVavatar
p884
I5
sV531
p885
I6
sVV290053827
p886
I1
sV47524
p887
I2
sVDwayne
p888
I1
sVtitlebar
p889
I1
sV538
p890
I1
sVwww
p891
I67
sVright
p892
I39
sVold
p893
I1
sVcmuAnnotations
p894
I3
sVyourAccountContent
p895
I2
sVconcat
p896
I1
sVftGr
p897
I32
sVTom
p898
I1
sVB00NYC7FWM
p899
I2
sVMP4
p900
I8
sVDoor
p901
I1
sVMP3
p902
I21
sVprimeMusicSash
p903
I12
sVbillboard
p904
I16
sVdelegateToInitSearchCsl
p905
I1
sVanimate
p906
I2
sV52
p907
I1
sVHD
p908
I41
sVredirector
p909
I4
sVLife
p910
I4
sV01IYJsHQbtL
p911
I6
sVfor
p912
I10
sVbottom
p913
I8
sVDownloads
p914
I3
sV429
p915
I3
sV428
p916
I3
sVdd2f923353cb667a630ba36a97ae6cae6a9ba66f
p917
I3
sV21px
p918
I1
sVLet
p919
I1
sVlistitem
p920
I8
sVChris
p921
I2
sV420
p922
I3
sV423
p923
I2
sVloadDescendantImagesManually
p924
I6
sV424
p925
I2
sV1391
p926
I3
sV426
p927
I2
sVGray
p928
I4
sVSchool
p929
I2
sVInstant
p930
I12
sVbold
p931
I4
sVtrafficdrivers
p932
I1
sVsubscriptions
p933
I5
sVXBR65X810C
p934
I6
sVshogun
p935
I28
sV1000000px
p936
I2
sVGarage
p937
I2
sVbinder
p938
I7
sV7762829011
p939
I2
sVPlace
p940
I1
sVbolt
p941
I2
sVsugText
p942
I1
sV0px
p943
I6
sVproperties
p944
I5
sV11055981
p945
I1
sVobj
p946
I5
sVClip
p947
I7
sVFine
p948
I2
sVImage
p949
I4
sVXBR65X900C
p950
I6
sVB00IB1BTWI
p951
I2
sV21PJbL
p952
I6
sVo
p953
I16
sVLynne
p954
I1
sVWalkman
p955
I3
sVbrowse
p956
I7
sVGroceryHealthBeautyPanel
p957
I2
sVconnected
p958
I2
sVsuggestions
p959
I1
sVD3300
p960
I2
sVgwCFImgCache
p961
I1
sVsprites
p962
I8
sVBest
p963
I2
sVB00WPR82D8
p964
I2
sVsoa
p965
I1
sV55262
p966
I1
sVUse
p967
I2
sVUsb
p968
I2
sVMake
p969
I1
sVfloat
p970
I3
sVvisible
p971
I4
sVSubmersible
p972
I2
sVbath
p973
I1
sVcontainerWidth
p974
I3
sVrendering
p975
I9
sVcurrentPageURL
p976
I4
sVmagazines
p977
I5
sVppu
p978
I17
sVoI42JJL
p979
I5
sV1266092011
p980
I1
sVcItem
p981
I7
sVATTR
p982
I1
sVwag
p983
I1
sVnavDebugHighres
p984
I1
sV76e55d81f35280fc838ea77e4f62740c555e47ba
p985
I1
sVV291918946
p986
I1
sVHand
p987
I3
sVgif
p988
I28
sV55315
p989
I1
sVway
p990
I1
sV346333011
p991
I1
sVDevice
p992
I2
sVcall
p993
I3
sVB00GDQ0RMG
p994
I1
sVhead
p995
I3
sVmedium
p996
I16
sVform
p997
I4
sV56849
p998
I1
sVlanding
p999
I1
sVback
p1000
I1
sVwireless
p1001
I1
sV228
p1002
I2
sV227
p1003
I1
sV226
p1004
I2
sV225
p1005
I4
sVZ
p1006
I3
sV223
p1007
I2
sV252F
p1008
I1
sV220
p1009
I120
sVattr
p1010
I10
sVupnavHighResImgInfo
p1011
I1
sVupdateRefTags
p1012
I2
sV322215011
p1013
I1
sVHousehold
p1014
I1
sVdevices
p1015
I2
sVamazonglobal
p1016
I1
sVNylaWYL
p1017
I2
sVunrec
p1018
I6
sVB00KVRNIQU
p1019
I2
sVBonner
p1020
I1
sVlawngarden
p1021
I2
sV20px
p1022
I2
sV2619525011
p1023
I1
sVproductdb
p1024
I7
sVTitleName
p1025
I1
sVclosePopover
p1026
I3
sV150
p1027
I5
sVsidekick
p1028
I21
sVSuperhero
p1029
I4
sV154
p1030
I3
sV2745439681
p1031
I1
sVitem
p1032
I233
sVPersonal
p1033
I4
sV158
p1034
I2
sVVineMarket
p1035
I1
sVV291902036
p1036
I1
sVB00OI7J214
p1037
I2
sVscientific
p1038
I1
sVseasons
p1039
I1
sVexist
p1040
I1
sVdynamicMenuArgs
p1041
I1
sVB00R45XHHC
p1042
I5
sV03HTBDQN42PDKWQAWVMC
p1043
I1
sVB016LMQDVU
p1044
I1
sVno
p1045
I5
sVPrettiest
p1046
I1
sV2F5lnwTVBOrlE13VD4laOQHH
p1047
I1
sVhandmade
p1048
I10
sVne
p1049
I1
sV26sc
p1050
I1
sVdetailblock
p1051
I4
sVB001FA1O0O
p1052
I2
sV14px
p1053
I2
sVrole
p1054
I33
sVdigital
p1055
I30
sVwarehouse
p1056
I1
sVns
p1057
I62
sVisMobile
p1058
I2
sVnode
p1059
I184
sVExclusives
p1060
I2
sVE
p1061
I12
sVWindows
p1062
I3
sVGifting
p1063
I1
sVHOL
p1064
I5
sV008G
p1065
I3
sVupdate
p1066
I1
sVtrailers
p1067
I1
sV21IU9bOuMYL
p1068
I2
sVtriggerTime
p1069
I1
sVquerySelector
p1070
I2
sVV289472180
p1071
I1
sVisPrime
p1072
I14
sVV349243534
p1073
I1
sVframeborder
p1074
I1
sVflyoutElement
p1075
I3
sV500x490
p1076
I1
sVV392399058
p1077
I1
sVAmazonFresh
p1078
I2
sVConstant
p1079
I3
sVColor
p1080
I5
sV2901953011
p1081
I1
sVMission
p1082
I3
sVWii
p1083
I6
sVcnttId
p1084
I7
sVpet
p1085
I2
sVDisplays
p1086
I3
sV51R6piddIOL
p1087
I5
sVtime
p1088
I1
sVpush
p1089
I9
sVPaperwhite
p1090
I1
sVB00HQDBLDO
p1091
I2
sVdismissNotificationUrl
p1092
I1
sV10192831011
p1093
I1
sVNotifications
p1094
I1
sVsourceName
p1095
I1
sVrequiresSignIn
p1096
I1
sVglobal
p1097
I7
sVfocus
p1098
I1
sVDesktop
p1099
I1
sVEOS
p1100
I5
sVmanager
p1101
I1
sVauiPreloadCSS
p1102
I2
sV1284596852
p1103
I1
sVToday
p1104
I1
sVrow
p1105
I29
sV21XCQ17CCqL
p1106
I2
sVGifts
p1107
I1
sVfgID
p1108
I7
sVone
p1109
I3
sVessentials
p1110
I1
sVIpod
p1111
I7
sVB012PJXGXG
p1112
I3
sVattachEvent
p1113
I6
sVquicklook
p1114
I1
sV0
p1115
I428
sVHomeGardenToolsPanel
p1116
I2
sVLighting
p1117
I1
sV3A7141123011
p1118
I6
sVDay
p1119
I1
sVExternal
p1120
I1
sVPlug
p1121
I1
sVindoor
p1122
I5
sVstring
p1123
I1
sVtrimText
p1124
I1
sVtrident
p1125
I10
sVRecruit
p1126
I3
sVV290954840
p1127
I2
sV59797
p1128
I2
sVBattlefront
p1129
I7
sVanonymous
p1130
I1
sV400px
p1131
I2
sVjoin
p1132
I7
sVHannibal
p1133
I1
sVisPrimeMember
p1134
I1
sVPremium
p1135
I1
sV154606011
p1136
I1
sV11XkfseId
p1137
I6
sVSecure
p1138
I1
sVKingdom
p1139
I1
sV4895BD1A0503D2U3
p1140
I2
sVamznJQ
p1141
I2
sVCanon
p1142
I10
sVstandards
p1143
I11
sVsignin
p1144
I18
sVp
p1145
I74
sVInc
p1146
I1
sVAccounts
p1147
I1
sVInnovative
p1148
I1
sVsidepanel
p1149
I1
sVdiv
p1150
I491
sVholiday2015
p1151
I12
sV2FbaFZ
p1152
I1
sVBox
p1153
I5
sVmn
p1154
I1
sVfff
p1155
I3
sVPJStripe
p1156
I90
sVTablet
p1157
I1
sVBoy
p1158
I3
sVB00KAX40LM
p1159
I2
sVhtm
p1160
I2
sVhtl
p1161
I3
sV1125
p1162
I1
sVsign
p1163
I8
sVciuAnnotations
p1164
I1
sVFLvCM3QMJwAKuZZV
p1165
I1
sVCreateSpace
p1166
I1
sV51ajywN
p1167
I5
sVRick
p1168
I1
sVnavFooterLinkLine
p1169
I3
sVdefineProperty
p1170
I1
sVEnthusiasm
p1171
I1
sVDF0CFA9EECFD0DEDEAE6094981480E48DBC1E112
p1172
I1
sVRed
p1173
I5
sVpIdent
p1174
I7
sV414gsjk54eL
p1175
I5
sVbb
p1176
I6
sVSubscriptions
p1177
I1
sVAutomotive
p1178
I12
sVsignInTooltip
p1179
I1
sVFord
p1180
I1
sVcurrent
p1181
I1
sVtransform3d
p1182
I1
sV01UR
p1183
I6
sV520
p1184
I2
sV2F23dir4eyNRWqxS2A
p1185
I1
sV522
p1186
I9
sVmarketing
p1187
I2
sVWebkit
p1188
I1
sV528
p1189
I9
sV529
p1190
I1
sVfilled
p1191
I4
sVB00MR9UWVO
p1192
I1
sVshopAllTimeout
p1193
I1
sVB00I3MNF6S
p1194
I1
sVauiStarClassMedium
p1195
I13
sVdropdown
p1196
I4
sVB00DD0B1R0
p1197
I2
sVAge
p1198
I6
sVInk
p1199
I1
sVelementClass
p1200
I4
sVpostslateImgHeight
p1201
I1
sVwater
p1202
I1
sVDSL
p1203
I1
sVwlTriggers
p1204
I2
sV306
p1205
I1
sVShockproof
p1206
I3
sVcreateSimImg
p1207
I2
sVissSearchAliases
p1208
I1
sVtoolbar
p1209
I1
sV51IrtD9
p1210
I2
sVbox
p1211
I7
sVhhgg
p1212
I1
sVlazy
p1213
I7
sVshift
p1214
I1
sVcreateSimContainer
p1215
I2
sVOrphan
p1216
I1
sV59374
p1217
I2
sVmx
p1218
I1
sVmembership
p1219
I1
sV5856181011
p1220
I2
sV51sf7y8LKpL
p1221
I5
sVMP
p1222
I18
sV438
p1223
I2
sV436
p1224
I1
sV437
p1225
I1
sV434
p1226
I1
sV435
p1227
I2
sVnavigation
p1228
I14
sV433
p1229
I1
sV430
p1230
I4
sV431
p1231
I2
sV51PB5hjY8lL
p1232
I5
sV2FsZHkzVltdbxqNc4X7szqWqeWYgiuu1MhS7d5jH81BzWRsteD1qfKriFor7tDPvKvP0NVUBzQ
p1233
I1
sVPolicies
p1234
I1
sVsearchapiEndpoint
p1235
I1
sVextra
p1236
I4
sV2617941011
p1237
I1
sV87b069b255db02b4805f7e714b617f8f
p1238
I1
sV228013
p1239
I1
sVAbbey
p1240
I1
sVa7R
p1241
I4
sVclientWidth
p1242
I1
sV170px
p1243
I6
sVDhecyZdTsI
p1244
I1
sVBeautyBar
p1245
I1
sVImport
p1246
I3
sVV327919596
p1247
I1
sV3Abeauty
p1248
I1
sVayo
p1249
I1
sVAustralia
p1250
I1
sVKit
p1251
I4
sVhandbags
p1252
I1
sVUTF8
p1253
I254
sVtoysinternet
p1254
I1
sVonly
p1255
I1
sVHello
p1256
I1
sVNikon
p1257
I24
sVstylesheet
p1258
I1
sVItems
p1259
I5
sVUyZk6dGdYzx1dhq2IGVYlaubkpPGBe4x6VM1DoNUA6pMbqlx5ZR
p1260
I1
sVitemList
p1261
I24
sVhttps
p1262
I106
sVmsg
p1263
I2
sVscope
p1264
I12
sVprev
p1265
I1
sVcheckout
p1266
I3
sV16GB
p1267
I11
sVRetailSearchAssets
p1268
I8
sV193870011
p1269
I1
sVMom
p1270
I1
sVTextbooks
p1271
I3
sVF
p1272
I4
sVAUI
p1273
I26
sVgetElementsByTagName
p1274
I1
sVbuyingPrice
p1275
I1
sVBed
p1276
I1
sVBee
p1277
I3
sVinvocation
p1278
I1
sV2274349542
p1279
I2
sV13339252011
p1280
I1
sVAffiliate
p1281
I1
sVclouddrive
p1282
I8
sVfly
p1283
I1
sVontouchend
p1284
I2
sVcreateSVGRect
p1285
I1
sVFamily
p1286
I4
sVcurrency
p1287
I1
sVSaga
p1288
I2
sVcar
p1289
I1
sVCBCCGNO
p1290
I1
sV41jSerFSN2L
p1291
I5
sVB013EP13Z8
p1292
I2
sVB006QRQVMC
p1293
I2
sVBath
p1294
I4
sVreviews
p1295
I40
sVLocks
p1296
I1
sVprinting
p1297
I1
sVL32
p1298
I2
sVAppliances
p1299
I3
sVSY660
p1300
I102
sVMotorcycle
p1301
I2
sVOur
p1302
I3
sVChildren
p1303
I1
sVOut
p1304
I2
sV445836682
p1305
I1
sV7px
p1306
I1
sVMedia
p1307
I4
sVoverlay
p1308
I7
sVtopic
p1309
I1
sVFitness
p1310
I2
sVScore
p1311
I1
sV238
p1312
I2
sVbrowsePromos
p1313
I1
sV01rgQ3jqo7L
p1314
I6
sV235
p1315
I3
sV236
p1316
I1
sV237
p1317
I2
sV230
p1318
I2
sV231
p1319
I2
sV232
p1320
I2
sV233
p1321
I1
sVV337321878
p1322
I1
sV31TzmwTkVDL
p1323
I2
sV468520
p1324
I1
sVwinter
p1325
I1
sVbestseller
p1326
I2
sVCasa
p1327
I1
sVcharset
p1328
I2
sVsearchDropdown
p1329
I1
sVS33
p1330
I2
sV1
p1331
I214
sVRebel
p1332
I6
sVskates
p1333
I1
sVInterchangeable
p1334
I6
sVautofocus
p1335
I2
sVsubsidiaries
p1336
I1
sVdivider
p1337
I7
sV2858778011
p1338
I5
sVmap
p1339
I152
sVproduct
p1340
I142
sVdesigner
p1341
I4
sV599858
p1342
I1
sV2Fphx
p1343
I1
sV141
p1344
I3
sVmax
p1345
I20
sV514ycAaCXbL
p1346
I1
sVGuarantee
p1347
I2
sVtryInitClientTriggeredWeblabs
p1348
I3
sV149
p1349
I2
sVV327533537
p1350
I1
sVKWrL
p1351
I6
sV3A625150011
p1352
I1
sVBell
p1353
I1
sVSportsOutdoorsT1Panel
p1354
I2
sV4500
p1355
I1
sVDIGITAL
p1356
I3
sVdate
p1357
I2
sVBecome
p1358
I2
sVprimeMenuWidth
p1359
I1
sVprefetchUrls
p1360
I2
sVdata
p1361
I339
sVExpandable
p1362
I3
sVView
p1363
I4
sVExclusive
p1364
I1
sVclimbing
p1365
I1
sVsx
p1366
I3
sVShoes
p1367
I7
sVV196325517
p1368
I1
sV6th
p1369
I4
sV2Fservices
p1370
I1
sV10166275011
p1371
I1
sVtranslateZ
p1372
I1
sVsv
p1373
I8
sVq
p1374
I2
sV201602060
p1375
I1
sVCatching
p1376
I3
sVRadio
p1377
I2
sVfrom100
p1378
I2
sV41cwEhtosRL
p1379
I5
sVsc
p1380
I3
sVB00ECQUY2M
p1381
I2
sVsa
p1382
I82
sVdownloads
p1383
I1
sVsf
p1384
I1
sVopts
p1385
I22
sVsd
p1386
I1
sV098
p1387
I2
sVexclusive
p1388
I4
sVshoes
p1389
I11
sVHunting
p1390
I2
sVkeydownCtw
p1391
I5
sV57326
p1392
I2
sVB00KQ9ZW4O
p1393
I2
sV2238192011
p1394
I1
sVfeature
p1395
I7
sV2FsjD8jAPcvulWu3LGd232hKONr9w
p1396
I1
sV36px
p1397
I3
sVJam
p1398
I2
sVnbsp
p1399
I11
sV281052
p1400
I1
sVusemap
p1401
I6
sVactionUrl
p1402
I2
sVWhite
p1403
I16
sVauiPreloadJS
p1404
I2
sVpointer
p1405
I1
sVequiv
p1406
I1
sV09YW0SKYY7ECM6JD9KVR
p1407
I1
sVrh
p1408
I8
sVthumb
p1409
I6
sV3A11057241
p1410
I1
sVRules
p1411
I3
sVscrolling
p1412
I1
sVUnlimited
p1413
I7
sVLaptops
p1414
I2
sVplatform
p1415
I2
sVwindow
p1416
I160
sVoffers
p1417
I2
sVV219086192
p1418
I1
sVRC
p1419
I17
sVWorld
p1420
I6
sVmain
p1421
I2
sVJack
p1422
I3
sVciuCSS
p1423
I2
sV11403480011
p1424
I1
sVnon
p1425
I7
sVTurtles
p1426
I4
sVmatches
p1427
I2
sVMegaray
p1428
I3
sVremoveEventListener
p1429
I1
sV2205237011
p1430
I1
sVc45500
p1431
I1
sVEDITORIAL
p1432
I5
sVILCE7RM2
p1433
I6
sVnot
p1434
I13
sVAmazonUI
p1435
I18
sVnow
p1436
I10
sV51FtbH9DH2L
p1437
I5
sV11pi4Dscz1L
p1438
I6
sVexecute
p1439
I42
sVDesktops
p1440
I2
sVname
p1441
I83
sV11525244011
p1442
I1
sVIII
p1443
I2
sVautoCrop
p1444
I3
sVFrance
p1445
I1
sV318135011
p1446
I1
sVWatches
p1447
I1
sV2Fspecs
p1448
I8
sV1001423601
p1449
I1
sVajaxProximity
p1450
I1
sVelementStyle
p1451
I2
sVAmazonGatewayHerotatorJS
p1452
I2
sVcgLL
p1453
I2
sVgoodreads
p1454
I1
sVB00MQOZETK
p1455
I3
sVel
p1456
I3
sV264px
p1457
I5
sVen
p1458
I7
sVretrieve
p1459
I5
sVB00UKV5E4Q
p1460
I2
sVf2f2f2
p1461
I1
sV51N
p1462
I5
sVBroadband
p1463
I1
sV51Tdmu3B3RL
p1464
I5
sVec
p1465
I1
sV2Fb
p1466
I1
sVLive
p1467
I4
sVreplay
p1468
I2
sV2387659835
p1469
I1
sV2Fj
p1470
I1
sVSave
p1471
I8
sVes
p1472
I1
sValbum
p1473
I3
sVcanvas
p1474
I2
sVACX
p1475
I1
sVcontainer
p1476
I11
sV1645223338
p1477
I1
sVspace
p1478
I3
sVhoverText
p1479
I13
sVDiapers
p1480
I1
sV9961016011
p1481
I1
sVConnected
p1482
I1
sV31a3zZNoNqL
p1483
I5
sV2Bv16Q905pEl9lc7C2aBJ0iXOipnKhILsnmW9Kc
p1484
I1
sVB00I15SB16
p1485
I1
sVzappos
p1486
I1
sVajaxSuccess
p1487
I2
sVB015M78NX6
p1488
I2
sVshows
p1489
I2
sVB016KBVBCS
p1490
I2
sV2F2
p1491
I6
sV0JWZMR0KRDY7R2AHQBCD
p1492
I2
sV50px
p1493
I1
sVEND
p1494
I7
sV161d81ecb75e65234bdc9087cc8ee3b3a8dedb6b
p1495
I2
sVG
p1496
I217
sVNWZE385
p1497
I3
sVcartFlyoutDisabled
p1498
I1
sVB00YYZEQ1G
p1499
I1
sV8GB
p1500
I7
sVcart
p1501
I57
sVJudd
p1502
I1
sVAutomation
p1503
I1
sVajax
p1504
I22
sVrows
p1505
I1
sV01N6V77XbAL
p1506
I6
sVOne
p1507
I11
sVorg
p1508
I5
sVSecurity
p1509
I2
sVcard
p1510
I118
sVcare
p1511
I3
sVTriForce
p1512
I3
sV3019
p1513
I1
sVrewardscardmember
p1514
I2
sVVideos
p1515
I1
sVPlayers
p1516
I1
sVCollector
p1517
I2
sVshopall
p1518
I1
sVtransition
p1519
I2
sV103015
p1520
I2
sVnofollow
p1521
I2
sVSign
p1522
I7
sV519
p1523
I14
sV518
p1524
I6
sV446686162
p1525
I1
sVXBR55X900C
p1526
I6
sV1003016361
p1527
I1
sV511
p1528
I2
sV510
p1529
I3
sV512
p1530
I1
sV515
p1531
I1
sV9209902011
p1532
I1
sV517
p1533
I1
sVfirst
p1534
I11
sVBrazil
p1535
I1
sViPad
p1536
I1
sVsimsLoading
p1537
I5
sVadSnippet
p1538
I1
sVcomputer
p1539
I2
sVwlab
p1540
I1
sV1X
p1541
I2
sVThere
p1542
I3
sVACCESSIBILITY
p1543
I1
sVprice
p1544
I48
sVStart
p1545
I2
sVBlack
p1546
I54
sVLists
p1547
I1
sVOns
p1548
I1
sVspanish
p1549
I1
sVInch
p1550
I50
sVmessage
p1551
I2
sVB00ZOVDSBS
p1552
I2
sVopen
p1553
I1
sVerrorWishlist
p1554
I1
sVsize
p1555
I27
sVsubtextKey
p1556
I2
sVDiamond
p1557
I3
sVresponsiveTouchAgents
p1558
I1
sVexists
p1559
I1
sVSX440
p1560
I1
sVwidth
p1561
I127
sV1x
p1562
I8
sVHolidayStore
p1563
I1
sVBundle
p1564
I9
sV1BN9GC7087D5V7129PMB
p1565
I67
sVreturns
p1566
I1
sV2
p1567
I67
sVparams
p1568
I7
sVcarousel
p1569
I172
sVwhfh
p1570
I1
sVDate
p1571
I2
sVB015O7BOU8
p1572
I1
sVAllowance
p1573
I1
sVData
p1574
I4
sV41UbvojQC9L
p1575
I5
sVnutrition
p1576
I1
sVV290920508
p1577
I1
sVreleases
p1578
I2
sV3DS
p1579
I13
sVresponsiveGW
p1580
I1
sVStorage
p1581
I2
sVhasPanel
p1582
I1
sV1287
p1583
I3
sVB00YQM1PNY
p1584
I2
sVpadding
p1585
I15
sVShopbop
p1586
I2
sVInstall
p1587
I1
sVposinset
p1588
I8
sVGrooming
p1589
I2
sVcopy
p1590
I1
sVEastDane
p1591
I1
sVpng
p1592
I45
sV11
p1593
I1
sV10
p1594
I32
sV13
p1595
I2
sV12
p1596
I4
sV15
p1597
I5
sV14
p1598
I9
sV17
p1599
I5
sV16
p1600
I33
sV19
p1601
I1
sV18
p1602
I9
sVMexico
p1603
I1
sVDownton
p1604
I1
sVDeliveries
p1605
I2
sVAnalytics
p1606
I1
sVr
p1607
I38
sVcards
p1608
I3
sVscarcityMessage
p1609
I2
sVB00KWFCSB2
p1610
I2
sVbrowser
p1611
I15
sVand
p1612
I17
sVInstantVideoPanel
p1613
I2
sV2255580302
p1614
I1
sVsoftlines
p1615
I6
sVprimeTimeout
p1616
I1
sVV306649905
p1617
I1
sVExtant
p1618
I1
sVField
p1619
I2
sV2204518011
p1620
I1
sVprv
p1621
I1
sVDX
p1622
I2
sVSWP
p1623
I2
sVDT
p1624
I2
sVsap
p1625
I1
sVorderApplication
p1626
I2
sVCCLFOOT
p1627
I1
sVprecacheMaterials
p1628
I3
sV28598
p1629
I1
sVgeneral
p1630
I3
sV20X
p1631
I2
sV6682399011
p1632
I1
sV11453461011
p1633
I1
sVdining
p1634
I1
sVemphasis
p1635
I2
sVanimation
p1636
I1
sVsearchAlias
p1637
I1
sV15px
p1638
I2
sVmany
p1639
I2
sVnoti
p1640
I11
sVHalo
p1641
I3
sV7939884564
p1642
I1
sV201
p1643
I4
sV200
p1644
I10
sVmyactions
p1645
I1
sV202
p1646
I1
sVOff
p1647
I2
sVtrace
p1648
I2
sVnormal
p1649
I122
sVtrack
p1650
I7
sVB016LMQIMO
p1651
I1
sV2335752011
p1652
I1
sVV289463249
p1653
I1
sV2Fsell
p1654
I1
sV12041
p1655
I1
sVHarry
p1656
I3
sVsheets
p1657
I1
sVTVs
p1658
I1
sVsuperhero
p1659
I16
sV2250
p1660
I7
sV51Yiwb3cJ2L
p1661
I5
sVicon
p1662
I51
sVFilter
p1663
I2
sV210owd74xAL
p1664
I3
sVtextarea
p1665
I1
sVlater
p1666
I3
sVdrive
p1667
I4
sV229534
p1668
I1
sV27211
p1669
I4
sVGroceries
p1670
I1
sV51922
p1671
I9
sV163856011
p1672
I3
sVGATEWAY
p1673
I5
sVquantity
p1674
I1
sVshop
p1675
I6
sVWeb
p1676
I3
sVB00X8UI466
p1677
I1
sVIssParentCoordinator
p1678
I1
sVshot
p1679
I6
sVshow
p1680
I7
sVpromoID
p1681
I20
sV2280515402
p1682
I2
sV2FBEOpWiTs2PTG23S2Yhdg
p1683
I1
sVExmor
p1684
I6
sVHappiness
p1685
I2
sVSystems
p1686
I1
sVStephen
p1687
I3
sV51FskLcuc9L
p1688
I6
sVlabel
p1689
I6
sVafterschool
p1690
I1
sVslot
p1691
I12
sVWe
p1692
I1
sV224
p1693
I1
sVJurassic
p1694
I3
sVtitle
p1695
I179
sVV395592492
p1696
I2
sVtrue
p1697
I21
sVSkateboards
p1698
I1
sVTarzan
p1699
I3
sVWi
p1700
I6
sVDSC
p1701
I15
sVKnitting
p1702
I1
sVServices
p1703
I17
sVover
p1704
I1
sV01JznSgpsVL
p1705
I6
sVBirthdays
p1706
I2
sVget
p1707
I4
sVisDdInT1
p1708
I2
sVH
p1709
I10
sVisDdInT3
p1710
I2
sVjazz
p1711
I1
sVtopSpacer
p1712
I1
sValerts
p1713
I1
sVssl
p1714
I68
sVMagazine
p1715
I2
sV5188hIPJrsL
p1716
I5
sVProducts
p1717
I12
sV315zvYgE
p1718
I5
sV1055398
p1719
I1
sVswvgdtt
p1720
I1
sV3A7147443011
p1721
I1
sVis
p1722
I1
sVux
p1723
I8
sVprime
p1724
I74
sV130px
p1725
I1
sVRight
p1726
I4
sVresource
p1727
I3
sVbestselling
p1728
I1
sVB00L83TQR6
p1729
I3
sVartist
p1730
I1
sVbrowsers
p1731
I1
sVTeenage
p1732
I4
sVGNO2
p1733
I1
sVGNO3
p1734
I1
sVsummary
p1735
I2
sVILLUM
p1736
I3
sVKitchen
p1737
I6
sVUX1125
p1738
I1
sVaccessoriesCSS
p1739
I1
sVUNCHARTED
p1740
I3
sVimageSrc
p1741
I2
sV62327
p1742
I1
sVdataNavRef
p1743
I2
sVdataNavRole
p1744
I2
sV3410851
p1745
I1
sV0101a1823ca3d5d46ce03d4502edf28f095b20f780c29eddcddebefb2933fa9c1e98
p1746
I1
sVApps
p1747
I12
sVPublish
p1748
I1
sVup
p1749
I5
sVrelative
p1750
I9
sV2658409011
p1751
I1
sVdialogCss
p1752
I2
sV495
p1753
I1
sVimpressions
p1754
I7
sVInterest
p1755
I1
sVB013PSUE1S
p1756
I2
sVWorldwide
p1757
I1
sVShip
p1758
I2
sVdetect
p1759
I2
sVShopping
p1760
I4
sVvertical
p1761
I11
sVcamping
p1762
I1
sVStill
p1763
I4
sVaddWlt
p1764
I2
sVreview
p1765
I1
sVsidebarFreeformPlayer
p1766
I1
sV491
p1767
I2
sV3
p1768
I58
sVCareers
p1769
I1
sV28DE5151E2930C25FD313A6DAA6DA31818DA06E4
p1770
I1
sVbetween
p1771
I1
sVtotalWidth
p1772
I4
sVQL
p1773
I6
sVreading
p1774
I3
sVB00T85PKD0
p1775
I2
sV51ySxE98HBL
p1776
I5
sVaffordable
p1777
I1
sVjobs
p1778
I1
sV440X200
p1779
I2
sVJohnson
p1780
I1
sVscreen
p1781
I2
sVaPTID
p1782
I7
sVjp
p1783
I1
sVB00KWF366S
p1784
I2
sVjs
p1785
I177
sVenableBbPrefetch
p1786
I1
sVnavFooterDescLine
p1787
I1
sVFull
p1788
I10
sVstyles
p1789
I1
sVunit
p1790
I3
sVTeam
p1791
I1
sVDirectory
p1792
I1
sVV290364652
p1793
I4
sVcities
p1794
I2
sVja
p1795
I3
sVB0091X3B6M
p1796
I2
sVFireTvPanel
p1797
I2
sVinstallation
p1798
I1
sVCollectors
p1799
I1
sVGive
p1800
I1
sVPhones
p1801
I3
sVV369764580
p1802
I2
sV1725
p1803
I1
sVnavFooterDescText
p1804
I35
sVflipped
p1805
I1
sVs
p1806
I68
sV31FOkOF6HgL
p1807
I5
sVEveryday
p1808
I1
sVisNavInline
p1809
I1
sV210px
p1810
I1
sVfromPDB
p1811
I3
sV01c3JrM3rnL
p1812
I2
sVappendChild
p1813
I1
sVcolor
p1814
I44
sVTravel
p1815
I1
sVTrilogy
p1816
I6
sVpoly
p1817
I9
sVSpecialty
p1818
I2
sV60
p1819
I4
sV61
p1820
I3
sV62
p1821
I1
sV63
p1822
I2
sV65
p1823
I14
sV67
p1824
I1
sVLeaky
p1825
I1
sV155
p1826
I1
sVArtistSpotlight
p1827
I1
sVEvents
p1828
I1
sVUnfinished
p1829
I3
sVbetter
p1830
I1
sVarts
p1831
I2
sVBuy
p1832
I2
sVAssembly
p1833
I1
sVBeauty
p1834
I12
sVprimephotos
p1835
I1
sV156
p1836
I2
sVnavFooterDescItem
p1837
I35
sVBut
p1838
I1
sVOptical
p1839
I13
sVInternationalStripe
p1840
I1
sVStick
p1841
I2
sV508
p1842
I2
sVSchools
p1843
I1
sVsetAsin
p1844
I2
sVprototype
p1845
I1
sV502
p1846
I1
sV500
p1847
I167
sV501
p1848
I1
sVengine
p1849
I9
sVLawn
p1850
I3
sVshopping
p1851
I4
sVgwPrimeMusicText
p1852
I1
sVwith
p1853
I5
sVGold
p1854
I2
sVV375965495
p1855
I1
sVWearable
p1856
I1
sVusflex
p1857
I6
sVphotos
p1858
I1
sVspan6
p1859
I6
sV8269
p1860
I2
sVLearn
p1861
I2
sV6x
p1862
I6
sVFirefox
p1863
I1
sVstandard
p1864
I1
sVsound
p1865
I2
sVnavFooterColSpacerInner
p1866
I3
sVV289617618
p1867
I2
sV284507
p1868
I1
sVFence
p1869
I1
sV6G
p1870
I3
sV6M
p1871
I1
sVV289617612
p1872
I2
sV3DAZFSSOA
p1873
I1
sVclassName
p1874
I3
sV2GB
p1875
I2
sVwarning
p1876
I1
sVSpain
p1877
I1
sV1101
p1878
I1
sVYoyo
p1879
I1
sVshops
p1880
I1
sVmargin
p1881
I14
sV3A13339252011
p1882
I1
sVSlot
p1883
I5
sVB008BFSMBA
p1884
I2
sVorientation
p1885
I2
sV61vUHfR
p1886
I2
sVsecondary
p1887
I4
sVcanon
p1888
I2
sV413CXBoEsBL
p1889
I2
sVContent
p1890
I6
sVmiddle
p1891
I9
sVV306318251
p1892
I2
sVKids
p1893
I12
sVnavFooterVerticalColumn
p1894
I1
sVMonth
p1895
I3
sVGNO
p1896
I6
sVcreateList
p1897
I1
sV3386071
p1898
I1
sVComplete
p1899
I8
sV48px
p1900
I1
sVweblabs
p1901
I1
sVquickLook
p1902
I4
sV1500x300
p1903
I13
sVV343920894
p1904
I2
sVya
p1905
I18
sVV306315386
p1906
I1
sVarguments
p1907
I4
sVfo
p1908
I8
sV3000px
p1909
I1
sVlite
p1910
I1
sVFREE
p1911
I1
sVdocument
p1912
I9
sVforhostess
p1913
I1
sVkindleTimeout
p1914
I1
sVcs
p1915
I17
sV516yMvEqIYL
p1916
I5
sVstatus
p1917
I7
sVGoods
p1918
I1
sVUTF
p1919
I1
sVclosest
p1920
I3
sVI
p1921
I553
sVIS
p1922
I4
sVresponsiveGridEnabled
p1923
I1
sVdrives
p1924
I1
sVIV
p1925
I7
sVII
p1926
I10
sVtestGradients
p1927
I2
sVAnywhere
p1928
I2
sVtwo
p1929
I1
sVApparel
p1930
I2
sVMaya
p1931
I3
sVrID
p1932
I2
sVIE
p1933
I2
sV8319
p1934
I3
sVPatio
p1935
I3
sVundefined
p1936
I3
sVDVDs
p1937
I5
sVfloor
p1938
I1
sVIt
p1939
I1
sVknow
p1940
I1
sVDash
p1941
I2
sVmedia
p1942
I9
sVRent
p1943
I1
sVna
p1944
I68
sVrId
p1945
I7
sVB012XYP82U
p1946
I2
sVB00IOY8XWQ
p1947
I2
sVIf
p1948
I6
sV216
p1949
I1
sV217
p1950
I2
sVSDMX24
p1951
I3
sVoutdoor
p1952
I4
sV8334
p1953
I3
sV210
p1954
I1
sV211
p1955
I1
sVwhen
p1956
I57
sV5916440011
p1957
I1
sVV288892366
p1958
I1
sV219
p1959
I1
sVshopbop
p1960
I1
sV2249193782
p1961
I17
sVaspect
p1962
I12
sV3Afashion
p1963
I6
sVtouch
p1964
I20
sVco
p1965
I2
sVspeed
p1966
I1
sVunderline
p1967
I2
sV12071
p1968
I1
sV61shAmk
p1969
I5
sV2BR8A4vML
p1970
I5
sV517rwU0G
p1971
I5
sVbuildIssInitObject
p1972
I4
sV2BbaGSBt5
p1973
I1
sVDome
p1974
I1
sVdesktop
p1975
I178
sVholidaytoylist
p1976
I2
sVinterested
p1977
I4
sV4
p1978
I93
sVcb
p1979
I1
sV56525
p1980
I2
sVNinja
p1981
I4
sVnewPadding
p1982
I4
sV446089862
p1983
I1
sVV318885489
p1984
I1
sVscheduled
p1985
I2
sVdeptText
p1986
I1
sVhover
p1987
I4
sVV391853216
p1988
I7
sVread
p1989
I1
sVFully
p1990
I2
sVGeneric
p1991
I6
sVHeadphones
p1992
I4
sVDrake
p1993
I3
sVmousemove
p1994
I1
sVtest
p1995
I8
sVbeforeUpdateBind
p1996
I2
sVgrid
p1997
I6
sVqueuedOpen
p1998
I4
sV1xsidekick
p1999
I2
sVCrafts
p2000
I4
sVamp
p2001
I103
sVV192250694
p2002
I2
sVV192250695
p2003
I4
sVTODO
p2004
I1
sVfurniture
p2005
I5
sVShop
p2006
I16
sV2BmeKL
p2007
I5
sVB007F4AG76
p2008
I1
sVinputPlaceholder
p2009
I1
sVshelf
p2010
I6
sVMp4Player
p2011
I2
sVStreaming
p2012
I1
sVSD
p2013
I2
sVcoords
p2014
I43
sVt
p2015
I40
sVB00VXMY262
p2016
I2
sVMusic
p2017
I37
sVFM
p2018
I2
sV230659011
p2019
I1
sVcomponentLoaded
p2020
I1
sVV320013542
p2021
I1
sVJLynneELO
p2022
I1
sVsearchAliasDisplayNameAccessor
p2023
I1
sV419c7gnMb9L
p2024
I12
sVJewelry
p2025
I5
sVEntertainment
p2026
I2
sVPotter
p2027
I3
sVvinemarket
p2028
I1
sVconditional
p2029
I1
sVB00LG71K1O
p2030
I2
sVMark
p2031
I1
sV10445813011
p2032
I6
sV51PlTj57BjL
p2033
I5
sVimages
p2034
I1607
sVJjLpSUTqC1GnNV77cNo
p2035
I1
sV1BN9GC7087D5V7129PMB2
p2036
I1
sVF9CAD8A11D4336B5E0B3C3B089FA066D0A467C1C
p2037
I1
sV0e1f09229518b947367401526dc33df80dabbbb3
p2038
I1
sVListen
p2039
I2
sVextendedFlyout
p2040
I1
sVslice
p2041
I2
sVchannel
p2042
I2
sVMen
p2043
I4
sVlabelledby
p2044
I1
sVtoken
p2045
I12
sVcomputing
p2046
I1
sVG46K
p2047
I3
sVV290603941
p2048
I2
sVcritical
p2049
I9
sVV290603946
p2050
I3
sVamazondevices
p2051
I5
sVSY220
p2052
I204
sVB00NB86OYE
p2053
I1
sV1320X600
p2054
I2
sVwelcome
p2055
I2
sVassembly
p2056
I1
sVarrow
p2057
I18
sVbusiness
p2058
I2
sVEquipment
p2059
I5
sVB00K26FZ9I
p2060
I2
sV11297583011
p2061
I1
sVlogMetrics
p2062
I3
sV2Fredirect
p2063
I1
sVOutdoors
p2064
I9
sVtds
p2065
I12
sVStationery
p2066
I1
sVV358606633
p2067
I1
sVthrow
p2068
I2
sV04MCSGWSYX2FBEA3009E
p2069
I4
sVV289660775
p2070
I1
sVon
p2071
I4
sVol
p2072
I4
sVcentral
p2073
I2
sV706808011
p2074
I1
sVorigins
p2075
I1
sVog
p2076
I4
sV3000v5
p2077
I2
sVoe
p2078
I1
sVinterestbasedads
p2079
I1
sVviewsubscriptions
p2080
I1
sVtoUpperCase
p2081
I1
sVTrade
p2082
I4
sVacs
p2083
I4
sV200260520
p2084
I1
sVRobert
p2085
I1
sVacx
p2086
I1
sV2BMz4gg
p2087
I1
sVLongwood
p2088
I3
sV2BElQDPhJ21PwJpoqbvtw3uyU0UhVnPpAUlEZYOFPY7Ub5F4sjlFjklc
p2089
I1
sV3248684011
p2090
I1
sVAds
p2091
I1
sVmyapps
p2092
I2
sVNo
p2093
I2
sVNa
p2094
I3
sVimage
p2095
I495
sV3A7147442011
p2096
I1
sVbbb
p2097
I1
sVmas
p2098
I2
sVAdd
p2099
I3
sVLuxury
p2100
I3
sVStorm
p2101
I3
sVMockingjay
p2102
I3
sV41DBnlRMzdL
p2103
I11
sVB00DAHSY58
p2104
I1
sVyour
p2105
I30
sVStore
p2106
I9
sVBuilt
p2107
I9
sVbought
p2108
I1
sVfast
p2109
I1
sVInfinity
p2110
I1
sVlog
p2111
I2
sVcomixology
p2112
I1
sVarea
p2113
I46
sVaren
p2114
I1
sV10000
p2115
I1
sVJamie
p2116
I1
sVCollection
p2117
I9
sVFabric
p2118
I1
sVcats
p2119
I1
sVstars
p2120
I12
sVArtwork
p2121
I1
sV10158976011
p2122
I1
sV61ABF5573xL
p2123
I5
sVupnav2xImageHeight
p2124
I1
sVpageElapsedTime
p2125
I1
sVtouchScrolling
p2126
I1
sVELO
p2127
I1
sVkittens
p2128
I1
sVJ
p2129
I9
sVSX880
p2130
I1
sV706814011
p2131
I1
sVV309092179
p2132
I1
sVAutomotiveIndustrialPanel
p2133
I2
sVGWhero
p2134
I4
sVError
p2135
I2
sVSmall
p2136
I3
sVmice
p2137
I1
sV4972214011
p2138
I1
sVGuide
p2139
I2
sVviewport
p2140
I8
sVMarvel
p2141
I2
sVGqUUEcnv
p2142
I1
sVRaider
p2143
I3
sVLED
p2144
I24
sVstrollers
p2145
I1
sVCentury
p2146
I3
sVdefault
p2147
I2
sVV153387053
p2148
I2
sVryo
p2149
I1
sVB00HNJWUBI
p2150
I2
sVClose
p2151
I1
sVcNL
p2152
I5
sVdress2
p2153
I1
sVSpecial
p2154
I4
sVbillboardrow
p2155
I3
sVaa
p2156
I1
sVDelivered
p2157
I1
sVae
p2158
I1
sVad
p2159
I3
sVvideos
p2160
I4
sVaf
p2161
I3
sVB007NESBK2
p2162
I2
sVdash2
p2163
I4
sV41I7wnu9WfL
p2164
I5
sVwatches
p2165
I5
sVpea1
p2166
I1
sVap
p2167
I10
sVas
p2168
I18
sVMgQmL
p2169
I2
sVCriterion
p2170
I3
sVV253690767
p2171
I1
sVnavAmazonLogoFooter
p2172
I3
sVgradients
p2173
I1
sV307026011
p2174
I1
sVB016LMQAEK
p2175
I2
sVfill
p2176
I4
sVagain
p2177
I4
sV5101z
p2178
I3
sVsubtext
p2179
I84
sVComputer
p2180
I5
sVRead
p2181
I1
sVRogue
p2182
I3
sVStations
p2183
I1
sVstorage
p2184
I2
sVHandpicked
p2185
I2
sVLab
p2186
I2
sVAccessory
p2187
I2
sVfield
p2188
I2
sV1113
p2189
I1
sV5
p2190
I50
sVMovie
p2191
I3
sVaddEventListener
p2192
I8
sVyou
p2193
I2
sV61rccWQkd8L
p2194
I5
sVpinnedNavMinHeight
p2195
I1
sV467
p2196
I3
sVopacity
p2197
I6
sVWide
p2198
I5
sVGreat
p2199
I1
sVadrive
p2200
I3
sV18MP
p2201
I2
sVWoot
p2202
I1
sV3400371
p2203
I1
sVa0
p2204
I1
sVnavFooterBackToTop
p2205
I1
sVimportant
p2206
I14
sVregistry
p2207
I7
sV489
p2208
I1
sV488
p2209
I2
sV487
p2210
I1
sV486
p2211
I3
sV484
p2212
I1
sV482
p2213
I2
sV481
p2214
I2
sV480
p2215
I2
sVunbind
p2216
I1
sVremote
p2217
I1
sVV290104146
p2218
I1
sV11433437011
p2219
I1
sVDirect
p2220
I2
sVPantry
p2221
I3
sVHardware
p2222
I3
sVB00OQVZDJM
p2223
I1
sVu
p2224
I6
sV41dNEapzIvL
p2225
I5
sVBlackbelt
p2226
I1
sVdirectory
p2227
I2
sVsongs
p2228
I2
sVresolution
p2229
I1
sVGateway
p2230
I10
sVV288477313
p2231
I1
sVgoToPage
p2232
I8
sVSell
p2233
I7
sVall
p2234
I2
sVWinter
p2235
I1
sVB007SPQZMC
p2236
I1
sV41UdiGQi9xL
p2237
I5
sVWars
p2238
I10
sV41eoMksrnEL
p2239
I6
sVUnable
p2240
I5
sVmp3
p2241
I1
sVProfessional
p2242
I5
sVfollow
p2243
I1
sValt
p2244
I189
sVchildren
p2245
I2
sV144dpi
p2246
I1
sVrd
p2247
I138
sV3A7147441011
p2248
I1
sVB00XIV00EO
p2249
I1
sV2FXmAk8N
p2250
I1
sVtv
p2251
I9
sVdmusic
p2252
I4
sVtr
p2253
I20
sVto
p2254
I3
sVinit
p2255
I9
sVhtmlList
p2256
I1
sVrequestId
p2257
I2
sVsiblings
p2258
I1
sVtd
p2259
I172
sVhomepage
p2260
I13
sV41poS8vZPPL
p2261
I12
sVta
p2262
I1
sVReader
p2263
I5
sVneedToLoad
p2264
I2
sV31QCqnyWtgL
p2265
I5
sVshipment
p2266
I2
sVsong
p2267
I1
sV2FtBau6tKnQ
p2268
I1
sVB00YCY46VO
p2269
I2
sVdebit
p2270
I1
sVSale
p2271
I1
sVScheduledDeliveryJavascript
p2272
I1
sVutil
p2273
I1
sV1px
p2274
I4
sV41TFaF5F7
p2275
I5
sVfan
p2276
I1
sV13130343011
p2277
I1
sV7301146011
p2278
I1
sVB00UI5CTE2
p2279
I2
sVcasa
p2280
I1
sVfixedBarBeacon
p2281
I1
sVexclusives
p2282
I4
sVsans
p2283
I3
sVgatingWeblabOn
p2284
I4
sVsubnavFlyoutUrl
p2285
I1
sVshiftKey
p2286
I1
sVimg15
p2287
I33
sVimg14
p2288
I1
sVlist
p2289
I133
sVV386942464
p2290
I2
sVt1
p2291
I7
sVlarge
p2292
I2
sVV248984170
p2293
I1
sV41f0l9CPtDL
p2294
I5
sVnavFooterPadItemLine
p2295
I2
sVsmall
p2296
I1
sV49340
p2297
I1
sV01cs0BjmL9L
p2298
I2
sV198
p2299
I2
sVcheckColumns
p2300
I3
sVEL
p2301
I1
sV195
p2302
I1
sV194
p2303
I2
sV26770
p2304
I1
sV191
p2305
I1
sV190
p2306
I2
sVbrowsepromos
p2307
I24
sVActually
p2308
I1
sVglobalfooter
p2309
I1
sVDepartment
p2310
I1
sVOnly
p2311
I94
sVbeta
p2312
I1
sV1TB
p2313
I3
sVpopoverLatency
p2314
I4
sVEasy
p2315
I4
sVDressing
p2316
I3
sVEast
p2317
I1
sVDiscounts
p2318
I2
sVcanonical
p2319
I1
sVGiants
p2320
I3
sVB016LMQF04
p2321
I1
sVwhat
p2322
I1
sVcombined
p2323
I4
sVReleases
p2324
I2
sV20MP
p2325
I2
sVsection
p2326
I38
sVKodi
p2327
I1
sVWorker
p2328
I1
sVnand
p2329
I1
sV3Dirol
p2330
I1
sVB00THKEKEQ
p2331
I2
sV6325
p2332
I1
sV51rbwfgFPML
p2333
I5
sVamazonui
p2334
I7
sVmenubar
p2335
I1
sVmethod
p2336
I3
sVB00XVPGR3A
p2337
I2
sVfull
p2338
I3
sVGift
p2339
I6
sV2972638011
p2340
I1
sVK
p2341
I9
sVcomponent
p2342
I6
sVZoom
p2343
I30
sVDepartments
p2344
I1
sVXbox
p2345
I16
sV11874301011
p2346
I1
sVbeacon
p2347
I3
sVSupplements
p2348
I2
sV16400
p2349
I2
sVB00TSUGXKE
p2350
I1
sV25117E9F01C8F0AB1D649F37EDDD2DEBE047C3A6
p2351
I1
sVstrong
p2352
I2
sVisSelected
p2353
I2
sV41V5drLPvxL
p2354
I6
sVsearch
p2355
I82
sV3000
p2356
I8
sV1263363419
p2357
I1
sVV291203479
p2358
I2
sVV291203476
p2359
I2
sVOpen
p2360
I1
sV2Fhome
p2361
I9
sVComics
p2362
I1
sVnumberOfRatings
p2363
I13
sVexperience
p2364
I1
sVspotlight
p2365
I2
sVC160E96327A40BD72E9E40AD44A3916E6BF9B0A77
p2366
I1
sVadvertising
p2367
I2
sVAudiobooks
p2368
I3
sVsocial
p2369
I3
sVaction
p2370
I13
sV4624
p2371
I1
sVjavascripts
p2372
I1
sVoptions
p2373
I1
sVaria
p2374
I27
sV056MY6N059JRBJY04NSW
p2375
I1
sVacorn
p2376
I2
sVfamily
p2377
I6
sVThings
p2378
I3
sVfreshPopOverSimsClick
p2379
I1
sVAZSOAviewallMakeM
p2380
I1
sVSparkling
p2381
I1
sVhref
p2382
I316
sVshopAllContent
p2383
I1
sVappliances
p2384
I2
sVtoys
p2385
I12
sVmanage
p2386
I6
sVselect
p2387
I11
sVAdditional
p2388
I1
sVElements
p2389
I1
sV2FB0YvaPS4MscBBOIFDraWEvq4TA
p2390
I1
sVPassionately
p2391
I1
sVdestination
p2392
I1
sV10659983011
p2393
I1
sV2900646310
p2394
I1
sV11350978011
p2395
I1
sV11051399011
p2396
I1
sV6
p2397
I26
sV3760911
p2398
I1
sVMinions
p2399
I3
sVmore
p2400
I22
sVSX1725
p2401
I1
sVClasses
p2402
I2
sVsearchSprite
p2403
I1
sVRX100
p2404
I15
sVStreamlight
p2405
I2
sV11433412011
p2406
I1
sVauiStarClass
p2407
I12
sV220px
p2408
I101
sVTheater
p2409
I1
sVstick
p2410
I2
sVwebkit
p2411
I3
sVbenefits
p2412
I2
sV3A3760911
p2413
I1
sVSpotlight
p2414
I1
sV3427287011
p2415
I1
sVnone
p2416
I33
sVNow
p2417
I1
sVdocumentElement
p2418
I4
sVSponsoredLinksGateway
p2419
I1
sV49860
p2420
I2
sV28px
p2421
I1
sVdev
p2422
I1
sVautocomplete
p2423
I10
sViss
p2424
I16
sVparagraph
p2425
I10
sVV289982778
p2426
I4
sV172504
p2427
I1
sVv
p2428
I9
sVstar
p2429
I27
sVYour
p2430
I53
sVplattr
p2431
I6
sVhistory
p2432
I15
sV41vZAl6ZapL
p2433
I5
sVcompare
p2434
I2
sVSY330
p2435
I102
sV678551011
p2436
I1
sVshare
p2437
I5
sVaccept
p2438
I1
sVstates
p2439
I2
sVhasWorkingJavascript
p2440
I5
sVminimum
p2441
I1
sVisDoCtw
p2442
I2
sVDATE
p2443
I1
sVB00ZVJAF9G
p2444
I1
sV14367
p2445
I3
sVcsl
p2446
I3
sV3000x600
p2447
I12
sVBonus
p2448
I3
sVstripe
p2449
I1
sVeveryday
p2450
I1
sV3A7147440011
p2451
I1
sVCurb
p2452
I1
sVShadow
p2453
I2
sV277
p2454
I1
sVcss
p2455
I149
sVblank
p2456
I2
sVB000GAKDAG
p2457
I2
sVfr
p2458
I1
sVAUIClients
p2459
I64
sVplans
p2460
I2
sVisSafari
p2461
I2
sVV309092102
p2462
I2
sVAdapter
p2463
I4
sV2BQnQyGHD
p2464
I1
sVList
p2465
I8
sVHandling
p2466
I1
sValtKey
p2467
I1
sVfb
p2468
I2
sVDOMContentLoaded
p2469
I2
sVDual
p2470
I2
sVhorizontal
p2471
I6
sV600px
p2472
I2
sVPlans
p2473
I1
sVa
p2474
I1565
sVexperienceStr
p2475
I2
sV10232440011
p2476
I1
sVfooter
p2477
I3
sVregister
p2478
I12
sVnotfirst
p2479
I1
sVtabletDestination
p2480
I20
sVyourorders
p2481
I1
sVmarginwidth
p2482
I1
sVcrafts
p2483
I2
sVinline
p2484
I131
sVrentals
p2485
I1
sVegg
p2486
I7
sVBooksPanel
p2487
I2
sVFilm
p2488
I5
sVV292646951
p2489
I1
sVArial
p2490
I1
sVhelp
p2491
I8
sVNano
p2492
I7
sVgetTime
p2493
I1
sVisInternal
p2494
I1
sVSignUp
p2495
I4
sVB011Q0FSC2
p2496
I2
sVComponents
p2497
I2
sVlogUet
p2498
I6
sVCountdown
p2499
I4
sValready
p2500
I2
sV498
p2501
I10
sV499
p2502
I12
sVOnloadFallbackSetup
p2503
I1
sVSupplies
p2504
I10
sVbluray
p2505
I2
sV497
p2506
I3
sV490
p2507
I9
sVstopPropagation
p2508
I2
sV492
p2509
I4
sV493
p2510
I2
sV24
p2511
I3
sV25
p2512
I1
sVstyle
p2513
I125
sV27
p2514
I2
sV20
p2515
I38
sV21
p2516
I1
sV22
p2517
I5
sVVacuums
p2518
I1
sVDessert
p2519
I1
sV29
p2520
I4
sVpct
p2521
I2
sVhtml
p2522
I72
sVcurrentTarget
p2523
I8
sVisDesktop
p2524
I2
sVa6000
p2525
I4
sVB00T85P56C
p2526
I2
sVsoccer
p2527
I2
sVDSCW830
p2528
I3
sVparseInt
p2529
I1
sVVinyl
p2530
I2
sVSound
p2531
I2
sV1264866011
p2532
I1
sVreturn
p2533
I90
sVresizable
p2534
I1
sVfood
p2535
I2
sVherotator
p2536
I27
sVlargest
p2537
I1
sV2X
p2538
I2
sVL
p2539
I31
sVLightning
p2540
I3
sV8333
p2541
I3
sV2F
p2542
I28
sV2B
p2543
I5
sV8335
p2544
I3
sVcommunities
p2545
I6
sVAngle
p2546
I5
sVyt
p2547
I1
sV256346011
p2548
I1
sV51371
p2549
I2
sV11436294011
p2550
I1
sVht
p2551
I1
sV24GB
p2552
I2
sVpriceClass
p2553
I1
sVaccessoriesNavView
p2554
I1
sVnewcust
p2555
I2
sVjsutil
p2556
I2
sV2x
p2557
I23
sVevents
p2558
I15
sVtestTransform3d
p2559
I2
sVDisc
p2560
I6
sV2350149011
p2561
I1
sV25736a9bbb6a2a3ba6fdf9837ff7d7fbdb41de11
p2562
I1
sVB00T85PUJY
p2563
I2
sVSport
p2564
I2
sVMI5
p2565
I1
sVgui
p2566
I1
sV212334092011
p2567
I1
sVPilu
p2568
I1
sVtransform
p2569
I3
sVweight
p2570
I7
sVRose
p2571
I1
sV2xsidekick
p2572
I2
sV300mm
p2573
I2
sVZelda
p2574
I3
sVSports
p2575
I15
sV333333
p2576
I1
sV41yLbEJf7SL
p2577
I5
sVCrying
p2578
I3
sVpersonalization
p2579
I1
sVWarehouse
p2580
I1
sVReading
p2581
I1
sVevent
p2582
I3
sV4em
p2583
I1
sVMore
p2584
I5
sVdeals
p2585
I3
sV1447828460680
p2586
I1
sVMoranis
p2587
I1
sVcssText
p2588
I1
sVpublish
p2589
I3
sV2Fselling
p2590
I1
sVMp3Player
p2591
I3
sVfreshHoverCount
p2592
I3
sVhealth
p2593
I5
sV7
p2594
I10
sVcreateSimLink
p2595
I2
sVoffline
p2596
I1
sVClear
p2597
I2
sVfto
p2598
I1
sV4px
p2599
I1
sV977
p2600
I1
sVNavMetaAsset
p2601
I5
sV416HMzw3fhL
p2602
I6
sVwishlistContent
p2603
I1
sVtimeline
p2604
I4
sVEF
p2605
I9
sVtradein
p2606
I1
sVbookdepository
p2607
I1
sVquick
p2608
I9
sVbase
p2609
I8
sV511228
p2610
I1
sVmembers
p2611
I3
sV2BKY8pWngkeVxzKCs3dgC
p2612
I1
sVPOST
p2613
I1
sVsetTimeout
p2614
I5
sVEaseOfUse
p2615
I4
sVrect
p2616
I34
sVfaucet
p2617
I1
sVMutant
p2618
I4
sVhiRes
p2619
I1
sVBL
p2620
I5
sVV288563146
p2621
I2
sVcomputers
p2622
I8
sVlingual
p2623
I3
sVBros
p2624
I3
sV11R7M3OlPwL
p2625
I6
sVDietary
p2626
I2
sV1E4
p2627
I1
sVw
p2628
I8
sV5th
p2629
I4
sVtabindex
p2630
I15
sVfeed
p2631
I191
sVV293071567
p2632
I2
sV2402172011
p2633
I2
sVencoding
p2634
I50
sV61bklxcHYjL
p2635
I5
sVmisc
p2636
I1
sVmId
p2637
I7
sVlogUex
p2638
I2
sVhamsters
p2639
I1
sVpop
p2640
I3
sVCombo
p2641
I6
sVhousewares
p2642
I2
sVpromoType
p2643
I20
sVfinancing
p2644
I1
sVnavBackToTop
p2645
I1
sVEndNav
p2646
I1
sV23px
p2647
I1
sVTouchscreen
p2648
I3
sVB00LI0VA4Q
p2649
I1
sVV306317608
p2650
I1
sVscript
p2651
I31
sVgourmet
p2652
I2
sV8318
p2653
I3
sVScreen
p2654
I6
sVPackaged
p2655
I6
sV2226766011
p2656
I1
sVOlympus
p2657
I3
sV978
p2658
I3
sV182
p2659
I1
sV180
p2660
I2
sV181
p2661
I2
sVprogid
p2662
I1
sV185
p2663
I1
sV188
p2664
I1
sVYourPrimePIV
p2665
I1
sVTransparent
p2666
I2
sVstore
p2667
I1
sVschema
p2668
I2
sVCameras
p2669
I1
sVoption
p2670
I90
sVXL
p2671
I3
sVPowerShot
p2672
I3
sV2Fj5LyEUoLv1XTkFPJBA
p2673
I1
sVselector
p2674
I2
sV11443874011
p2675
I1
sVissOpts
p2676
I15
sVgwAivWith
p2677
I1
sVjquery
p2678
I2
sVgrocery
p2679
I8
sVX1
p2680
I1
sVHunger
p2681
I6
sVdouble
p2682
I6
sVpng8
p2683
I1
sVsetAttribute
p2684
I4
sVimagesToBeLoaded
p2685
I8
sVrecording
p2686
I2
sVAZSOAUSCSNav
p2687
I1
sVgame
p2688
I2
sVToys
p2689
I7
sVkindle
p2690
I47
sVExtinction
p2691
I4
sVIncredibly
p2692
I1
sVdeclare
p2693
I81
sV10772747011
p2694
I1
sVCeiling
p2695
I1
sVtmmJS
p2696
I2
sV2FvgMSuowG9sdBTNUcZJTH3hHkE8z5
p2697
I1
sV12700574011
p2698
I1
sVJane
p2699
I2
sVtertiary
p2700
I3
sVselling
p2701
I1
sVheadings
p2702
I1
sVDcor
p2703
I1
sVfiona
p2704
I5
sVnull
p2705
I88
sV41u2hfzJKBL
p2706
I6
sVorders
p2707
I13
sVdraggable
p2708
I1
sVissInitObject
p2709
I4
sV16310101
p2710
I1
sVlib
p2711
I2
sVFood
p2712
I3
sVcave
p2713
I1
sVcropped
p2714
I24
sVsubnav
p2715
I4
sValso
p2716
I2
sV2BL
p2717
I5
sVGermany
p2718
I1
sVbuild
p2719
I7
sVV288897809
p2720
I1
sVAlpha
p2721
I5
sVbanjo
p2722
I1
sVWith
p2723
I11
sVWishlist
p2724
I2
sV352
p2725
I6
sV18657
p2726
I1
sVhires
p2727
I8
sVKindleReaderPanel
p2728
I2
sVbluebeacon
p2729
I6
sVIn
p2730
I15
sVM
p2731
I3
sV2B1
p2732
I1
sV2B0
p2733
I1
sV77
p2734
I1
sV76
p2735
I1
sV75
p2736
I8
sV74
p2737
I2
sVassoc
p2738
I2
sV49B956AE4EC864F2BCE446688D74D4167FEA20E54
p2739
I1
sV51vkZEiPcML
p2740
I5
sV70
p2741
I2
sVservices
p2742
I9
sValpha
p2743
I1
sVThe
p2744
I40
sV880x400
p2745
I1
sVsg
p2746
I3
sV78
p2747
I3
sVsimsSection
p2748
I6
sVV318409967
p2749
I1
sVpriceformatterJQ
p2750
I2
sV7147443011
p2751
I1
sVV169459313
p2752
I3
sVmobile
p2753
I8
sVki
p2754
I1
sVreadyOnATF
p2755
I1
sV145px
p2756
I1
sV266
p2757
I1
sVPort
p2758
I2
sVgwPrimeMusicBoldText
p2759
I2
sV2Fgp
p2760
I10
sVext
p2761
I1
sVCost
p2762
I1
sV51bm98WWy
p2763
I5
sVmYxlAWWcTWxJ
p2764
I1
sVexp
p2765
I1
sVcallbackUrl
p2766
I7
sVCloud
p2767
I10
sVissPrimeEligible
p2768
I3
sVMediaBuilder
p2769
I2
sVCatastrophe
p2770
I1
sVPratt
p2771
I1
sVUnited
p2772
I1
sVblackbelt
p2773
I1
sVsimsImgLinks
p2774
I3
sVuserAgent
p2775
I3
sVRecorder
p2776
I5
sVfont
p2777
I16
sVfine
p2778
I1
sValbums
p2779
I2
sV440px
p2780
I6
sVcompletion
p2781
I2
sVcell
p2782
I1
sV5916439011
p2783
I1
sVService
p2784
I2
sVmusic
p2785
I29
sV51W3A
p2786
I5
sVSX400
p2787
I2
sVMakeup
p2788
I2
sVExplore
p2789
I1
sVSellers
p2790
I2
sVfailed
p2791
I1
sVB006GLM7IK
p2792
I1
sVoverride
p2793
I6
sV8
p2794
I23
sVV353754787
p2795
I2
sVBased
p2796
I1
sVPrime
p2797
I131
sVdVD9oqa1LzgfSckz4P7nyvoxjvCoIudBbbrXqQOT
p2798
I1
sVPanasonic
p2799
I3
sVtemplate
p2800
I31
sVimportEvent
p2801
I3
sVrenderItems
p2802
I5
sVFavorite
p2803
I3
sVThanksgiving
p2804
I2
sVsubPageType
p2805
I1
sVgwLaunchPlayerV1
p2806
I2
sVAMAZON
p2807
I5
sVb
p2808
I228
sVPine
p2809
I1
sVOFT
p2810
I4
sVFLYOUTS
p2811
I1
sVHearts
p2812
I1
sVbanner
p2813
I1
sV21Szs6GbgwL
p2814
I2
sVie9
p2815
I9
sVHelp
p2816
I3
sVSanjuro
p2817
I3
sVB00HCMZ2SE
p2818
I2
sVbroadband
p2819
I2
sVPowerful
p2820
I1
sVremove
p2821
I1
sVBluetooth
p2822
I1
sVisTablet
p2823
I2
sVB00T6UD7BY
p2824
I2
sVcommon
p2825
I16
sVB00ISH5K20
p2826
I2
sV014PM
p2827
I3
sVx
p2828
I34
sVsubs
p2829
I1
sVVendor
p2830
I1
sVMe
p2831
I2
sVset
p2832
I2
sVart
p2833
I1
sVEssentials
p2834
I1
sVSX1125
p2835
I1
sVlocale
p2836
I33
sV312
p2837
I1
sV311
p2838
I6
sV310
p2839
I2
sV317
p2840
I4
sV316
p2841
I2
sV1BN9GC7087D5V7129PMB4
p2842
I3
sV1BN9GC7087D5V7129PMB5
p2843
I2
sVUSMediaDetailPageMetaAsset
p2844
I4
sV8328
p2845
I3
sVV323939215
p2846
I1
sV8327
p2847
I3
sV11051400011
p2848
I1
sV8321
p2849
I3
sV8320
p2850
I2
sV8323
p2851
I2
sV8322
p2852
I3
sV11435470011
p2853
I1
sVV354814520
p2854
I2
sVGET
p2855
I1
sVmovie
p2856
I1
sVplease
p2857
I2
sVrrid
p2858
I1
sVPart
p2859
I3
sVSony
p2860
I98
sV3Fie
p2861
I10
sVavailable
p2862
I1
sVKing
p2863
I2
sVpopup
p2864
I2
sVrecently
p2865
I1
sVslotName
p2866
I7
sVweb
p2867
I1
sVMartinsen
p2868
I3
sVspacing
p2869
I9
sV52036
p2870
I2
sVjavascript
p2871
I30
sVB00XNQECFM
p2872
I1
sV2Fidentifier
p2873
I4
sV044C83715F9FDEF54C0FD83FA62FA4B1F7977120
p2874
I1
sV2FQbM1RiU2kLAC4
p2875
I1
sVNavAuiBeaconbeltAssets
p2876
I10
sV2FDoe
p2877
I1
sVDane
p2878
I1
sVnavbarSpriteUrl
p2879
I2
sVMaker
p2880
I3
sVPrivacy
p2881
I1
sVc
p2882
I59
sV3760901
p2883
I1
sVlast
p2884
I9
sVZach
p2885
I1
sVFlyout
p2886
I2
sVB00MILGKPI
p2887
I3
sVpdt
p2888
I1
sVb1
p2889
I1
sV2BE0FSKcedllQMsED79qjqDsOPo2UxafxgOjXt95YkjY
p2890
I1
sVpreloadImgPath
p2891
I1
sVboty
p2892
I1
sVanon
p2893
I1
sVscarcityClass
p2894
I1
sVPLCCFOOT
p2895
I1
sV2Fvqr7zoFJVKQLJafG8Mm7BNAr34EgO
p2896
I1
sVsetNoSimView
p2897
I3
sV51744
p2898
I2
sV990982538
p2899
I1
sVpdb
p2900
I11
sVB479CD54A469CCE9A6029B8580418361DF179D6F6
p2901
I1
sVload
p2902
I11
sVgeolocation
p2903
I2
sV05
p2904
I1
sVcustomerName
p2905
I1
sVpreviewing
p2906
I1
sVWag
p2907
I1
sVresetSimView
p2908
I2
sVattributeErrors
p2909
I1
sVeach
p2910
I17
sVheader
p2911
I8
sVglobals
p2912
I2
sV706813011
p2913
I1
sVOnline
p2914
I5
sVMmH3L
p2915
I1
sVbelt
p2916
I1
sVB016D7E9P0
p2917
I2
sV289
p2918
I1
sVPlay
p2919
I5
sVFASHION
p2920
I5
sVswm
p2921
I4
sVswn
p2922
I2
sVpx
p2923
I5
sVCart
p2924
I6
sVmarketId
p2925
I4
sVpc
p2926
I7
sVTrain
p2927
I2
sVpf
p2928
I138
sVGod
p2929
I1
sVDigitalMusicPanel
p2930
I2
sVFan
p2931
I2
sVHeroes
p2932
I3
sVTo
p2933
I2
sVElite
p2934
I3
sVempty
p2935
I7
sVWomen
p2936
I2
sV07fefd6010ece8986df17dcfe2a45d991d1e7be1
p2937
I2
sVcharAt
p2938
I1
sV1077068
p2939
I1
sVfire
p2940
I8
sVSearchJS
p2941
I16
sVThebesTPR
p2942
I1
sV402
p2943
I2
sVelse
p2944
I23
sVloadCompleted
p2945
I4
sVfund
p2946
I1
sVSwitch
p2947
I1
sV38
p2948
I10
sVAmazonGatewayAuiAssets
p2949
I2
sVhasOwnProperty
p2950
I4
sV280
p2951
I1
sVasins
p2952
I8
sVwedding
p2953
I2
sVHW1
p2954
I1
sVdynamicWidgets
p2955
I1
sV2FDy
p2956
I1
sV2FgyfZWB05naBH8KcjRTG9JFFzvLrSiOhFa9lOYIN653ux0UC2QxrLtgE9qARYneEmvJiLQEFY95ij09KN
p2957
I1
sVlook
p2958
I11
sVSales
p2959
I1
sV36701
p2960
I30
sVFeet
p2961
I2
sVB00C7KXUOE
p2962
I1
sV1001166401
p2963
I1
sVB016LMQHES
p2964
I1
sVGW2
p2965
I5
sVMarketplace
p2966
I2
sVLonve
p2967
I6
sV13271308011
p2968
I1
sVnavFooter
p2969
I2
sVIncorrect
p2970
I1
sVCity
p2971
I1
sVisTriggerIssOnClick
p2972
I1
sVItaly
p2973
I1
sV51Jv813HYkL
p2974
I5
sVB0055OTDCM
p2975
I2
sVB0119UCYOE
p2976
I2
sV5088769011
p2977
I1
sVbinding
p2978
I1
sVjpg
p2979
I588
sVBack
p2980
I4
sVdecoration
p2981
I3
sV11kT37JrigL
p2982
I2
sVaudiobooks
p2983
I1
sVready
p2984
I7
sVrid
p2985
I5
sV18px
p2986
I2
sVobfMkt
p2987
I1
sVdesign
p2988
I1
sVewc
p2989
I1
sVincredible
p2990
I1
sVNation
p2991
I3
sVrules
p2992
I2
sVboxShadow
p2993
I1
sV9
p2994
I12
sVB00EQNP8F4
p2995
I2
sVSilk
p2996
I1
sVB00HZ3C4N6
p2997
I2
sV1000493771
p2998
I1
sV8209720011
p2999
I1
sVSteamOS
p3000
I1
sVAbout
p3001
I2
sVused
p3002
I1
sVV192250664
p3003
I2
sV895
p3004
I1
sVratings
p3005
I1
sVVALIDATIONS
p3006
I1
sV164734381262
p3007
I1
sVMovies
p3008
I10
sV000
p3009
I1
sVgwCFImgNoCache
p3010
I1
sV444773922
p3011
I1
sVauiIconClass
p3012
I13
sVjunglee
p3013
I1
sVPower
p3014
I9
sVComiXology
p3015
I1
sVMicro
p3016
I2
sV432
p3017
I2
sV317971011
p3018
I1
sVnewsstand
p3019
I2
sVhandleTriggers
p3020
I2
sVfeedCarousel
p3021
I12
sV3DAZUSVAS
p3022
I1
sVy
p3023
I10
sV500500
p3024
I1
sVTools
p3025
I11
sVspend
p3026
I2
sVBOLT
p3027
I11
sVsims
p3028
I57
sVLiving
p3029
I1
sVPegg
p3030
I1
sVlistening
p3031
I2
sVnostyle
p3032
I6
sVHandmade
p3033
I6
sVbirthday
p3034
I2
sVgetContext
p3035
I1
sVButtons
p3036
I2
sVCCL
p3037
I1
sVshape
p3038
I43
sV51yDhAe
p3039
I5
sVusing
p3040
I1
sV446915482
p3041
I1
sVsidebar
p3042
I1
sVsetsize
p3043
I8
sVWindowshop
p3044
I1
sValignment
p3045
I12
sVLeisure
p3046
I1
sV1063306
p3047
I1
sVsearchDropdownBox
p3048
I2
sVhiking
p3049
I1
sVtablet
p3050
I9
sVreaders
p3051
I4
sV1076
p3052
I3
sV1077
p3053
I3
sVPLCCGNO
p3054
I1
sV58736
p3055
I2
sVrsaquo
p3056
I1
sVFLIR
p3057
I2
sVAstro
p3058
I3
sVsource
p3059
I13
sVrgb
p3060
I1
sVB00I8BICB2
p3061
I5
sVparents
p3062
I1
sVlocation
p3063
I14
sVFallout
p3064
I3
sV334
p3065
I1
sVSylvester
p3066
I1
sVinput
p3067
I9
sVMoney
p3068
I1
sV337
p3069
I2
sVfinder
p3070
I1
sVMarvels
p3071
I1
sVbin
p3072
I1
sVimeSpacing
p3073
I2
sV283155
p3074
I1
sVdividerBefore
p3075
I25
sVfirstVisibleItem
p3076
I1
sVGlory
p3077
I3
sV51Hq5U96R
p3078
I5
sVfadeOut
p3079
I3
sV2Cp
p3080
I2
sVOa
p3081
I4
sV172456
p3082
I1
sV5145FNNM1BL
p3083
I5
sV2Cn
p3084
I26
sVstorecardmember
p3085
I2
sVopenArgs
p3086
I3
sVRequests
p3087
I1
sVprojects
p3088
I2
sV3A7147444011
p3089
I1
sVd
p3090
I29
sVComputing
p3091
I1
sVshould
p3092
I1
sVoprahsfavoritethings
p3093
I1
sV2BYL
p3094
I5
sV10192825011
p3095
I1
sVWhatever
p3096
I3
sVB013RY04ZQ
p3097
I2
sVpanelkey
p3098
I1
sVpopular
p3099
I2
sVSafety
p3100
I1
sVOS
p3101
I7
sVSelfie
p3102
I2
sV30x
p3103
I2
sVLittle
p3104
I3
sVgoogle
p3105
I2
sV3Fsc
p3106
I1
sVWithTitles
p3107
I4
sV01Arpwx2zHL
p3108
I6
sV2B3lGjtqsM
p3109
I1
sVRecreation
p3110
I1
sVcanAddToCart
p3111
I24
sVadditionalSpace
p3112
I3
sVstreaming
p3113
I3
sVV289981053
p3114
I1
sVpricing
p3115
I12
sVYoshis
p3116
I1
sV61tKnrzBkTL
p3117
I5
sVretry
p3118
I1
sVjewelry
p3119
I12
sV2625373011
p3120
I1
sVgarage
p3121
I2
sVFire
p3122
I21
sVConditions
p3123
I1
sVnewSims
p3124
I4
sVpros
p3125
I1
sVMp4
p3126
I2
sVseller
p3127
I3
sV3Fld
p3128
I2
sV1250
p3129
I1
sVbluray3d
p3130
I1
sV6800426958
p3131
I1
sVB00S1LRX3W
p3132
I2
sVV290954988
p3133
I2
sVZappos
p3134
I1
sV308
p3135
I2
sVbe
p3136
I2
sV41vX4qGZLFL
p3137
I5
sVobject
p3138
I1
sVrun
p3139
I11
sVLook
p3140
I1
sV334097e7bbbc22a548c86414013621785f61ac52
p3141
I3
sV176px
p3142
I1
sV300
p3143
I28
sV302
p3144
I2
sV21A
p3145
I2
sV304
p3146
I1
sV305
p3147
I1
sVO
p3148
I5
sV307
p3149
I1
sV51AYt3gcYoL
p3150
I5
sVsim
p3151
I14
sV31vFcbniU0L
p3152
I3
sVboxes
p3153
I3
sVStabilizer
p3154
I2
sVbr
p3155
I72
sVtimedOut
p3156
I2
sVby
p3157
I1
sVPack
p3158
I6
sVgoods
p3159
I2
sV6054382011
p3160
I1
sVanything
p3161
I2
sVmost
p3162
I2
sVpage
p3163
I11
sVsearchAliasDisplayName
p3164
I1
sV8px
p3165
I1
sVfallbackFlag
p3166
I2
sVEpisodes
p3167
I6
sVmodal
p3168
I6
sVwatchlist
p3169
I2
sV41arOcWNtwL
p3170
I6
sVwomens
p3171
I7
sVPokemon
p3172
I3
sVblock
p3173
I156
sVrepair
p3174
I2
sVSimon
p3175
I1
sVMYHABIT
p3176
I2
sVFastCookies
p3177
I4
sVGPS
p3178
I2
sVrzekmvyjojcp6uc
p3179
I1
sV6NcjGYE220YeSt2A5pSxvWWLgWjT6P8YtvCAz7tcwO0OO
p3180
I1
sV41W9Fyu7ZQL
p3181
I2
sV2F8khFTK6l0ZFwgOcqOAXbhCTPhA5pTrfhkn6TDpMRwE3dOg
p3182
I1
sVReplacements
p3183
I1
sVB00W8FYFBA
p3184
I1
sV51WuZi2NWVL
p3185
I5
sV2Fpape
p3186
I2
sVsports
p3187
I10
sV01OjVrFGeBL
p3188
I2
sV12px
p3189
I3
sVTelevisions
p3190
I1
sVUsed
p3191
I1
sVspan
p3192
I608
sVB016LMQHDO
p3193
I1
sVMegan
p3194
I1
sVsubmit
p3195
I6
sVcustom
p3196
I1
sVscreenReaderOn
p3197
I1
sVmkt
p3198
I1
sVcmpnId
p3199
I7
sVnowrap
p3200
I2
sVV142890782
p3201
I1
sVswms
p3202
I2
sV19530
p3203
I2
sVourPrice
p3204
I2
sVB00J34YO92
p3205
I2
sV96px
p3206
I1
sV519x499
p3207
I3
sVanywhere
p3208
I1
sVDeals
p3209
I10
sVboys
p3210
I7
sVserif
p3211
I3
sV1BK2K5MGFAG58YPJFAZX
p3212
I2
sVlink
p3213
I170
sVB00YC7DZP4
p3214
I2
sVcreateElement
p3215
I10
sVline
p3216
I18
sV5169XWQsgdL
p3217
I5
sVsdk
p3218
I1
sVinfo
p3219
I1
sV115
p3220
I1
sVutf
p3221
I1
sVwac8Itla9uuNbcyFO6GJ938pqcZ
p3222
I1
sVOffice
p3223
I4
sVJeff
p3224
I1
sV5745855011
p3225
I1
sVpUrls
p3226
I2
sVB00RBG68Q6
p3227
I2
sVpreloadImgHeight
p3228
I1
sVus
p3229
I27
sVul
p3230
I26
sVBooks
p3231
I20
sVui
p3232
I3
sVverification
p3233
I1
sVuk
p3234
I1
sVCruise
p3235
I1
sVue
p3236
I22
sV111
p3237
I2
sVz
p3238
I56
sVclear
p3239
I3
sV1150px
p3240
I1
sVuber
p3241
I20
sVAfterSchool
p3242
I1
sVRheIGNnhixTTykNw5uQwwA
p3243
I1
sV2Fdeveloper
p3244
I1
sVSnL
p3245
I5
sVPrinters
p3246
I2
sVSubscribe
p3247
I3
sVaccessibility
p3248
I1
sVdoesn
p3249
I1
sVAReady
p3250
I2
sVsingle
p3251
I2
sV2283992402
p3252
I2
sV12079040011
p3253
I1
sVNew
p3254
I25
sVAlexa
p3255
I2
sV26978
p3256
I4
sVG8Sloane
p3257
I1
sVnositelinkssearchbox
p3258
I1
sV3Fnode
p3259
I1
sVTV
p3260
I41
sVnavFooterColHead
p3261
I4
sVV136632413
p3262
I1
sVB00ZDWGM34
p3263
I5
sVMac
p3264
I3
sVobfuscatedMarketId
p3265
I2
sVnav
p3266
I547
sVATVPDKIKX0DER
p3267
I38
sV34AD60CFC4DCD7A97D4E2F4A4A7C4149FBEEF236
p3268
I1
sVdepartment
p3269
I1
sVTG
p3270
I2
sVSandisk
p3271
I3
sVV319237959
p3272
I1
sVMan
p3273
I3
sVAC
p3274
I510
sVflyoutURL
p3275
I1
sVupdateAutoCompletion
p3276
I1
sVku
p3277
I5
sVNetflix
p3278
I1
sVpape
p3279
I4
sVT5
p3280
I5
sVadsystem
p3281
I1
sVAL
p3282
I6
sVT1
p3283
I12
sV2FD09FCFYDHab2W
p3284
I1
sVHDTV
p3285
I1
sV61RYf0sn7eL
p3286
I5
sVB00DBYBNEE
p3287
I2
sVvisibleItems
p3288
I3
sVPublishing
p3289
I4
sVWished
p3290
I2
sVsubtextkey
p3291
I1
sVAudio
p3292
I8
sVlang
p3293
I1
sVB00MHPAF38
p3294
I5
sVe
p3295
I52
sV468496
p3296
I1
sVlazyLoadLib
p3297
I3
sVsvg
p3298
I3
sVage
p3299
I2
sVvehicles
p3300
I2
sVpId
p3301
I7
sVyshURL
p3302
I4
sVdepartments
p3303
I1
sVAn
p3304
I6
sV2000
p3305
I1
sVB00W8FYF56
p3306
I2
sV57388
p3307
I2
sVManage
p3308
I4
sVfresh
p3309
I12
sV3250697011
p3310
I1
sVcreate
p3311
I1
sVscroll
p3312
I1
sVgw
p3313
I174
sVgt
p3314
I3
sVpartial
p3315
I1
sV3A9479199011
p3316
I1
sVgp
p3317
I124
sVcheckid
p3318
I2
sVSelf
p3319
I1
sVCoins
p3320
I1
sVresults
p3321
I4
sVupnav2xAiryPostSlateImgInfo
p3322
I1
sVTomameri
p3323
I3
sVgc
p3324
I2
sVAsset
p3325
I1
sVdpSpritesCSS
p3326
I1
sVgo
p3327
I2
sVsearchbar
p3328
I1
sVB00LERPWSS
p3329
I2
sVbuyBox
p3330
I12
sV3D230659011
p3331
I1
sVNon
p3332
I4
sVSomeone
p3333
I3
sVdisplayCtw
p3334
I5
sVAnt
p3335
I3
sVBusiness
p3336
I5
sVdismissnotification
p3337
I1
sVObject
p3338
I1
sVprimeclub
p3339
I1
sVaffiliates
p3340
I1
sV31cLMmbMB5L
p3341
I5
sV57042
p3342
I1
sVRegistry
p3343
I5
sV10667898011
p3344
I1
sV11434959011
p3345
I1
sVdetails
p3346
I7
sVNov
p3347
I1
sVinclude
p3348
I1
sVmarkAF
p3349
I2
sVdomReady
p3350
I1
sVshowUWLPromo
p3351
I1
sVFlash
p3352
I2
sVwished
p3353
I2
sVgarden
p3354
I12
sVdpProductImage
p3355
I2
sVautomotive
p3356
I9
sVRegion
p3357
I2
sV3Damazonhome
p3358
I1
sVB002I092MM
p3359
I2
sVswmStyleData
p3360
I1
sVP
p3361
I66
sVmerge
p3362
I1
sV3403201
p3363
I1
sVV292541419
p3364
I1
sV61UZ
p3365
I5
sVnavbarJS
p3366
I1
sVSims
p3367
I2
sVentire
p3368
I1
sVrecreation
p3369
I2
sV3Dba
p3370
I1
sV3Dfooter
p3371
I1
sVXBR55X850C
p3372
I6
sVHiking
p3373
I1
sVB016LMQBPI
p3374
I1
sVprimeEventLoggingEnabled
p3375
I1
sVbutton
p3376
I36
sV29454
p3377
I1
sVtry
p3378
I8
sVV289609582
p3379
I2
sVnewSimLink
p3380
I8
sVFFF
p3381
I1
sVprimeFlyoutProfilingUrl
p3382
I1
sVits
p3383
I1
sVcomponentFeedCarousel
p3384
I12
sVff9900
p3385
I1
sV590
p3386
I1
sVtexttrace
p3387
I2
sVBlu
p3388
I45
sVctrlKey
p3389
I1
sVinnerHTML
p3390
I1
sV27600
p3391
I1
sVCamera
p3392
I81
sVvideo
p3393
I31
sVuex
p3394
I6
sVdownload
p3395
I2
sVuet
p3396
I20
sV3A
p3397
I27
sVclick
p3398
I7
sVappend
p3399
I7
sV3D
p3400
I48
sVindex
p3401
I12
sVDelivery
p3402
I1
sVMarkCF
p3403
I1
sVdummyNode
p3404
I2
sV51dtJVp2BjL
p3405
I5
sVSensor
p3406
I9
sVcvox
p3407
I1
sVfind
p3408
I6
sVaccess
p3409
I6
sVBoys
p3410
I3
sVdynamicMenuUrl
p3411
I1
sVUX2250
p3412
I7
sVLine
p3413
I2
sV51HbT2gSFSL
p3414
I6
sVaddToCart
p3415
I13
sV3d
p3416
I2
sVbody
p3417
I3
sVMarkAF
p3418
I1
sV448
p3419
I1
sVcreatespace
p3420
I1
sV443
p3421
I4
sVLight
p3422
I3
sVcreateElementNS
p3423
I2
sV440
p3424
I89
sV447
p3425
I1
sV446
p3426
I6
sV445
p3427
I1
sV444
p3428
I1
sV1KQKFNTN0VHDYY2P690W
p3429
I1
sVitemContent
p3430
I8
sVGreen
p3431
I5
sV51bbeKL
p3432
I2
sVproductTitle2
p3433
I1
sVsearchAliases
p3434
I3
sVtwotabsearchtextbox
p3435
I1
sV01pz7EOWc8L
p3436
I6
sVFixtures
p3437
I3
sVNewsstand
p3438
I2
sV39
p3439
I18
sVSelection
p3440
I3
sVissCorpus
p3441
I3
sVctr
p3442
I2
sV33
p3443
I2
sV32
p3444
I5
sV30
p3445
I3
sVE47923
p3446
I1
sV36
p3447
I2
sV35
p3448
I1
sV34
p3449
I1
sVsignInOverride
p3450
I1
sVUX880
p3451
I1
sV51g6O7BY69L
p3452
I5
sVproducts
p3453
I7
sVBig
p3454
I5
sVDownload
p3455
I6
sVD1792441F5235513AF62FF4FB6468280945694044
p3456
I1
sVInternationally
p3457
I1
sVbeautybar
p3458
I1
sVGym
p3459
I1
sV2Fappsandservices
p3460
I1
sV339
p3461
I1
sV338
p3462
I4
sVborderRadius
p3463
I1
sVaps
p3464
I4
sVapp
p3465
I1
sV336
p3466
I3
sV330
p3467
I126
sV333
p3468
I7
sVTires
p3469
I1
sVB002MAPS6W
p3470
I2
sVapi
p3471
I1
sVRefurbished
p3472
I8
sVdcw
p3473
I1
sVPerformance
p3474
I1
sVapply
p3475
I2
sVborderImage
p3476
I1
sVtools
p3477
I18
sVgateway
p3478
I17
sVcloud
p3479
I5
sVFO
p3480
I1
sV2BtL
p3481
I5
sVfrom
p3482
I7
sV10192821011
p3483
I1
sVsnacks
p3484
I1
sVLIVE
p3485
I3
sVnext
p3486
I2
sVLens
p3487
I20
sVMembership
p3488
I7
sVzhtml
p3489
I1
sVtahoe
p3490
I1
sVWedding
p3491
I2
sVFi
p3492
I6
sVpanel
p3493
I1
sV24px
p3494
I1
sVtextShadow
p3495
I1
sVoo
p3496
I1
sVMulti
p3497
I3
sVLand
p3498
I3
sVupcoming
p3499
I1
sVsrc
p3500
I168
sVstarted
p3501
I1
sVUX440
p3502
I1
sVtransient
p3503
I1
sVEligible
p3504
I2
sVbaby
p3505
I13
sVUltra
p3506
I37
sVresize
p3507
I2
sVwomen
p3508
I4
sVcustomer
p3509
I12
sVsubstring
p3510
I2
sVaccount
p3511
I9
sV10943282011
p3512
I1
sVf
p3513
I25
sVthis
p3514
I7
sVopengraphprotocol
p3515
I2
sVFrame
p3516
I6
sV020E83530EE2B7F2EDA65ADA51F882D31A4AC155
p3517
I1
sV3D97664
p3518
I1
sVLibrary
p3519
I5
sV28451
p3520
I1
sVD95xsBuz
p3521
I1
sVGeneration
p3522
I30
sVtag
p3523
I9
sVVideo
p3524
I43
sVthin
p3525
I1
sVof
p3526
I1
sV2Fphoenix
p3527
I1
sVHolidayMusic
p3528
I2
sV10125974011
p3529
I1
sV468642
p3530
I2
sVmediaBuilder
p3531
I3
sVcontrol
p3532
I12
sVDungeon
p3533
I3
sV01jml6Pm
p3534
I6
sVCamping
p3535
I1
sV52290
p3536
I2
sVDiets
p3537
I2
sVmdash
p3538
I1
sVbillboards
p3539
I2
sVFeature
p3540
I3
sVB00ZB7W4QU
p3541
I2
sVParts
p3542
I4
sV2Fwww
p3543
I13
sVshipping
p3544
I17
sV172635
p3545
I1
sVrenderskin
p3546
I4
sVParty
p3547
I5
sVvoice
p3548
I2
sVbeforeunload
p3549
I1
sVChristmas
p3550
I2
sVsis
p3551
I2
sV3Adigital
p3552
I1
sV9013937011
p3553
I1
sV410qY9ZcI8L
p3554
I5
sVB00S5HFVGI
p3555
I1
sVclothing
p3556
I12
sVpurpose
p3557
I1
sVWheels
p3558
I1
sVnamespace
p3559
I1
sVUX533
p3560
I1
sVlocalservices
p3561
I1
sV27348
p3562
I1
sVgcs
p3563
I2
sV667846011
p3564
I1
sVsid
p3565
I7
sVHappened
p3566
I3
sVFriends
p3567
I1
sVPayment
p3568
I5
sVissHost
p3569
I1
sVpostslateImgPath
p3570
I1
sVprofile
p3571
I3
sVscaleXY
p3572
I3
sVstripbooks
p3573
I3
sVde
p3574
I1
sVNathan
p3575
I3
sV310px
p3576
I1
sV3F5BD69F3657E83108869656A79EAB5908EFBEC32
p3577
I1
sVSearchPageAccess
p3578
I4
sVbestsellers
p3579
I5
sVmergeBTFDropdown
p3580
I1
sVRyan
p3581
I3
sVQ
p3582
I3
sVSX2250
p3583
I7
sVnpt
p3584
I8
sV165796011
p3585
I1
sVsprite03
p3586
I3
sV141px
p3587
I1
sVOutdoor
p3588
I4
sV725FA42BB0A90CE2800286B99B14A4A4E51DB214
p3589
I1
sVApple
p3590
I30
sV948
p3591
I2
sVbind
p3592
I17
sVvertOffset
p3593
I20
sVlines
p3594
I1
sVmatchMedia
p3595
I4
sV48953CA9D10C1D1M
p3596
I2
sVflyoutError
p3597
I9
sVissObject
p3598
I2
sVTablets
p3599
I6
sVLaugh
p3600
I3
sVKings
p3601
I1
sVfallback
p3602
I1
sVB00UA4NJNG
p3603
I1
sV2BbbKAdGGL
p3604
I5
sV2619533011
p3605
I1
sV01uU2WpWzwL
p3606
I4
sVdetailPageStatic
p3607
I1
sVDURM
p3608
I4
sVCycling
p3609
I2
sV41okx6vv
p3610
I6
sV5174
p3611
I1
sVieTouch
p3612
I1
sV2Fyourstore
p3613
I9
sV979455011
p3614
I1
sVSpeakers
p3615
I1
sV41fsUjCmjBL
p3616
I6
sVKindle\u2014now
p3617
I1
sV131
p3618
I1
sV130
p3619
I2
sV135
p3620
I1
sVShipping
p3621
I3
sVMagazines
p3622
I1
sVDXImageTransform
p3623
I1
sVBody
p3624
I4
sVTopLeft
p3625
I90
sVld
p3626
I6
sVbyline
p3627
I15
sVScientific
p3628
I4
sVavatarUrl
p3629
I1
sVlo
p3630
I1
sVll
p3631
I1
sVisWayfindingEnabled
p3632
I3
sVB00XK73HT6
p3633
I2
sVli
p3634
I332
sVBF3
p3635
I4
sVwebworker
p3636
I1
sVlt
p3637
I11
sVdatasetId
p3638
I1
sVinstruments
p3639
I2
sV2015
p3640
I64
sV2014
p3641
I4
sVholiday
p3642
I23
sV2011
p3643
I4
sVpixel
p3644
I5
sVaddClass
p3645
I8
sVflex
p3646
I8
sVmainContent
p3647
I1
sVAshley
p3648
I1
sVcust
p3649
I1
sVauto
p3650
I7
sVc44dea2481a4b39b62e69c43a79a10a07dfdbd05
p3651
I2
sVCreditPanel
p3652
I2
sVauth
p3653
I2
sViPhone
p3654
I2
sVonLine
p3655
I2
sVZS45
p3656
I3
sVSanDisk
p3657
I6
sVpinnedNavMinWidth
p3658
I1
sVtransparent
p3659
I3
sVB00YORDND6
p3660
I2
sVSX533
p3661
I1
sVEntourage
p3662
I1
sV8209718011
p3663
I1
sV2F1
p3664
I2
sVB011QIINP8
p3665
I2
sVSporting
p3666
I1
sVpreventDefault
p3667
I1
sVAccessories
p3668
I15
sVservicerequests
p3669
I1
sVB00HQ4W1QE
p3670
I2
sVslide
p3671
I1
sVl5
p3672
I1
sVmode
p3673
I2
sV2em
p3674
I1
sVUX1725
p3675
I1
sVcircular
p3676
I1
sVjQuery
p3677
I14
sVArts
p3678
I5
sVFrom
p3679
I3
sV54706
p3680
I2
sV3A163856011
p3681
I1
sV147
p3682
I4
sVNIKKOR
p3683
I4
sV700
p3684
I1
sVAnniversary
p3685
I3
sVpantry
p3686
I3
sV88
p3687
I1
sV89
p3688
I2
sVstatic
p3689
I1
sVdragDrop
p3690
I1
sVV289934224
p3691
I1
sVPrint
p3692
I1
sV83
p3693
I1
sV81
p3694
I4
sVB0148OZLOS
p3695
I5
sVMODEL
p3696
I4
sV84
p3697
I2
sV85
p3698
I2
sV2274423842
p3699
I2
sV384082011
p3700
I2
sV41gcltaZL
p3701
I5
sV2BUIWKv0CL
p3702
I5
sV3407731
p3703
I1
sVL340
p3704
I2
sVnewUrl
p3705
I2
sVMaterial
p3706
I1
sVV289608848
p3707
I2
sVBrowser
p3708
I1
sVChina
p3709
I1
sVrel
p3710
I4
sVAlways
p3711
I1
sVBaby
p3712
I16
sVrec
p3713
I2
sVelectronics
p3714
I16
sVUnique
p3715
I1
sVref
p3716
I18
sVTue
p3717
I1
sVpageHideEnabled
p3718
I1
sVMath
p3719
I2
sVremoveAttr
p3720
I2
sV412
p3721
I1
sVrecommendations
p3722
I1
sV588
p3723
I1
sVarial
p3724
I3
sVpinnedNav
p3725
I1
sV61NHUS8vtuL
p3726
I5
sVSoftware
p3727
I3
sVlatest
p3728
I1
sVMeet
p3729
I2
sVZn1wF
p3730
I1
sVSpend
p3731
I1
sVauthPortal
p3732
I2
sVecx
p3733
I679
sV495224
p3734
I1
sVV224617671
p3735
I1
sVinteraction
p3736
I1
sVorganic
p3737
I1
sVPortable
p3738
I5
sVg
p3739
I134
sVshopwithpoints
p3740
I1
sVnavbar
p3741
I40
sVdeprecated
p3742
I2
sVCelebrities
p3743
I1
sVdvd
p3744
I1
sVsmarthome
p3745
I1
sVcolumnBreak
p3746
I8
sVCurrency
p3747
I4
sVlength
p3748
I16
sV4th
p3749
I6
sVdecorate
p3750
I3
sVV189697042
p3751
I1
sVdesigned
p3752
I2
sV458
p3753
I1
sV17px
p3754
I1
sV13108091011
p3755
I1
sVLutz
p3756
I1
sVsigninContent
p3757
I1
sVsimsWrapper
p3758
I5
sV450
p3759
I8
sV451
p3760
I1
sV452
p3761
I2
sV453
p3762
I2
sV454
p3763
I1
sV456
p3764
I4
sV457
p3765
I2
sVlinkList
p3766
I1
sVPeripherals
p3767
I1
sVRegExp
p3768
I1
sVpushState
p3769
I3
sVpng32
p3770
I2
sVModel
p3771
I26
sVExercise
p3772
I2
sVplaylist
p3773
I1
sV01UytMcKM7L
p3774
I2
sVFor
p3775
I11
sVboty15
p3776
I1
sVCorporate
p3777
I2
sVnodeId
p3778
I18
sVwrapper
p3779
I8
sVattach
p3780
I1
sV1500
p3781
I15
sVIvation
p3782
I3
sVwhich
p3783
I1
sVman
p3784
I1
sVOoIuAfL
p3785
I5
sVCreate
p3786
I1
sV8335758011
p3787
I3
sV3Flocation
p3788
I1
sVSmash
p3789
I3
sVHERO
p3790
I8
sVPrimeH2015
p3791
I1
sV41RouO
p3792
I5
sVshorts
p3793
I1
sVDeprecated
p3794
I1
sVcustrec
p3795
I4
sV110115
p3796
I2
sVabebooks
p3797
I1
sV10449978011
p3798
I1
sVlists
p3799
I1
sV1BN9GC7087D5V7129PMB7
p3800
I1
sVvar
p3801
I113
sVxmlns
p3802
I2
sVB00WWBH6N4
p3803
I2
sV315
p3804
I1
sVClothingShoesJewelryPanel
p3805
I2
sVvideogames
p3806
I3
sV314
p3807
I1
sV6EA15C3DC4355BAFC38AD4C9C673A4961272F399
p3808
I1
sVwishlist
p3809
I10
sVlogC
p3810
I8
sVoutline
p3811
I1
sV508088
p3812
I1
sV3561432011
p3813
I2
sVPrestige
p3814
I1
sVB016LMQAJA
p3815
I1
sVB003152Z4U
p3816
I2
sV07FHHR1MYBK4FPQJDKVG
p3817
I1
sVKR
p3818
I1
sVV293002752
p3819
I4
sVKV
p3820
I2
sVlight
p3821
I2
sVradius
p3822
I1
sVManufacturer
p3823
I6
sVTechnology
p3824
I1
sV51pFaVU8f8L
p3825
I5
sVfalse
p3826
I32
sV189
p3827
I4
sV51H0S1msNqL
p3828
I5
sV3764441
p3829
I1
sVTech
p3830
I1
sVbeaconized
p3831
I6
sVimdb
p3832
I1
sV2676882011
p3833
I3
sVhave
p3834
I2
sVclose
p3835
I6
sVneed
p3836
I1
sVelement
p3837
I1
sVborder
p3838
I13
sVshogunProductDB
p3839
I1
sVcomplete
p3840
I2
sVisRecognized
p3841
I1
sVActivities
p3842
I1
sVauiPreloadIndex
p3843
I8
sVmin
p3844
I29
sVfullWidthPrime
p3845
I1
sV51ZTpG
p3846
I5
sVmid
p3847
I2
sVHOL1
p3848
I4
sVB0097BEEW8
p3849
I2
sV323
p3850
I2
sV321
p3851
I2
sV326
p3852
I1
sVfadeIn
p3853
I1
sV324
p3854
I1
sV325
p3855
I2
sVtruck
p3856
I1
sVsoap
p3857
I1
sVCOOLPIX
p3858
I18
sV6563140011
p3859
I1
sVdepartmentText
p3860
I2
sVaws
p3861
I1
sVSLR
p3862
I6
sVB00ZGDIGZ2
p3863
I2
sVWARN
p3864
I1
sVGames
p3865
I30
sVViewer
p3866
I5
sVAndroidPanel
p3867
I2
sVdevice
p3868
I1
sVclass
p3869
I1142
sVimmersiveView
p3870
I2
sVdelivery
p3871
I1
sVdoCTWDisplay
p3872
I1
sVnavFooterLinkCol
p3873
I4
sVB0148OZMUG
p3874
I5
sVurl
p3875
I334
sVInstruments
p3876
I3
sVenableDynamicMenus
p3877
I1
sVSlim
p3878
I2
sV41tRmtGWrUL
p3879
I5
sVuri
p3880
I1
sVHigh
p3881
I2
sVFishing
p3882
I2
sV2284003402
p3883
I2
sV1266766011
p3884
I1
sV1447828580
p3885
I1
sVdiscoveryPanelList
p3886
I1
sVmi5
p3887
I3
sVnewSimImg
p3888
I7
sVLessons
p3889
I2
sVB00KC6I06S
p3890
I1
sVselection
p3891
I2
sVtext
p3892
I415
sVcanCreateAutocomplete
p3893
I3
sV39px
p3894
I2
sV51vXaZ9QBVL
p3895
I5
sVaddOverlay
p3896
I2
sVgwLineBreak
p3897
I1
sVV311333043
p3898
I1
sVStallone
p3899
I1
sVUnder
p3900
I1
sVUSB
p3901
I4
sV21162
p3902
I2
sVB016LMQBRQ
p3903
I1
sVV311333048
p3904
I2
sVdocId
p3905
I5
sVredirect
p3906
I15
sVMoz
p3907
I1
sV2BBmpOSL
p3908
I5
sV6000
p3909
I1
sVB0097BEDOC
p3910
I2
sVTutoring
p3911
I1
sV02b
p3912
I2
sVcontrols
p3913
I2
sVOriginal
p3914
I2
sVbuttons
p3915
I3
sV1500px
p3916
I7
sVtoggleResponsiveGrid
p3917
I1
sVgwCurrencyINR
p3918
I3
sV5px
p3919
I3
sV416CAvfEqkL
p3920
I2
sVxshop
p3921
I3
sVlocal
p3922
I3
sVLegend
p3923
I6
sVKindleAmazonEchoPanel
p3924
I2
sVhandle
p3925
I4
sVpets
p3926
I2
sV48346
p3927
I1
sVDrive
p3928
I8
sV999
p3929
I1
sVTilu
p3930
I1
sVKeep
p3931
I3
sV120
p3932
I1
sV121
p3933
I1
sV122
p3934
I1
sV124
p3935
I1
sV126
p3936
I2
sV127
p3937
I1
sV128
p3938
I2
sVcd9L8L
p3939
I6
sVV289521312
p3940
I1
sVnewCust
p3941
I1
sVFind
p3942
I5
sVqs
p3943
I1
sV9013971011
p3944
I1
sVtoLowerCase
p3945
I1
sV502394
p3946
I1
sVcached
p3947
I1
sVh
p3948
I34
sVGenericObservableJS
p3949
I2
sVmouseenter
p3950
I2
sVdpf
p3951
I1
sVImpossible
p3952
I3
sVfixed
p3953
I6
sV2FeROODchdIsQvq0ug6bYm5P2WESsWWnOvs0NOTSOVDEaW2R7eqfyDQehOOkJ9HUsYANW9AvcY
p3954
I1
sVdiscoveryPanelSummary
p3955
I1
sVview
p3956
I9
sVWeeklyBuild
p3957
I2
sVAladdin
p3958
I3
sVwe
p3959
I3
sVqty
p3960
I2
sVwritable
p3961
I1
sVGwSims
p3962
I2
sVDML
p3963
I2
sVbtf
p3964
I5
sV41yuJF1KZOL
p3965
I2
sVskateboarding
p3966
I1
sV8324
p3967
I3
sVlmargin
p3968
I1
sVbtn
p3969
I11
sVfirstvisibleitem
p3970
I1
sVunlimited
p3971
I1
sVMoviesMusicGamesPanel
p3972
I2
sV49697
p3973
I2
sVScooters
p3974
I1
sVhasColumns
p3975
I4
sVScalable
p3976
I1
sVPC
p3977
I3
sVstate
p3978
I6
sVV192250661
p3979
I2
sVB00BGA9WK2
p3980
I2
sVdbb
p3981
I1
sV41l2EOkMwyL
p3982
I5
sV3402401
p3983
I1
sVhasClass
p3984
I2
sVLossless
p3985
I3
sVSubscription
p3986
I1
sVperfect
p3987
I1
sVbeforeUpdate
p3988
I2
sVimgmap
p3989
I40
sV41z8JAFJrlL
p3990
I5
sVInternational
p3991
I1
sV2px
p3992
I4
sVissMktid
p3993
I1
sVV327533540
p3994
I4
sVsearchAliasAccessor
p3995
I1
sV10971181011
p3996
I1
sVCB302132952
p3997
I1
sVS
p3998
I10
sVkey
p3999
I4
sVDOTD
p4000
I1
sV01DY5Sga5oL
p4001
I2
sVbeaconbeltCover
p4002
I1
sVDesigner
p4003
I3
sVMoves
p4004
I3
sVinstant
p4005
I9
sV15706941
p4006
I1
sVshowViewpoints
p4007
I12
sViPod
p4008
I18
sV3DUTF8
p4009
I10
sVLCD
p4010
I20
sV383
p4011
I3
sVhorizOffset
p4012
I20
sVLandscaping
p4013
I1
sV385
p4014
I1
sVwebsiteGridCSS
p4015
I3
sVsubtitle
p4016
I3
sVcn
p4017
I1
sVmyx
p4018
I1
sVShenanigans
p4019
I1
sVDVD
p4020
I12
sVca
p4021
I1
sVGirls
p4022
I3
sVcf
p4023
I18
sVcd
p4024
I3
sVmaxTouchPoints
p4025
I1
sV2FjgC8Iuef
p4026
I1
sV17805
p4027
I4
sVcrafted
p4028
I1
sVTasks
p4029
I1
sV15706571
p4030
I1
sVtable
p4031
I4
sVHoliday
p4032
I14
sV1057792
p4033
I1
sVSmart
p4034
I36
sVPl94EBYwcB2WN
p4035
I1
sV2FMNFvLsjDfT3Vwv2PgPUlz6D3eXjNEV7DsR5JqmTGulRR1INzo5RHqlxMqUnPT9W4NjySuBxBa0ZG3bg
p4036
I1
sVbbn
p4037
I8
sVproductAds
p4038
I1
sVRewards
p4039
I2
sVmini1X
p4040
I2
sVUSA
p4041
I2
sVGet
p4042
I6
sV
p4043
I1
sVAudiobook
p4044
I1
sVSpace
p4045
I6
sVclearTimeout
p4046
I2
sVlightningDeals
p4047
I1
sVewcTimeout
p4048
I1
sVV387356454
p4049
I1
sVnavCF
p4050
I3
sV01VElAfJGKL
p4051
I3
sV21fDo6yCsRL
p4052
I4
sVimprove
p4053
I1
sVshims
p4054
I2
sV533px
p4055
I1
sVCinderella
p4056
I3
sV469
p4057
I1
sV468
p4058
I1
sVMultiroom
p4059
I1
sV465
p4060
I4
sV464
p4061
I3
sVassociationHandle
p4062
I4
sV466
p4063
I1
sV461
p4064
I1
sV460
p4065
I1
sV463
p4066
I1
sVCredit
p4067
I10
sVlogEvent
p4068
I1
sV11xRy3bSkOL
p4069
I2
sVCDs
p4070
I3
sVweblab
p4071
I10
sVan
p4072
I4
sVsignInHtml
p4073
I1
sV1392
p4074
I2
sV880X400
p4075
I2
sVPoints
p4076
I2
sV7147442011
p4077
I1
sValign
p4078
I17
sV328182011
p4079
I1
sVnewforyou
p4080
I1
sVvalue
p4081
I54
sVFlyoutErrorTemplate
p4082
I1
sVDance
p4083
I1
sVCD
p4084
I1
sVPricing
p4085
I1
sVau
p4086
I1
sVkitchenthanksgivingevent
p4087
I5
sVB016LMQDWE
p4088
I1
sVgamma
p4089
I9
sVcreateAutocomplete
p4090
I4
sVhelper
p4091
I1
sVgetC
p4092
I6
sVsite
p4093
I9
sVFocus
p4094
I3
sVhardware
p4095
I4
sVUltron
p4096
I2
sVclaimed
p4097
I2
sVYou
p4098
I4
sVsuggestionText
p4099
I2
sVGarden
p4100
I7
sV706809011
p4101
I1
sValwaysRaised
p4102
I1
sVlandmarks
p4103
I1
sVconnection
p4104
I1
sVparts
p4105
I3
sVCar
p4106
I3
sVB00VKIY9RG
p4107
I2
sVandroid
p4108
I8
sVB00U3FPN4U
p4109
I2
sVFX
p4110
I2
sVB00R45XHIQ
p4111
I5
sVbillboardRowWrapper
p4112
I3
sVhttp
p4113
I742
sVLuggage
p4114
I2
sVpromo
p4115
I16
sVApp
p4116
I1
sVdialog
p4117
I5
sVadjustSimMargin
p4118
I3
sVios
p4119
I1
sVautomation
p4120
I1
sVV288563147
p4121
I2
sVv1
p4122
I6
sVv2
p4123
I5
sVv3
p4124
I3
sV111315
p4125
I2
sVRecommendations
p4126
I1
sVlogin
p4127
I2
sVidentity
p4128
I2
sVKristen
p4129
I1
sVYard
p4130
I2
sVgutter
p4131
I1
sVoff
p4132
I4
sVcenter
p4133
I30
sVmyhabit
p4134
I1
sVi
p4135
I99
sV10192836011
p4136
I1
sVbuilder
p4137
I2
sV13227357011
p4138
I1
sVpriceOnly
p4139
I13
sVcol
p4140
I5
sV357
p4141
I2
sV356
p4142
I1
sV355
p4143
I2
sV354
p4144
I4
sV353
p4145
I5
sVkeydownTriggeredWeblabs
p4146
I2
sV351
p4147
I4
sV350
p4148
I4
sVposition
p4149
I17
sVaudio
p4150
I3
sV359
p4151
I3
sV358
p4152
I4
sVBD
p4153
I2
sVDPReview
p4154
I1
sVB00I2TV3NO
p4155
I2
sVsafari
p4156
I1
sVBB
p4157
I1
sVyouraccount
p4158
I1
sVGourmet
p4159
I2
sVcobrandcard
p4160
I2
sVopenPopover
p4161
I3
sVdetail
p4162
I3
sV317970011
p4163
I1
sV26p
p4164
I1
sVbooks
p4165
I13
sVShorts
p4166
I1
sVTahoe
p4167
I2
sVseats
p4168
I1
sVscooters
p4169
I1
sV51xGysm1gWL
p4170
I5
sVreduced
p4171
I8
sVflashlight
p4172
I4
sVGaming
p4173
I1
sV6685269011
p4174
I1
sVMario
p4175
I6
sVmsMaxTouchPoints
p4176
I1
sVFriday
p4177
I4
sVcapabilities
p4178
I2
sV2EF4DF105FC57E2F8FA2BB129755A3E03E343571
p4179
I1
sVspinner
p4180
I6
sVadd
p4181
I7
sVsslTriggerRetry
p4182
I1
sVadoption
p4183
I1
sV281
p4184
I8
sV1115
p4185
I8
sV283
p4186
I3
sVB016LMQG5S
p4187
I1
sV284
p4188
I5
sV287
p4189
I2
sV286
p4190
I1
sV2BwjL
p4191
I2
sVV176526456
p4192
I1
sV300px
p4193
I15
sV263
p4194
I2
sV261
p4195
I1
sV260
p4196
I1
sV267
p4197
I2
sVBUILD
p4198
I1
sV265
p4199
I4
sV264
p4200
I8
sVV356015500
p4201
I1
sV269
p4202
I1
sVDeluxe
p4203
I5
sVB0035GX0BM
p4204
I2
sVravensburger
p4205
I1
sVdesc
p4206
I2
sVtenmarks
p4207
I1
sVweeklyftr
p4208
I1
sVFashion
p4209
I5
sVlike
p4210
I3
sVsuccess
p4211
I3
sVsizes
p4212
I1
sVvalidations
p4213
I1
sVReturns
p4214
I1
sVV311333051
p4215
I2
sV2BwMtBAF10pNGSmpXeH
p4216
I1
sVV289519992
p4217
I1
sVMp3
p4218
I2
sVonSimImgLoad
p4219
I2
sVasync
p4220
I1
sV11525222011
p4221
I1
sV3A5856181011
p4222
I1
sVaudible
p4223
I2
sVreplacement
p4224
I1
sVproductTitle
p4225
I1
sVhasArrow
p4226
I1
sV51vueB6ze1L
p4227
I5
sVB00R45XL1Y
p4228
I5
sVclassical
p4229
I1
sVOprah
p4230
I3
sVtwitter
p4231
I2
sVlibrary
p4232
I3
sV11024013011
p4233
I1
sVsearchSelect
p4234
I3
sVV291132146
p4235
I1
sV117
p4236
I1
sV116
p4237
I1
sV49594
p4238
I2
sVUnderground
p4239
I3
sVhome
p4240
I25
sVb397320662b86fef1dfc4f185eaebd602ab0d7d9
p4241
I1
sVkdp
p4242
I1
sV13146294011
p4243
I1
sVLike
p4244
I3
sVnavSwmHoliday
p4245
I2
sVsslTriggerType
p4246
I1
sVRedford
p4247
I1
sVbedding
p4248
I3
sV3Dnav
p4249
I10
sVtooltip
p4250
I4
sVQuantity
p4251
I1
sVscrollbar
p4252
I18
sVdefaultPadding
p4253
I3
sVW800
p4254
I3
sVpreload
p4255
I33
sVpr
p4256
I2
sVJunglee
p4257
I1
sVindexOf
p4258
I5
sVdialogSelector
p4259
I2
sVInside
p4260
I3
sVSkin
p4261
I2
sVUp
p4262
I12
sVUs
p4263
I5
sV1500v5
p4264
I2
sVhost
p4265
I4
sVnp
p4266
I3
sVnavFooterDescSpacer
p4267
I40
sVElectronicsComputersPanel
p4268
I2
sVKindle
p4269
I26
sVibprox
p4270
I2
sVMicrosoft
p4271
I7
sVafter
p4272
I1
sVB011SLD1NC
p4273
I2
sV2Bpp90PB7Eaeh
p4274
I1
sV2BJoWhJIwRK1cLcdOJhlFm1xt4uCiqFRKCjybVo7YICqFbQ0zPwtV5TqRhZ9UpUd61g2QJizNr5ouBMfL9JWZsx
p4275
I1
sVabout
p4276
I6
sVlifestyle
p4277
I1
sVUX
p4278
I8
sVDining
p4279
I2
sVReload
p4280
I1
sVcolumn
p4281
I15
sVUV
p4282
I2
sVActivated
p4283
I3
sVwaitPeriod
p4284
I2
sVUS
p4285
I5
sVa2
p4286
I1
sV2Fbenefits
p4287
I1
sVconstructor
p4288
I1
sVJapan
p4289
I1
sVdismissId
p4290
I2
sVsoftware
p4291
I5
sVwarranty
p4292
I2
sVVoyage
p4293
I2
sV61clNrOPNbL
p4294
I5
sVflingData
p4295
I1
sVh2
p4296
I13
sVTwo
p4297
I1
sVfrn
p4298
I2
sVcancelBubble
p4299
I1
sV29316
p4300
I2
sVsquare
p4301
I1
sV11zbtATnVTL
p4302
I2
sVB008D1RD4E
p4303
I2
sValex2
p4304
I2
sVisUseAuiIss
p4305
I2
sV51M
p4306
I5
sV41nk4I
p4307
I5
sVstrategy
p4308
I1
sVThousands
p4309
I1
sVrcx
p4310
I1
sVyourstore
p4311
I3
sVval
p4312
I2
sVMost
p4313
I2
sVtitle2
p4314
I1
sV2BaNkL
p4315
I5
sVapps
p4316
I7
sVV289660772
p4317
I1
sVpa
p4318
I1
sVIMDb
p4319
I2
sVinner
p4320
I10
sVCloudDrivePanel
p4321
I2
sVbiggest
p4322
I2
sVvas
p4323
I1
sVpopupPlayerV1
p4324
I1
sVExpendables
p4325
I4
sVfunction
p4326
I225
sVbuy
p4327
I2
sValexa
p4328
I1
sVrequestTimes
p4329
I5
sVhr
p4330
I39
sVfunds
p4331
I1
sVswmslot
p4332
I1
sVa5100
p4333
I8
sVActionable
p4334
I1
sVOops
p4335
I5
sVB00BVYNSLC
p4336
I1
sVoverflow
p4337
I11
sVBalance
p4338
I1
sVhg
p4339
I5
sVcount
p4340
I33
sVIndustrial
p4341
I5
sVGolf
p4342
I2
sV61SrSJoH
p4343
I5
sVtemp
p4344
I1
sVwish
p4345
I1
sV51lB9HwNTGL
p4346
I5
sVj
p4347
I12
sV1182
p4348
I3
sVdmm
p4349
I2
sV1181
p4350
I3
sVMirrorless
p4351
I24
sVrecord
p4352
I8
sVmeta
p4353
I11
sVCard
p4354
I12
sV61XWDh9KhCL
p4355
I2
sVfetch
p4356
I2
sVproblem
p4357
I3
sVCare
p4358
I5
sVappendTo
p4359
I1
sVdisplay
p4360
I49
sVec2
p4361
I2
sVXBR75X850C
p4362
I6
sV2242532011
p4363
I1
sVflyout
p4364
I26
sVcartTimeout
p4365
I1
sVcampusActivation
p4366
I1
sV446914222
p4367
I1
sVCable
p4368
I4
sV1K9SmL
p4369
I5
sV7175545011
p4370
I1
sVLorcan
p4371
I1
sVtextareaPlaceholder
p4372
I1
sVB00RCYEL7U
p4373
I1
sVpeuPtKCpII
p4374
I1
sVElectronics
p4375
I18
sVeducation
p4376
I1
sVPlayer
p4377
I34
sVeastdane
p4378
I1
sVpiv
p4379
I22
sVGoodreads
p4380
I1
sV26925
p4381
I1
sV51W66uuXGRL
p4382
I5
sV48
p4383
I1
sV49
p4384
I2
sV46
p4385
I1
sVnavFooterLogoLine
p4386
I1
sVhpw
p4387
I1
sV43
p4388
I1
sV40
p4389
I3
sV41
p4390
I10
sVWireless
p4391
I9
sV61ZPdYAaD7L
p4392
I5
sV2BSP5facQZB
p4393
I1
sVother
p4394
I3
sVPowersports
p4395
I1
sVKnow
p4396
I1
sVhpc
p4397
I2
sVV288891342
p4398
I2
sVParkingFrenzy2
p4399
I1
sVout
p4400
I12
sV31GWbo72l1L
p4401
I5
sVTelephoto
p4402
I2
sVnl
p4403
I1
sVevergreen
p4404
I1
sVissInitObj
p4405
I16
sV22px
p4406
I1
sVYear
p4407
I1
sVB00ZDWGFR2
p4408
I5
sVapparel
p4409
I3
sVV305770688
p4410
I1
sVFuture
p4411
I4
sVU
p4412
I6
sV4K
p4413
I25
sVB013P0X0WQ
p4414
I2
sVN
p4415
I3
sVfriends
p4416
I4
sVMusical
p4417
I3
sVKmfwZZlszOy
p4418
I1
sVWhispersync
p4419
I1
sVyourAccount
p4420
I1
sVamazonservices
p4421
I1
sV4x
p4422
I7
sVdevicePixelRatio
p4423
I2
sVentertainment
p4424
I3
sVsubscribe
p4425
I1
sVPrivate
p4426
I1
sV3Fc
p4427
I1
sV472
p4428
I1
sV473
p4429
I2
sV470
p4430
I2
sV471
p4431
I1
sV476
p4432
I2
sV477
p4433
I1
sV474
p4434
I2
sV475
p4435
I2
sVsleeves
p4436
I2
sV479
p4437
I2
sV11SreAAABVL
p4438
I6
sVOrders
p4439
I3
sVpopulateSims
p4440
I2
s.