(dp0
S'addPL'
p1
I1
sS'Canada'
p2
I1
sS'displayTriggeredWeblabs'
p3
I2
sS'Vitamins'
p4
I2
sS'doubleCart'
p5
I1
sS'6cc36d2d362d5b8098dc90244a35a27cf4d73434'
p6
I1
sS'dynamic'
p7
I247
sS'Rates'
p8
I1
sS'Improvement'
p9
I6
sS'Dining'
p10
I2
sS'31pCj9'
p11
I1
sS'2Bvep77j55rkB7ycWMFx14F6UZ0J3'
p12
I1
sS'CB288329376'
p13
I5
sS'CB288329377'
p14
I6
sS'Decorations'
p15
I1
sS'asins'
p16
I8
sS'6pm'
p17
I2
sS'5799614011'
p18
I1
sS'cellspacing'
p19
I2
sS'Replacements'
p20
I1
sS'2Ft6FgJtj20Usnpu1UPv35zxQhdrNLmhBb'
p21
I1
sS'CMOS'
p22
I4
sS'aliases'
p23
I1
sS'Plate'
p24
I3
sS'2BvEFfL'
p25
I5
sS'replacements'
p26
I1
sS'B012R1QQU2'
p27
I7
sS'41RblphgT9L'
p28
I6
sS'eligible'
p29
I1
sS'aui'
p30
I39
sS'1064954'
p31
I1
sS'Watch'
p32
I18
sS'2FA'
p33
I1
sS'2Fcontent'
p34
I1
sS'344'
p35
I1
sS'346'
p36
I1
sS'347'
p37
I4
sS'340'
p38
I3
sS'swap'
p39
I1
sS'32529'
p40
I1
sS'343'
p41
I2
sS'Corded'
p42
I4
sS'Cases'
p43
I1
sS'392446011'
p44
I1
sS'348'
p45
I2
sS'firstCarousel'
p46
I1
sS'GW'
p47
I11
sS'B00V73JZY6'
p48
I2
sS'updated'
p49
I1
sS'B007SPQZMC'
p50
I1
sS'tabletImage'
p51
I20
sS'Pro'
p52
I6
sS'CB142890782'
p53
I1
sS'50mm'
p54
I3
sS'void'
p55
I1
sS'YIZ2ST'
p56
I1
sS'55mm'
p57
I11
sS'StoragePromo'
p58
I1
sS'scroller'
p59
I1
sS'every'
p60
I1
sS'GB'
p61
I12
sS'yreNRbYM'
p62
I1
sS'01Zix61jLSL'
p63
I6
sS'9f9'
p64
I2
sS'440x200'
p65
I1
sS'2Nx1loyjAGSJamuSJcp5EpD7dQykhElLvOC'
p66
I1
sS'school'
p67
I1
sS'41CyJzH5V0L'
p68
I6
sS'assembly'
p69
I1
sS'Car'
p70
I7
sS'61RTo5963ML'
p71
I5
sS'Internet'
p72
I1
sS'MAX'
p73
I22
sS'9px'
p74
I1
sS'declareOnLoad'
p75
I4
sS'Hercules'
p76
I4
sS'delegate'
p77
I5
sS'298'
p78
I1
sS'299'
p79
I4
sS'Go'
p80
I2
sS'297'
p81
I3
sS'295'
p82
I2
sS'293'
p83
I6
sS'291'
p84
I2
sS'enjoy'
p85
I1
sS'Screw'
p86
I4
sS'11434552011'
p87
I1
sS'HandmadePanel'
p88
I2
sS'shoveler'
p89
I35
sS'2B3VQz6xiLAsbYrNDMrSIeEu3xRc161Tg'
p90
I1
sS'Dietary'
p91
I2
sS'phones'
p92
I1
sS'kuRydHyyguKXkUwcML65ktJieNsKyLUszR6LTPSYr9vrctXwDsWjw7LQ5dJWq5BDBx8bkB'
p93
I1
sS'btfContent'
p94
I1
sS'CB291918946'
p95
I1
sS'271'
p96
I1
sS'17388'
p97
I3
sS'Version'
p98
I8
sS'274'
p99
I2
sS'275'
p100
I2
sS'276'
p101
I1
sS'triggerISSOnClick'
p102
I1
sS'17382'
p103
I2
sS'279'
p104
I3
sS'25446'
p105
I1
sS'17386'
p106
I3
sS'17387'
p107
I3
sS'17384'
p108
I3
sS'17385'
p109
I3
sS'even'
p110
I1
sS'asin'
p111
I273
sS'2983386011'
p112
I1
sS'hide'
p113
I9
sS'E9D0C49FE913CB7BFC8A52833FCF9FED2384FE0A4'
p114
I1
sS'tyJAy0knob3xuWCssd8MNEmjKDFq5'
p115
I1
sS'selected'
p116
I8
sS'cBUmTruT540w'
p117
I1
sS'4CF3L'
p118
I5
sS'mom'
p119
I1
sS'CB169459313'
p120
I3
sS'Amazon'
p121
I67
sS'26396'
p122
I2
sS'1320'
p123
I1
sS'1E60AB4AC0ECCA00151B45353E21782E539DC601'
p124
I1
sS'1449220325'
p125
I1
sS'supplies'
p126
I3
sS'net'
p127
I9
sS'3A7161074011'
p128
I1
sS'pageReady'
p129
I1
sS'11ikU6MX1JL'
p130
I2
sS'widget'
p131
I34
sS'16310091'
p132
I1
sS'hero'
p133
I61
sS'B004W1WGIC'
p134
I5
sS'B016VOV714'
p135
I2
sS'issInitObject'
p136
I4
sS'men'
p137
I1
sS'3A7147441011'
p138
I1
sS'here'
p139
I2
sS'2BrA4RQfCFB6H1Mm7waNEJLam9'
p140
I1
sS'2BAFe2g'
p141
I1
sS'AZFooterSelfPublish'
p142
I1
sS'addWlt'
p143
I2
sS'60000'
p144
I2
sS'GwInstrumentation'
p145
I4
sS'active'
p146
I4
sS'100'
p147
I51
sS'101'
p148
I6
sS'placeholder'
p149
I2
sS'CB327919596'
p150
I1
sS'104'
p151
I3
sS'200px'
p152
I42
sS'customerReviews'
p153
I2
sS'kids'
p154
I4
sS'live'
p155
I1
sS'luggage'
p156
I2
sS'items'
p157
I88
sS'k'
p158
I5
sS'3AATVPDKIKX0DER'
p159
I1
sS'8x'
p160
I2
sS'Wearable'
p161
I1
sS'Packaging'
p162
I24
sS'credit'
p163
I13
sS'primeTooltip'
p164
I1
sS'canPlayType'
p165
I2
sS'NOT'
p166
I1
sS'useragent'
p167
I1
sS'B00EL8I8IS'
p168
I2
sS'01N6V77XbAL'
p169
I6
sS'B00DQ5NU76'
p170
I5
sS'wlTriggers'
p171
I2
sS'campaign'
p172
I21
sS'2BYEgL'
p173
I5
sS'n7ztVzAWKvogqRBaV1eg0'
p174
I1
sS'Relations'
p175
I1
sS'replace'
p176
I11
sS'1668981302'
p177
I2
sS'substr'
p178
I1
sS'Book'
p179
I3
sS'sloane'
p180
I1
sS'CTA'
p181
I1
sS'Skates'
p182
I1
sS'freshPopOverLoading'
p183
I2
sS'primeMusicSash'
p184
I76
sS'glance'
p185
I2
sS'11lY8mYpb3L'
p186
I6
sS'CB342128453'
p187
I2
sS'2634438011'
p188
I2
sS'Circular'
p189
I12
sS'2BnJT'
p190
I1
sS'500px'
p191
I91
sS'175'
p192
I1
sS'UX396'
p193
I3
sS'foods'
p194
I1
sS'Stay'
p195
I3
sS'm5'
p196
I1
sS'chargers'
p197
I2
sS'Newsstand'
p198
I2
sS'htmlList'
p199
I1
sS'localStorage'
p200
I3
sS'51H7xxVv8BL'
p201
I6
sS'Included'
p202
I2
sS'mAh'
p203
I8
sS'type'
p204
I50
sS'auix'
p205
I1
sS'341'
p206
I1
sS'Smartphones'
p207
I8
sS'2FSDtHLhv3mTUQ56mfaFFemB3'
p208
I1
sS'Click'
p209
I18
sS'48787'
p210
I1
sS'1321'
p211
I1
sS'0SJEV8G9BT6KHZ31VWST'
p212
I1
sS'4JL'
p213
I2
sS'Devices'
p214
I24
sS'99'
p215
I75
sS'98'
p216
I9
sS'388305011'
p217
I2
sS'interaction'
p218
I1
sS'accessoriesJS'
p219
I4
sS'V'
p220
I6
sS'90'
p221
I1
sS'93'
p222
I1
sS'92'
p223
I3
sS'95'
p224
I16
sS'94'
p225
I1
sS'97'
p226
I5
sS'96'
p227
I5
sS'2F95plwz'
p228
I1
sS'join'
p229
I7
sS'27505'
p230
I1
sS'player'
p231
I3
sS'mm'
p232
I3
sS'447152482'
p233
I1
sS'setup'
p234
I2
sS'Point'
p235
I4
sS'mi'
p236
I3
sS'breakfast'
p237
I1
sS'349'
p238
I2
sS'popstate'
p239
I1
sS'movies'
p240
I10
sS'GWSnSBeautydesktopbillboard'
p241
I2
sS'Lightweight'
p242
I6
sS'ms'
p243
I2
sS'gifting'
p244
I4
sS'Handle'
p245
I6
sS'root'
p246
I1
sS'App'
p247
I3
sS'authportal'
p248
I12
sS'checkid'
p249
I2
sS'5fac7e3f4f5ed4a2f9b3210cccc45688c959ef94'
p250
I2
sS'2FDsYnv5i0oVoqg9PzQAslrZLw84IpuBPDnNJVBrBUcfrEVk2Pjuq3G1'
p251
I1
sS'Chrome'
p252
I1
sS'Bedding'
p253
I2
sS'10805321'
p254
I1
sS'Grocery'
p255
I6
sS'Virtual'
p256
I6
sS'Reality'
p257
I6
sS'DWST17808'
p258
I6
sS'ready'
p259
I7
sS'Warranty'
p260
I54
sS'3A10445813011'
p261
I6
sS'Sealed'
p262
I6
sS'Digital'
p263
I54
sS'organizer'
p264
I1
sS'times'
p265
I1
sS'absolute'
p266
I7
sS'Wheel'
p267
I1
sS'LG'
p268
I6
sS'Smartphone'
p269
I30
sS'quot'
p270
I1414
sS'feature'
p271
I7
sS'132px'
p272
I1
sS'CB288580078'
p273
I2
sS'backgroundImage'
p274
I1
sS'Jack'
p275
I3
sS'deepNodeISS'
p276
I1
sS'popover'
p277
I64
sS'gate'
p278
I1
sS'2B9yXK6f1rZIYqDZCkFuSqAhyD0tKoldysLiFFD'
p279
I1
sS'config'
p280
I66
sS'31xVCoZT2tL'
p281
I6
sS'A'
p282
I146
sS'gaming'
p283
I1
sS'AmazonGlobal'
p284
I1
sS'Bates'
p285
I1
sS'description'
p286
I2
sS'beauty'
p287
I16
sS'50px'
p288
I1
sS'freshPopOverOn'
p289
I5
sS'9538509011'
p290
I1
sS'asked'
p291
I1
sS'createCarousel'
p292
I8
sS'Watchlist'
p293
I2
sS'pageType'
p294
I7
sS'2FxOgxG3Zka6HR3Xac5V1egMO6Hru033s'
p295
I1
sS'RWoZ6n2AZSu'
p296
I1
sS'519x522'
p297
I3
sS'Bandit'
p298
I6
sS'All'
p299
I24
sS'B006GLMHBM'
p300
I1
sS'fullWidthCoreFlyout'
p301
I1
sS'2Fextensions'
p302
I2
sS'1288'
p303
I3
sS'9209902011'
p304
I1
sS'loader'
p305
I1
sS'alias'
p306
I48
sS'DW682K'
p307
I3
sS'maintain'
p308
I1
sS'2BH3TEuP25QDIOjRuethm5h4Ow5iHhqWS0tU3iK'
p309
I1
sS'hasColumns'
p310
I4
sS'dynamicWidgets'
p311
I1
sS'Surf'
p312
I22
sS'680'
p313
I1
sS'ec'
p314
I1
sS'wine'
p315
I2
sS'Blue'
p316
I8
sS'3Aphoto'
p317
I1
sS'office'
p318
I12
sS'mkId'
p319
I5
sS'viewportmeta'
p320
I3
sS'Broom'
p321
I3
sS'2FJ49PCCG'
p322
I1
sS'11MXghh1eBL'
p323
I4
sS'Place'
p324
I1
sS'carnac'
p325
I1
sS'2658409011'
p326
I1
sS'31PeofDZRgL'
p327
I3
sS'rewarded'
p328
I1
sS'digest'
p329
I1
sS'before'
p330
I4
sS'domready'
p331
I1
sS'41HueNhXeFL'
p332
I1
sS'ime'
p333
I1
sS'img'
p334
I204
sS'CB289417200'
p335
I2
sS'personal'
p336
I7
sS'11874301011'
p337
I1
sS'albums'
p338
I2
sS'51InzcaVqrL'
p339
I5
sS'407'
p340
I2
sS'406'
p341
I1
sS'Item'
p342
I4
sS'402'
p343
I1
sS'401'
p344
I6
sS'400'
p345
I9
sS'Know'
p346
I1
sS'hidden'
p347
I19
sS'3DAZFSSOA'
p348
I1
sS'Spain'
p349
I1
sS'408'
p350
I1
sS'disableBuyItAgain'
p351
I1
sS'6054382011'
p352
I1
sS'Kids'
p353
I11
sS'onclick'
p354
I1
sS'Mobile'
p355
I1
sS'Bundles'
p356
I1
sS'upnav2xImagePath'
p357
I1
sS'2FgTXO0uUqjtTjfPIotD8SpTRmw9UJehoPmTPaCxy4hUDFcgjutQhElHNiR6CO9w'
p358
I1
sS'break'
p359
I3
sS'sidekick1'
p360
I2
sS'removeClass'
p361
I3
sS'upnav2xAiryPreloadImgInfo'
p362
I1
sS'20793816'
p363
I1
sS'Cards'
p364
I5
sS'31OaLsYc8yL'
p365
I6
sS'Womens'
p366
I1
sS'172541'
p367
I2
sS'tooltip'
p368
I4
sS'Control'
p369
I2
sS'ATV'
p370
I1
sS'defaultPadding'
p371
I3
sS'newUrl'
p372
I2
sS'41XwmsA0iAL'
p373
I5
sS'Indie'
p374
I3
sS'1286228011'
p375
I2
sS'India'
p376
I2
sS'l'
p377
I24
sS'1500x600'
p378
I1
sS'378'
p379
I1
sS'affiliate'
p380
I1
sS'2FrEbtQbrZfLN'
p381
I1
sS'goldbox'
p382
I2
sS'fitness'
p383
I3
sS'371'
p384
I1
sS'370'
p385
I2
sS'372'
p386
I2
sS'375'
p387
I16
sS'374'
p388
I4
sS'ed27de6103b1766a0b6cea6d878c1a853d9eb8da'
p389
I1
sS'Headset'
p390
I22
sS'BD44210E43BCCEF6ACC893CE92B1C84CD37ABF8C'
p391
I1
sS'financial'
p392
I2
sS'directly'
p393
I1
sS'3A0F170E7CEFE27BDC730D3D7344512BC1296B83'
p394
I1
sS'Midnight'
p395
I9
sS'B00I8BIBCW'
p396
I2
sS'31Ikm59ypOL'
p397
I6
sS'started'
p398
I1
sS'393'
p399
I1
sS'navp'
p400
I1
sS'391'
p401
I2
sS'397'
p402
I2
sS'396'
p403
I5
sS'395'
p404
I2
sS'394'
p405
I1
sS'logo'
p406
I11
sS'399'
p407
I9
sS'398'
p408
I3
sS'c32671b08f308a32a28e49ce297e612f1535245e'
p409
I1
sS'leftnav'
p410
I1
sS'CB288101672'
p411
I1
sS'BEGIN'
p412
I1
sS'Plunge'
p413
I2
sS'229534'
p414
I1
sS'41qIULouRhL'
p415
I6
sS'CB288101675'
p416
I1
sS'2B47FpOJb5JrbA4eq9DFffuzZqO5D2rS19M2GXNzv8rD8Dy16M6FZN'
p417
I1
sS'gradient'
p418
I3
sS'CB153387053'
p419
I2
sS'31TLofvr1pL'
p420
I6
sS'mason'
p421
I1
sS'content'
p422
I41
sS'dsl'
p423
I2
sS'Lamps'
p424
I1
sS'Careers'
p425
I1
sS'Package'
p426
I6
sS'reader'
p427
I5
sS'revolving'
p428
I1
sS'styles'
p429
I1
sS'autorotation'
p430
I1
sS'rh'
p431
I8
sS'Wahlberg'
p432
I1
sS'emptyWishlist'
p433
I1
sS'5744819011'
p434
I1
sS'2Fsvu1mP11MxigyrwlKy1paYCBT1RPfiJx64lUE4gSyxsJo404TmgSo'
p435
I1
sS'linear'
p436
I2
sS'109'
p437
I2
sS'textStroke'
p438
I1
sS'444886702'
p439
I1
sS'DAsis'
p440
I1
sS'CB287738814'
p441
I1
sS'navFooterBackToTop'
p442
I1
sS'dynamicRequest'
p443
I1
sS'1000625601'
p444
I1
sS'free'
p445
I4
sS'panelKey'
p446
I23
sS'296'
p447
I1
sS'247'
p448
I1
sS'246'
p449
I1
sS'CB309092102'
p450
I2
sS'240'
p451
I2
sS'W'
p452
I4
sS'242'
p453
I1
sS'Transformers'
p454
I4
sS'autoFocus'
p455
I1
sS'508510'
p456
I2
sS'249'
p457
I4
sS'248'
p458
I13
sS'atf'
p459
I1
sS'navFooterLine'
p460
I4
sS'rewards'
p461
I3
sS'SX440'
p462
I1
sS'2Bby14ZeCawGKa4UP1MO9bjjoslMoqPpbzIRrXSe5XuQawfpoIJCTIX6UzX'
p463
I1
sS'bletchley'
p464
I1
sS'01wBjiz9OvL'
p465
I3
sS'41G8D'
p466
I5
sS'heading'
p467
I11
sS'filter'
p468
I2
sS'Titanium'
p469
I9
sS'offerListingId'
p470
I84
sS'iso'
p471
I1
sS'prefetch'
p472
I2
sS'Children'
p473
I1
sS'GkCOrrou'
p474
I1
sS'180px'
p475
I1
sS'clothes'
p476
I2
sS'2FiXfvPmgJI9rpjL52dnP8hyYDdR373Mk'
p477
I1
sS'amznbtn'
p478
I3
sS'user'
p479
I1
sS'industrial'
p480
I7
sS'2F65m2TH8zABjjAlqOeaYVH'
p481
I1
sS'features'
p482
I1
sS'snwicons'
p483
I2
sS'Please'
p484
I1
sS'primary'
p485
I1
sS'CB288113948'
p486
I1
sS'CB288113949'
p487
I1
sS'Cell'
p488
I23
sS'cursor'
p489
I1
sS'41He4cNyBHL'
p490
I6
sS'179'
p491
I2
sS'41tBiLeXxrL'
p492
I6
sS'entityId'
p493
I1
sS'176'
p494
I2
sS'navigator'
p495
I10
sS'2B5KJwbPyOLgelX5o5Pqc07u0'
p496
I1
sS'173'
p497
I4
sS'170'
p498
I8
sS'B00C0VSNKQ'
p499
I5
sS'toy'
p500
I3
sS'51OBjqwDlVL'
p501
I5
sS'Quilting'
p502
I1
sS'service'
p503
I1
sS'51sJNV4CSSL'
p504
I6
sS'11R7M3OlPwL'
p505
I6
sS'top'
p506
I17
sS'girls'
p507
I7
sS'AutoComplete'
p508
I1
sS'2C7613704011'
p509
I1
sS'ZrdtoGLzjr2c2h01zbtD3P1WAwbpNBzqTBYrMS7'
p510
I1
sS'yBL'
p511
I3
sS'twister'
p512
I2
sS'dogs'
p513
I1
sS'Posture'
p514
I6
sS'Search'
p515
I2
sS'B'
p516
I18
sS'Rare'
p517
I1
sS'Converter'
p518
I4
sS'CB288026754'
p519
I4
sS'initSearchCsl'
p520
I3
sS'signup'
p521
I1
sS'2407749011'
p522
I1
sS'41bEqDQKtSL'
p523
I6
sS'Worksite'
p524
I3
sS'electronicsgiftfinder'
p525
I1
sS'Edge'
p526
I4
sS'Dashboard'
p527
I6
sS'61ScWip3O0L'
p528
I6
sS'strollers'
p529
I1
sS'oct22'
p530
I4
sS'26ref'
p531
I10
sS'Smit'
p532
I1
sS'2Bf4thgAnOtBCBfbbpW'
p533
I1
sS'updateISSCompletion'
p534
I1
sS'Repair'
p535
I1
sS'Set'
p536
I20
sS'CB288115048'
p537
I1
sS'alreadyLoaded'
p538
I3
sS'fabric'
p539
I1
sS'gwAjax'
p540
I6
sS'enabled'
p541
I1
sS'zero'
p542
I1
sS'Cyber'
p543
I16
sS'Sex'
p544
I1
sS'merch'
p545
I30
sS'd6691671529d98f7d12333835f5c14ca440f8a7a'
p546
I2
sS'See'
p547
I12
sS'Tracker'
p548
I12
sS'initializeAutocomplete'
p549
I3
sS'E47923'
p550
I1
sS'design'
p551
I1
sS'1000645111'
p552
I1
sS'Galaxy'
p553
I18
sS'B00JBJ3I4Q'
p554
I5
sS'fashion'
p555
I35
sS'2Ba4uU7dmA'
p556
I1
sS'Q4'
p557
I1
sS'issPromos'
p558
I1
sS'11261610011'
p559
I1
sS'51qHNpFK8RL'
p560
I5
sS'7258624011'
p561
I1
sS'LhFoHUHnn0phlygOOICVd'
p562
I1
sS'2F1Ldw3Z902DkKSxKd3ZcsaDW1kNqZBZEqN2XLTfM0RkwTF'
p563
I1
sS'278'
p564
I1
sS'outdoors'
p565
I4
sS'0APEKBVWW9XBRKW3HKDA'
p566
I3
sS'ypD'
p567
I2
sS'17383'
p568
I3
sS'B00T85PMWY'
p569
I2
sS'HERO'
p570
I30
sS'465600'
p571
I1
sS'cloudplayer'
p572
I1
sS'172504'
p573
I1
sS'649'
p574
I2
sS'400x39'
p575
I1
sS'secure'
p576
I9
sS'releases'
p577
I2
sS'Tires'
p578
I1
sS'Waterproof'
p579
I3
sS'2Bzol5HssZOXoWwRM0GFJYAOu'
p580
I1
sS'Pegg'
p581
I1
sS'Component'
p582
I1
sS'CB219086192'
p583
I1
sS'Tripod'
p584
I2
sS'CB291227620'
p585
I2
sS'Band'
p586
I10
sS'luxury'
p587
I2
sS'shelf'
p588
I8
sS'AmazonUIPageJS'
p589
I37
sS'billboardRow'
p590
I2
sS'Casa'
p591
I1
sS'335'
p592
I2
sS'Giants'
p593
I3
sS'CB293057836'
p594
I1
sS'G900H'
p595
I6
sS'Button'
p596
I2
sS'Computers'
p597
I9
sS'B002JWSNIS'
p598
I5
sS'what'
p599
I1
sS'iPadTablet'
p600
I1
sS'B00S5C3BCY'
p601
I5
sS'optimized'
p602
I1
sS'errors'
p603
I1
sS'S3700'
p604
I2
sS'21fD'
p605
I4
sS'B0094K1JPC'
p606
I2
sS'2745439681'
p607
I1
sS'2B7SpdWC0BzWHX7aWpO0oXwEwFFFCYjDUsQpmh7clDajcovJ51dNM8CvSc0zytlznp'
p608
I1
sS'typ'
p609
I2
sS'dvd'
p610
I1
sS'mouseleave'
p611
I1
sS'Shutter'
p612
I6
sS'Childrens'
p613
I1
sS'10529351011'
p614
I1
sS'corporate'
p615
I1
sS'667846011'
p616
I1
sS'camp'
p617
I1
sS'm'
p618
I30
sS'DC385B'
p619
I3
sS'SX396'
p620
I3
sS'points'
p621
I3
sS'2BWsg'
p622
I1
sS'f178646a62fa7bc20b0673084c76a655108e4a87'
p623
I1
sS'173px'
p624
I1
sS'DCK285C2'
p625
I6
sS'consumer'
p626
I3
sS'QL'
p627
I6
sS'2FFUARuXU'
p628
I1
sS'CB291132146'
p629
I1
sS'B00NPTL6O2'
p630
I2
sS'rugs'
p631
I1
sS'gwCurrencyINR'
p632
I3
sS'getNow'
p633
I2
sS'Takeovers'
p634
I3
sS'Ceiling'
p635
I1
sS'15684181'
p636
I1
sS'Huawei'
p637
I6
sS'isDigitalFeaturesEnabled'
p638
I3
sS'Vehicle'
p639
I1
sS'keywords'
p640
I3
sS'earth'
p641
I2
sS'31Su3l2608L'
p642
I6
sS'Resources'
p643
I3
sS'x1'
p644
I2
sS'layout'
p645
I1
sS'aPageStart'
p646
I2
sS'issCorpus'
p647
I3
sS'8209716011'
p648
I1
sS'41l'
p649
I1
sS'menu'
p650
I7
sS'Photography'
p651
I1
sS'Base'
p652
I3
sS'Game'
p653
I2
sS'Free'
p654
I12
sS'mens'
p655
I6
sS'attrs'
p656
I1
sS'7589478011'
p657
I1
sS'545'
p658
I3
sS'51XMNBtIRyL'
p659
I5
sS'announce'
p660
I2
sS'Bit'
p661
I6
sS'3A502394'
p662
I1
sS'Furniture'
p663
I4
sS'au'
p664
I1
sS'Account'
p665
I6
sS'2BZmCBy0ONkXs3hPEs7UDynGCEXI74OnnLCA4'
p666
I1
sS'rgba'
p667
I1
sS'2FLTUErxBRZ8eQGsr2gc6Ux0G8MxH'
p668
I1
sS'wide'
p669
I24
sS'Comics'
p670
I1
sS'dd'
p671
I3
sS'rock'
p672
I1
sS'watch'
p673
I1
sS'scalable'
p674
I13
sS'CB288120505'
p675
I2
sS'amazon'
p676
I968
sS'CB189697042'
p677
I1
sS'oWql'
p678
I1
sS'scripts'
p679
I10
sS'new'
p680
I27
sS'Quick'
p681
I1
sS'X'
p682
I7
sS'Piece'
p683
I27
sS'pinnedNavStart'
p684
I1
sS'dp'
p685
I275
sS'isNewIss'
p686
I2
sS'D3200'
p687
I2
sS'bar'
p688
I3
sS'Perfectday'
p689
I6
sS'CCL'
p690
I1
sS'textbooks'
p691
I1
sS'gdPtqL0q'
p692
I1
sS'gwPopover'
p693
I2
sS'Fans'
p694
I1
sS'public'
p695
I1
sS'414'
p696
I2
sS'415'
p697
I1
sS'416'
p698
I1
sS'417'
p699
I1
sS'410'
p700
I2
sS'411'
p701
I2
sS'primesignup'
p702
I1
sS'detailblock'
p703
I4
sS'2ByzDOhzkJuMkBbHlKRWr0K'
p704
I1
sS'B00L9EPT8O'
p705
I1
sS'sgproduct'
p706
I130
sS'51nFYMlGQxL'
p707
I1
sS'B00N9P8GMW'
p708
I5
sS'2B3'
p709
I6
sS'2Fma9ENK9FJKuG2Utk8LVnXOPtwSTeEO1HJm10zfuUQ'
p710
I1
sS'gwAsinPopover'
p711
I1
sS'iOttie'
p712
I6
sS'2B0WFRpnDQ'
p713
I1
sS'Pet'
p714
I5
sS'7483990'
p715
I3
sS'100px'
p716
I2
sS'beaconbelt'
p717
I2
sS'2BbsWhGlhwQAn'
p718
I1
sS'Water'
p719
I1
sS'Made'
p720
I3
sS'w3'
p721
I1
sS'amazonShoveler'
p722
I4
sS'38x'
p723
I2
sS'Performance'
p724
I1
sS'Android'
p725
I38
sS'13271306011'
p726
I1
sS'best'
p727
I1
sS'ShogunPDB'
p728
I2
sS'00'
p729
I37
sS'01'
p730
I236
sS'06'
p731
I2
sS'04'
p732
I2
sS'05'
p733
I2
sS'Auto'
p734
I2
sS'Tool'
p735
I31
sS'2FyuqkQF5'
p736
I1
sS'visibleItemsWidth'
p737
I3
sS'player2'
p738
I3
sS'Appstore'
p739
I3
sS'2FDw26Iu3Nf4Q9wadP4Yq0fX4vYwcqsVF'
p740
I1
sS'pets'
p741
I2
sS'B00X4WHP5E'
p742
I2
sS'366'
p743
I2
sS'367'
p744
I4
sS'365'
p745
I1
sS'362'
p746
I5
sS'363'
p747
I1
sS'C'
p748
I11
sS'wb'
p749
I8
sS'extend'
p750
I6
sS'onload'
p751
I4
sS'Wellness'
p752
I2
sS'56217'
p753
I2
sS'diapers'
p754
I2
sS'380'
p755
I2
sS'381'
p756
I1
sS'382'
p757
I1
sS'loading'
p758
I33
sS'ws'
p759
I2
sS'fastlabs'
p760
I2
sS'387'
p761
I1
sS'CB289363458'
p762
I2
sS'lmargin'
p763
I1
sS'2BE0D'
p764
I1
sS'musical'
p765
I2
sS'165793011'
p766
I1
sS'XRP'
p767
I4
sS'2BywKOWy'
p768
I1
sS'kitchen'
p769
I5
sS'1C053F185EC333A6689D7EB7C092028F9201DF69'
p770
I1
sS'2FmlrOwapI644IQix4QrZu8O6hMm4URza1i9ZCR'
p771
I1
sS'108'
p772
I1
sS'Covers'
p773
I1
sS'players'
p774
I1
sS'INTERESTED'
p775
I1
sS'games'
p776
I10
sS'DW088K'
p777
I6
sS'logic'
p778
I1
sS'ASUS'
p779
I4
sS'Pebble'
p780
I12
sS'com'
p781
I996
sS'AUIX'
p782
I1
sS'Compact'
p783
I19
sS'0F2ZVXPXY72AWNCR8MAB'
p784
I1
sS'6685269011'
p785
I1
sS'2BdldM69WMT2vbrAMCgvsQd23cnakUDqPhUBg7lKEXqeihXg'
p786
I1
sS'listening'
p787
I2
sS'900'
p788
I4
sS'7147444011'
p789
I1
sS'RfNPIkRxuBwcGJWWJE3fZAtyHwobkKhw'
p790
I1
sS'TVs'
p791
I1
sS'height'
p792
I235
sS'TSTAK'
p793
I4
sS'102'
p794
I5
sS'258'
p795
I2
sS'triggerElementID'
p796
I2
sS'366177'
p797
I1
sS'Attachment'
p798
I6
sS'towels'
p799
I1
sS'searchBackState'
p800
I1
sS'loaded'
p801
I6
sS'fwcim'
p802
I2
sS'257'
p803
I1
sS'255'
p804
I4
sS'simsLessThanThreshold'
p805
I1
sS'strong'
p806
I2
sS'iframe'
p807
I2
sS'complimentary'
p808
I76
sS'chrome'
p809
I1
sS'2Fauth'
p810
I6
sS'Sewing'
p811
I4
sS'SY440'
p812
I111
sS'been'
p813
I1
sS'HomeServicesPanel'
p814
I2
sS'B00OPX707Y'
p815
I3
sS'trigger'
p816
I4
sS'41lJkuqzCfL'
p817
I6
sS'csYourAccount'
p818
I1
sS'2F5Izw'
p819
I1
sS'imgblock'
p820
I3
sS'CB343920894'
p821
I2
sS'2Fref'
p822
I1
sS'pageContent'
p823
I1
sS'website'
p824
I1
sS'Definition'
p825
I2
sS'sprite'
p826
I20
sS'CL'
p827
I1
sS'CB318885489'
p828
I1
sS'CF'
p829
I5
sS'irhome'
p830
I1
sS'CD'
p831
I3
sS'Brands'
p832
I1
sS'41rLLB6EGXL'
p833
I6
sS'168'
p834
I3
sS'169'
p835
I7
sS'catch'
p836
I3
sS'165'
p837
I13
sS'309'
p838
I1
sS'Voice'
p839
I6
sS'160'
p840
I28
sS'B00R1984DI'
p841
I5
sS'2BkPEUHgP6U46BdZkv4nWh4oINZ8dbBtuBX3Y'
p842
I1
sS'Athletic'
p843
I1
sS'ajaxUrl'
p844
I2
sS'12763935011'
p845
I1
sS'Soap'
p846
I1
sS'n'
p847
I718
sS'Other'
p848
I8
sS'typeof'
p849
I12
sS'Harrison'
p850
I1
sS'31nsanV6MnL'
p851
I6
sS'imdb'
p852
I1
sS'property'
p853
I3
sS'gno'
p854
I22
sS'Collectibles'
p855
I5
sS'909'
p856
I2
sS'crossorigin'
p857
I1
sS'amazonfooter'
p858
I1
sS'CHDHX'
p859
I4
sS'2Fi66EEbKXER2CmB'
p860
I1
sS'accessories'
p861
I10
sS'10px'
p862
I6
sS'Mens'
p863
I2
sS'CHDHC'
p864
I2
sS'iu3'
p865
I1
sS'CB192194766'
p866
I2
sS'Nav'
p867
I169
sS'2FwAFZwawTORHsoAuKCXUWAajSOaucVl2vafQOlcmVmXG'
p868
I1
sS'21701'
p869
I1
sS'newSimContainer'
p870
I7
sS'1YET6DW1MKPNT93QKW0C'
p871
I2
sS'ie'
p872
I209
sS'id'
p873
I145
sS'7031433011'
p874
I1
sS'58mm'
p875
I4
sS'isJpOrCn'
p876
I3
sS'2Byh'
p877
I1
sS'01h78L'
p878
I2
sS'Gear'
p879
I25
sS'5550342011'
p880
I4
sS'11091801'
p881
I2
sS'make'
p882
I4
sS'2FJHaBRAZG'
p883
I1
sS'NaN'
p884
I1
sS'getElementById'
p885
I1
sS'TomTom'
p886
I21
sS'2FaG'
p887
I1
sS'13423555011'
p888
I1
sS'V2'
p889
I18
sS'2FmCgikgI7'
p890
I1
sS'split'
p891
I4
sS'B00N9E6DUK'
p892
I5
sS'fadeOut'
p893
I3
sS'iA'
p894
I1
sS'adjustSimMargin'
p895
I3
sS'homekitchen'
p896
I2
sS'2FaxwtLAO4BcL3mQPHzBYPoERJtYnzi'
p897
I1
sS'2BfHofY6hxEOUKGJMgHND'
p898
I1
sS'eBooks'
p899
I3
sS'templates'
p900
I4
sS'flyout2'
p901
I1
sS'B015E8U6EM'
p902
I5
sS'Less'
p903
I1
sS'unlimited'
p904
I1
sS'Computing'
p905
I1
sS'B0091X3B6M'
p906
I2
sS'McPhee'
p907
I1
sS'VR'
p908
I12
sS'2BGErPRlMkez8TnzstPFo3P66UQYO6LyoUYfzPX0h0m269Mk33STE1RifhKWArsJcp'
p909
I1
sS'L840'
p910
I2
sS'3044029242'
p911
I1
sS'Home'
p912
I37
sS'scaleXY'
p913
I3
sS'auiPreloadIndex'
p914
I8
sS'2FAChopKhhph63KWq8qZrIOV1TS7f0lJ'
p915
I1
sS'gwLayoutReady'
p916
I1
sS'RJtziZ27moC1QVFfRl42703Baf87pX0SEG7BI7hLM4iOrFduiZweCcJqi7EEihZfw'
p917
I1
sS'2FAwEGQdRKVrpQwvzVJFAnox'
p918
I1
sS'simsDetails'
p919
I8
sS'20V'
p920
I15
sS'SportsOutdoorsT1Panel'
p921
I2
sS'Ion'
p922
I19
sS'Monitors'
p923
I1
sS'DCR015'
p924
I3
sS'8859'
p925
I1
sS'AmazonBasics'
p926
I12
sS'endif'
p927
I3
sS'Table'
p928
I4
sS'Clothing'
p929
I8
sS'33'
p930
I2
sS'2956501011'
p931
I1
sS'left'
p932
I40
sS'Light'
p933
I1
sS'5X'
p934
I6
sS'just'
p935
I2
sS'photo'
p936
I2
sS'sporting'
p937
I4
sS'transientFlyoutTrigger'
p938
I1
sS'mid'
p939
I2
sS'D\xc3\xa9cor'
p940
I2
sS'0547ZB7P0XDAKA97W3C6'
p941
I1
sS'CB253690767'
p942
I1
sS'Pets'
p943
I3
sS'61K4113rPnL'
p944
I2
sS'B0045PQ762'
p945
I3
sS'yes'
p946
I2
sS'signOutText'
p947
I1
sS'noscript'
p948
I2
sS'collectibles'
p949
I2
sS'amazonfresh'
p950
I1
sS'2B3q1Tj5BUwqXkw'
p951
I1
sS'5x'
p952
I2
sS'Offer'
p953
I1
sS'tagline'
p954
I1
sS'USMediaDetailPageMetaAsset'
p955
I4
sS'Trident'
p956
I1
sS'5s'
p957
I8
sS'CBFOOT'
p958
I1
sS'yoyo'
p959
I1
sS'easy'
p960
I1
sS'D26451'
p961
I3
sS'configComplete'
p962
I1
sS'has'
p963
I1
sS'c44dea2481a4b39b62e69c43a79a10a07dfdbd05'
p964
I2
sS'GNOflyout'
p965
I1
sS'fadeIn'
p966
I1
sS'B017S0RMSW'
p967
I1
sS'book'
p968
I1
sS'B015E8UHY6'
p969
I5
sS'D'
p970
I5
sS'tabletAltText'
p971
I20
sS'mktid'
p972
I1
sS'6990'
p973
I1
sS'2FIt6t5jolO61'
p974
I1
sS'Morning'
p975
I3
sS'Try'
p976
I2
sS'yourAccountPrimeHover'
p977
I1
sS'Sparkling'
p978
I1
sS'background'
p979
I19
sS'G6QVwOlFuL2sEOUCaqhR0kmnS8IzDhNRdXC7DMy4qt'
p980
I1
sS'59'
p981
I2
sS'shadow'
p982
I1
sS'Audible'
p983
I9
sS'weBoost'
p984
I6
sS'Wine'
p985
I4
sS'Heart'
p986
I6
sS'759498'
p987
I1
sS'Art'
p988
I3
sS'2FXZzNaChO4vj8EW26RNDI1Izh'
p989
I1
sS'gift'
p990
I7
sS'yourAccountPrimeURL'
p991
I1
sS'55'
p992
I8
sS'54'
p993
I2
sS'2992'
p994
I1
sS'56'
p995
I2
sS'51'
p996
I7
sS'50'
p997
I7
sS'Echo'
p998
I11
sS'Nexus'
p999
I10
sS'535'
p1000
I1
sS'metaKey'
p1001
I1
sS'avatar'
p1002
I5
sS'531'
p1003
I4
sS'528x340'
p1004
I2
sS'2B9Bh0DtBxdsflWlzlVh4TVuA'
p1005
I1
sS'Health'
p1006
I10
sS'61CTxUZg1bL'
p1007
I1
sS'47524'
p1008
I2
sS'Dwayne'
p1009
I1
sS'titlebar'
p1010
I1
sS'538'
p1011
I1
sS'CB327533540'
p1012
I4
sS'soccer'
p1013
I2
sS'www'
p1014
I65
sS'right'
p1015
I43
sS'old'
p1016
I1
sS'cmuAnnotations'
p1017
I3
sS'yourAccountContent'
p1018
I2
sS'HR'
p1019
I2
sS'ftGr'
p1020
I24
sS'HP'
p1021
I6
sS'kxeoxWhpw9LFP6fuMd1aVMEUgLPxWTAXXj9t'
p1022
I1
sS'CB286457568'
p1023
I1
sS'0EBCMD8E4VNRCTSRETSZ'
p1024
I3
sS'promo1'
p1025
I2
sS'DCK592L2'
p1026
I8
sS'MP3'
p1027
I6
sS'billboard'
p1028
I12
sS'delegateToInitSearchCsl'
p1029
I1
sS'animate'
p1030
I2
sS'52'
p1031
I3
sS'HD'
p1032
I5
sS'redirector'
p1033
I4
sS'Life'
p1034
I10
sS'01IYJsHQbtL'
p1035
I6
sS'2BiKsBDSpZqcpE2ryAUMJomB5DeSHe8ynbuuMhQnKEVt'
p1036
I1
sS'Sling'
p1037
I7
sS'bottom'
p1038
I8
sS'Downloads'
p1039
I3
sS'normal'
p1040
I167
sS'3Amobile'
p1041
I1
sS'Gifts'
p1042
I4
sS'209'
p1043
I1
sS'Lift'
p1044
I4
sS'Let'
p1045
I1
sS'listitem'
p1046
I6
sS'2FLQhbvQhO6YWGDKf7nL'
p1047
I1
sS'2Fuqgm1MFkrDvcR8mx'
p1048
I1
sS'Chris'
p1049
I1
sS'400px'
p1050
I2
sS'isPrimeMember'
p1051
I1
sS'422'
p1052
I1
sS'loadDescendantImagesManually'
p1053
I8
sS'424'
p1054
I1
sS'1391'
p1055
I3
sS'426'
p1056
I1
sS'2F8tEX7gAbDNiJya8mrmrWAl28WxVIWV221XH5Wvz5CbP'
p1057
I1
sS'Gray'
p1058
I20
sS'School'
p1059
I2
sS'2335752011'
p1060
I1
sS'Instant'
p1061
I12
sS'bold'
p1062
I4
sS'trafficdrivers'
p1063
I2
sS'subscriptions'
p1064
I1
sS'marketing'
p1065
I2
sS'shogun'
p1066
I25
sS'2BFJjUOcNoxzBqUWXdXGeEi'
p1067
I1
sS'1000000px'
p1068
I2
sS'READY'
p1069
I4
sS'26546'
p1070
I1
sS'lamps'
p1071
I1
sS'bolt'
p1072
I1
sS'sugText'
p1073
I1
sS'0px'
p1074
I6
sS'CyberMonday'
p1075
I8
sS'properties'
p1076
I5
sS'11051400011'
p1077
I1
sS'2FaAZQgpuzAALC8AFoA3aNw'
p1078
I1
sS'obj'
p1079
I5
sS'extractAfterRefPart'
p1080
I5
sS'2FNsVc9XBB1Ng23O51T'
p1081
I1
sS'Fine'
p1082
I2
sS'Image'
p1083
I6
sS'PdbBinder'
p1084
I2
sS'Men\xe2\x80\x99s'
p1085
I1
sS'o'
p1086
I18
sS'openArgs'
p1087
I3
sS'browse'
p1088
I6
sS'h5TQVSzL'
p1089
I4
sS'USSoftlinesDetailPageMetaAsset'
p1090
I4
sS'DIGIC'
p1091
I2
sS'GroceryHealthBeautyPanel'
p1092
I2
sS'CB288018081'
p1093
I1
sS'connected'
p1094
I2
sS'D3300'
p1095
I2
sS'gwCFImgCache'
p1096
I1
sS'sprites'
p1097
I8
sS'Best'
p1098
I3
sS'41cBeRv8gIL'
p1099
I6
sS'2B6kg'
p1100
I1
sS'Use'
p1101
I2
sS'Cut'
p1102
I6
sS'CB288328659'
p1103
I2
sS'subs'
p1104
I1
sS'Make'
p1105
I1
sS'float'
p1106
I3
sS'visible'
p1107
I4
sS'Little'
p1108
I3
sS'41Xh87ytUrL'
p1109
I6
sS'containerWidth'
p1110
I3
sS'rendering'
p1111
I9
sS'currentPageURL'
p1112
I4
sS'sLMRG3AnDtNlucc4'
p1113
I1
sS'ppu'
p1114
I90
sS'oI42JJL'
p1115
I5
sS'2HAOCcxa2'
p1116
I1
sS'jEMwuzUeqZFYWX1mWrdsTa'
p1117
I1
sS'B00ZYYDY5A'
p1118
I5
sS'LzPbWL8Tfi'
p1119
I1
sS'19293'
p1120
I2
sS'2FsbYE14d6YTDW3uLVKNKUNm3qApz3DIyGDKtXe9A2aT1nPUWLZa6641OTa92dTHExPXCN3PTCMOLFtNwwewIqbCYRrHk7zydptfaYSckfofF2CWeEwTiWdZg'
p1121
I1
sS'Selling'
p1122
I2
sS'ATTR'
p1123
I1
sS'wag'
p1124
I1
sS'navDebugHighres'
p1125
I1
sS'\xc2\xa9'
p1126
I1
sS'76e55d81f35280fc838ea77e4f62740c555e47ba'
p1127
I1
sS'ACCESSIBILITY'
p1128
I1
sS'13423558011'
p1129
I1
sS'Hand'
p1130
I3
sS'gif'
p1131
I30
sS'55315'
p1132
I1
sS'rw'
p1133
I3
sS'way'
p1134
I1
sS'HS'
p1135
I3
sS'Shopbop'
p1136
I2
sS'call'
p1137
I3
sS'Toolbox'
p1138
I6
sS'2BTL'
p1139
I6
sS'ngzFrDL'
p1140
I2
sS'B00GDQ0RMG'
p1141
I3
sS'head'
p1142
I3
sS'medium'
p1143
I88
sS'form'
p1144
I4
sS'56849'
p1145
I1
sS'Aqua'
p1146
I6
sS'landing'
p1147
I1
sS'System'
p1148
I4
sS'wireless'
p1149
I1
sS'228'
p1150
I2
sS'227'
p1151
I1
sS'226'
p1152
I2
sS'225'
p1153
I2
sS'Z'
p1154
I15
sS'223'
p1155
I2
sS'221'
p1156
I2
sS'220'
p1157
I165
sS'attr'
p1158
I10
sS'upnavHighResImgInfo'
p1159
I1
sS'imagesToBeLoaded'
p1160
I8
sS'B00LRK8JDC'
p1161
I5
sS'322215011'
p1162
I1
sS'Household'
p1163
I1
sS'41OoL'
p1164
I6
sS'devices'
p1165
I2
sS'amazonglobal'
p1166
I1
sS'2Bdk0EW3'
p1167
I1
sS'Volt'
p1168
I32
sS'Fixed'
p1169
I3
sS'unrec'
p1170
I8
sS'decorate'
p1171
I3
sS'lawngarden'
p1172
I2
sS'20px'
p1173
I2
sS'DW735X'
p1174
I6
sS'productdb'
p1175
I11
sS'closePopover'
p1176
I3
sS'151'
p1177
I1
sS'150'
p1178
I5
sS'requiresSignIn'
p1179
I1
sS'sidekick'
p1180
I27
sS'Superhero'
p1181
I4
sS'154'
p1182
I2
sS'B015JQ62RY'
p1183
I5
sS'item'
p1184
I263
sS'Personal'
p1185
I5
sS'158'
p1186
I1
sS'VineMarket'
p1187
I1
sS'B00OI7J214'
p1188
I2
sS'scientific'
p1189
I1
sS'2F3ULLVtjU'
p1190
I1
sS'exist'
p1191
I1
sS'dynamicMenuArgs'
p1192
I1
sS'B00NUWU3FW'
p1193
I5
sS'Mom'
p1194
I1
sS'B016LMQDVU'
p1195
I1
sS'floor'
p1196
I1
sS'na'
p1197
I61
sS'alerts'
p1198
I1
sS'handmade'
p1199
I10
sS'ne'
p1200
I1
sS'26sc'
p1201
I1
sS'14px'
p1202
I2
sS'role'
p1203
I35
sS'digital'
p1204
I32
sS'warehouse'
p1205
I1
sS'Groceries'
p1206
I1
sS'ns'
p1207
I60
sS'2BNkU5NBopYbJan4nThVIwijuLYFMIto'
p1208
I1
sS'shows'
p1209
I2
sS'2Fn7pQLdjZiMKs'
p1210
I1
sS'searchAliasDisplayNameAccessor'
p1211
I1
sS'04KZTVEM9ZQYZJYF7PJK'
p1212
I4
sS'E'
p1213
I9
sS'51CtASSB4UL'
p1214
I6
sS'HOL'
p1215
I5
sS'welcome'
p1216
I2
sS'Drive'
p1217
I8
sS'2FkQnEoKKXw8xTW6eYajwHkQeS'
p1218
I1
sS'trailers'
p1219
I1
sS'2FbrUqIl'
p1220
I1
sS'B015N8XR9O'
p1221
I5
sS'triggerTime'
p1222
I1
sS'2B1jgDjXy'
p1223
I1
sS'querySelector'
p1224
I2
sS'3A7147442011'
p1225
I1
sS'fo2IbAL'
p1226
I3
sS'isPrime'
p1227
I87
sS'computersaccessories'
p1228
I2
sS'2F8Kk69HBTI9sDia1oCTtm287IFWyco'
p1229
I1
sS'frameborder'
p1230
I1
sS'flyoutElement'
p1231
I3
sS'409566'
p1232
I1
sS'500x490'
p1233
I1
sS'AmazonFresh'
p1234
I2
sS'2BHLyJJLjFaz'
p1235
I1
sS'sportsfitness'
p1236
I2
sS'phone'
p1237
I2
sS'41mTUCUiXiL'
p1238
I2
sS'2901953011'
p1239
I1
sS'8LyHoTI03L2B9iqcFeuaVh3l'
p1240
I1
sS'2BvYo0OKwsYSJXhCWPsCg'
p1241
I1
sS'9538492011'
p1242
I1
sS'pet'
p1243
I2
sS'time'
p1244
I1
sS'push'
p1245
I9
sS'mp3'
p1246
I1
sS'Paperwhite'
p1247
I1
sS'dismissNotificationUrl'
p1248
I1
sS'Web'
p1249
I3
sS'sourceName'
p1250
I1
sS'B00CD9JNNQ'
p1251
I2
sS'global'
p1252
I7
sS'focus'
p1253
I1
sS'Desktop'
p1254
I1
sS'EOS'
p1255
I8
sS'CB286432521'
p1256
I1
sS'CB288328656'
p1257
I5
sS'Leading'
p1258
I8
sS'8521791011'
p1259
I1
sS'DW1354'
p1260
I3
sS'B0052MIJB8'
p1261
I5
sS'Today'
p1262
I1
sS'row'
p1263
I28
sS'21XCQ17CCqL'
p1264
I2
sS'429'
p1265
I1
sS'fgID'
p1266
I5
sS'one'
p1267
I2
sS'essentials'
p1268
I1
sS'CB353754787'
p1269
I2
sS'B003OX9KME'
p1270
I5
sS'B00D7LN7K4'
p1271
I5
sS'attachEvent'
p1272
I6
sS'Jobsite'
p1273
I9
sS'0'
p1274
I641
sS'HomeGardenToolsPanel'
p1275
I2
sS'Lighting'
p1276
I1
sS'2BO5L0GiQD0R'
p1277
I1
sS'2FHBdtyRaGC'
p1278
I1
sS'CB196325517'
p1279
I1
sS'3A7141123011'
p1280
I6
sS'Day'
p1281
I2
sS'External'
p1282
I7
sS'Plug'
p1283
I1
sS'2Bxng'
p1284
I1
sS'string'
p1285
I1
sS'Pros'
p1286
I1
sS'LCD'
p1287
I22
sS'trident'
p1288
I10
sS'Recruit'
p1289
I3
sS'59797'
p1290
I2
sS'110F76847631005217D30AF433AFEFBA5333ACC03'
p1291
I1
sS'Plus'
p1292
I8
sS'anonymous'
p1293
I1
sS'420'
p1294
I2
sS'Hannibal'
p1295
I1
sS'2FAabOjbD'
p1296
I1
sS'423'
p1297
I1
sS'11260432011'
p1298
I1
sS'1994'
p1299
I2
sS'154606011'
p1300
I1
sS'Secure'
p1301
I1
sS'Kingdom'
p1302
I1
sS'gui'
p1303
I1
sS'1996'
p1304
I1
sS'Canon'
p1305
I19
sS'11443874011'
p1306
I1
sS'standards'
p1307
I10
sS'signin'
p1308
I18
sS'p'
p1309
I61
sS'Inc'
p1310
I1
sS'Accounts'
p1311
I1
sS'2Fb9uQ4rSKTauBPHlp4dt'
p1312
I1
sS'sidepanel'
p1313
I1
sS'div'
p1314
I475
sS'holiday2015'
p1315
I14
sS'Systems'
p1316
I1
sS'Sander'
p1317
I3
sS'mn'
p1318
I1
sS'fff'
p1319
I3
sS'PJStripe'
p1320
I90
sS'Tablet'
p1321
I1
sS'2312228922'
p1322
I2
sS'bluray3d'
p1323
I1
sS'htm'
p1324
I2
sS'htl'
p1325
I3
sS'cyber'
p1326
I4
sS'Dust'
p1327
I2
sS'M4'
p1328
I4
sS'CreateSpace'
p1329
I1
sS'Rick'
p1330
I1
sS'defineProperty'
p1331
I1
sS'Enthusiasm'
p1332
I1
sS'ftvs'
p1333
I7
sS'Red'
p1334
I4
sS'pIdent'
p1335
I5
sS'1266092011'
p1336
I1
sS'cnttId'
p1337
I5
sS'Subscriptions'
p1338
I1
sS'Automotive'
p1339
I12
sS'signInTooltip'
p1340
I1
sS'Ford'
p1341
I1
sS'current'
p1342
I1
sS'transform3d'
p1343
I1
sS'B0178GE4FU'
p1344
I5
sS'520'
p1345
I1
sS'Imaging'
p1346
I2
sS'522'
p1347
I8
sS'Webkit'
p1348
I1
sS'order'
p1349
I3
sS'528'
p1350
I7
sS'529'
p1351
I1
sS'filled'
p1352
I4
sS'B00MR9UWVO'
p1353
I1
sS'shopAllTimeout'
p1354
I1
sS'B00I3MNF6S'
p1355
I1
sS'auiStarClassMedium'
p1356
I85
sS'DC825B'
p1357
I6
sS'51JyzovMzpL'
p1358
I1
sS'CB288120528'
p1359
I2
sS'dropdown'
p1360
I4
sS'Age'
p1361
I4
sS'Ink'
p1362
I1
sS'elementClass'
p1363
I4
sS'postslateImgHeight'
p1364
I1
sS'UX3375'
p1365
I1
sS'6131423011'
p1366
I1
sS'DSL'
p1367
I1
sS'test'
p1368
I8
sS'2FLKCow7Dq7pp7tRPPBPxciN8X9'
p1369
I1
sS'306'
p1370
I1
sS'11iJ0nQtHQL'
p1371
I6
sS'B007QUZ020'
p1372
I7
sS'createSimImg'
p1373
I2
sS'issSearchAliases'
p1374
I1
sS'toolbar'
p1375
I1
sS'box'
p1376
I7
sS'createspace'
p1377
I1
sS'2BRYre4O60biqsHpFXPoWseMmPToaLN0nfVQ'
p1378
I1
sS'hhgg'
p1379
I1
sS'Garage'
p1380
I2
sS'lazy'
p1381
I5
sS'shift'
p1382
I1
sS'createSimContainer'
p1383
I2
sS'Orphan'
p1384
I1
sS'59374'
p1385
I2
sS'Janitorial'
p1386
I1
sS'2FfvIvczYDSoEEzGyZPOx6mKA'
p1387
I1
sS'445977762'
p1388
I1
sS'Session'
p1389
I26
sS'20mm'
p1390
I4
sS'MP'
p1391
I8
sS'439'
p1392
I1
sS'437'
p1393
I1
sS'junglee'
p1394
I1
sS'navigation'
p1395
I14
sS'433'
p1396
I1
sS'feedCarousel'
p1397
I16
sS'431'
p1398
I3
sS'CB293071567'
p1399
I2
sS'Policies'
p1400
I1
sS'searchapiEndpoint'
p1401
I1
sS'extra'
p1402
I4
sS'2617941011'
p1403
I1
sS'87b069b255db02b4805f7e714b617f8f'
p1404
I1
sS'228013'
p1405
I2
sS'14CAEQEBJ8RNB1X37CC5'
p1406
I1
sS'E5pQiy2nVt4r'
p1407
I1
sS'Abbey'
p1408
I1
sS'clientWidth'
p1409
I1
sS'170px'
p1410
I6
sS'11030448011'
p1411
I1
sS'89'
p1412
I3
sS'BeautyBar'
p1413
I1
sS'2FkSISuAeESlulsJsUtlpICho78R5Ix6Fd'
p1414
I1
sS'Import'
p1415
I3
sS'should'
p1416
I1
sS'678551011'
p1417
I1
sS'downloads'
p1418
I1
sS'2FkaRS01FMj5ltPzAg7o3XE'
p1419
I1
sS'ayo'
p1420
I1
sS'Australia'
p1421
I1
sS'Kit'
p1422
I32
sS'handbags'
p1423
I1
sS'2B89IE3YIGSOJ'
p1424
I1
sS'UTF8'
p1425
I353
sS'CB192250692'
p1426
I2
sS'CB192250694'
p1427
I2
sS'11851273011'
p1428
I1
sS'sports'
p1429
I10
sS'Nikon'
p1430
I21
sS'2FwbQ'
p1431
I1
sS'stylesheet'
p1432
I1
sS'Visa'
p1433
I2
sS'itemList'
p1434
I24
sS'https'
p1435
I98
sS'msg'
p1436
I2
sS'scope'
p1437
I12
sS'prev'
p1438
I1
sS'checkout'
p1439
I3
sS'Redford'
p1440
I1
sS'RetailSearchAssets'
p1441
I8
sS'2BGXiqsqkq3KolFxsKsKy0K'
p1442
I1
sS'12V'
p1443
I2
sS'F'
p1444
I2
sS'AUI'
p1445
I19
sS'suggestions'
p1446
I1
sS'Mount'
p1447
I4
sS'buyingPrice'
p1448
I1
sS'Pitt'
p1449
I1
sS'Bed'
p1450
I1
sS'Bee'
p1451
I3
sS'invocation'
p1452
I1
sS'2BbqFKsGd7vowp4LVyUZQo2Rt'
p1453
I1
sS'Affiliate'
p1454
I1
sS'41Ne7lldrjL'
p1455
I6
sS'Brad'
p1456
I1
sS'Retail'
p1457
I22
sS'fly'
p1458
I1
sS'ontouchend'
p1459
I2
sS'Strong'
p1460
I2
sS'createSVGRect'
p1461
I1
sS'Family'
p1462
I3
sS'currency'
p1463
I1
sS'car'
p1464
I1
sS'CBCCGNO'
p1465
I1
sS'2B7Ye'
p1466
I1
sS'patiolawngarden'
p1467
I2
sS'Bath'
p1468
I4
sS'reviews'
p1469
I185
sS'Locks'
p1470
I1
sS'2Fp4l5PmvourSPKuHdw4LURTgJH6YaWbyioMkzJuQMGuPkcvoQLPvanOhnclp3IBbVJXkDhe'
p1471
I1
sS'printing'
p1472
I1
sS'Appliances'
p1473
I3
sS'SY660'
p1474
I111
sS'Motorcycle'
p1475
I2
sS'Our'
p1476
I2
sS'2447856011'
p1477
I1
sS'41Mrj6h7BNL'
p1478
I5
sS'Out'
p1479
I6
sS'7px'
p1480
I1
sS'19243'
p1481
I3
sS'2BabG3F6NWGr'
p1482
I2
sS'B00O4B72C0'
p1483
I7
sS'topic'
p1484
I1
sS'Score'
p1485
I1
sS'238'
p1486
I2
sS'browsePromos'
p1487
I1
sS'01rgQ3jqo7L'
p1488
I6
sS'235'
p1489
I1
sS'Sweepstakes'
p1490
I7
sS'237'
p1491
I3
sS'clothing'
p1492
I8
sS'231'
p1493
I2
sS'232'
p1494
I2
sS'233'
p1495
I4
sS'V337321878'
p1496
I1
sS'31TzmwTkVDL'
p1497
I2
sS'468520'
p1498
I1
sS'winter'
p1499
I2
sS'bestseller'
p1500
I2
sS'2FDGjNlIYQV6nkgAXpsJZ8gf5zDGMjQ'
p1501
I1
sS'charset'
p1502
I2
sS'searchDropdown'
p1503
I1
sS'S33'
p1504
I2
sS'1'
p1505
I520
sS'8px'
p1506
I1
sS'Rebel'
p1507
I7
sS'B0163CHND0'
p1508
I5
sS'41DWrjNpgXL'
p1509
I6
sS'Bare'
p1510
I9
sS'autofocus'
p1511
I2
sS'subsidiaries'
p1512
I1
sS'divider'
p1513
I7
sS'2FcVzgo1jGU50b'
p1514
I1
sS'2858778011'
p1515
I5
sS'146'
p1516
I1
sS'map'
p1517
I148
sS'product'
p1518
I243
sS'plattr'
p1519
I6
sS'599858'
p1520
I1
sS'143'
p1521
I2
sS'141'
p1522
I2
sS'max'
p1523
I17
sS'Guarantee'
p1524
I2
sS'its'
p1525
I1
sS'tryInitClientTriggeredWeblabs'
p1526
I3
sS'149'
p1527
I7
sS'KWrL'
p1528
I6
sS'membership'
p1529
I1
sS'birthday'
p1530
I2
sS'browsers'
p1531
I1
sS'4500'
p1532
I2
sS'date'
p1533
I2
sS'rows'
p1534
I1
sS'primeMenuWidth'
p1535
I1
sS'01UytMcKM7L'
p1536
I2
sS'data'
p1537
I373
sS'View'
p1538
I4
sS'Exclusive'
p1539
I1
sS'climbing'
p1540
I1
sS'sx'
p1541
I3
sS'Banderas'
p1542
I1
sS'Shoes'
p1543
I7
sS'amznjq'
p1544
I4
sS'Toy'
p1545
I1
sS'Cardio'
p1546
I6
sS'sq'
p1547
I4
sS'10166275011'
p1548
I1
sS'translateZ'
p1549
I1
sS'sv'
p1550
I8
sS'q'
p1551
I18
sS'2FFIBnt3dAPTJwUMhkOHYZilmN9KFDXWDsLQdvEMYL'
p1552
I1
sS'Catching'
p1553
I3
sS'Radio'
p1554
I3
sS'gamma'
p1555
I9
sS'sc'
p1556
I3
sS'sa'
p1557
I82
sS'sg'
p1558
I3
sS'sf'
p1559
I1
sS'opts'
p1560
I22
sS'B00OQVZDJM'
p1561
I1
sS'exclusive'
p1562
I1
sS'presentation'
p1563
I1
sS'21PJbL'
p1564
I6
sS'shoes'
p1565
I11
sS'Hunting'
p1566
I2
sS'55262'
p1567
I1
sS'keydownCtw'
p1568
I5
sS'57326'
p1569
I2
sS'merchandised'
p1570
I2
sS'2238192011'
p1571
I1
sS'36px'
p1572
I3
sS'9QiWQVTp3g9OPx'
p1573
I1
sS'tablets'
p1574
I2
sS'nbsp'
p1575
I9
sS'281052'
p1576
I1
sS'usemap'
p1577
I6
sS'actionUrl'
p1578
I2
sS'KEQVfv8fObnbBBZznYiRuj373oAOflA3U7qRLpMJ477AZEOH'
p1579
I1
sS'White'
p1580
I23
sS'auiPreloadJS'
p1581
I2
sS'pointer'
p1582
I1
sS'swvgdtt'
p1583
I1
sS'equiv'
p1584
I1
sS'thumb'
p1585
I8
sS'scrolling'
p1586
I1
sS'41CGeUFj33L'
p1587
I6
sS'MYHABIT'
p1588
I2
sS'Unlimited'
p1589
I7
sS'Hair'
p1590
I2
sS'SILVER'
p1591
I20
sS'B009MA3GXM'
p1592
I2
sS'platform'
p1593
I2
sS'window'
p1594
I161
sS'kssMd82tpDiaQMd'
p1595
I1
sS'RC'
p1596
I17
sS'World'
p1597
I3
sS'2FNk8t1X'
p1598
I2
sS'main'
p1599
I2
sS'2FWNEPwbZNWPhtiivm4EKOVdbfXo1Cd'
p1600
I1
sS'2FMwRNWRY2VJhUOmqJHiRXD1QxysT9K5LKg'
p1601
I1
sS'ciuCSS'
p1602
I2
sS'11403480011'
p1603
I1
sS'non'
p1604
I7
sS'ei'
p1605
I1
sS'Turtles'
p1606
I4
sS'27485'
p1607
I1
sS'matches'
p1608
I2
sS'removeEventListener'
p1609
I1
sS'Compatible'
p1610
I8
sS'2205237011'
p1611
I1
sS'2241292011'
p1612
I1
sS'c45500'
p1613
I1
sS'EDITORIAL'
p1614
I5
sS'2Fe7gqNP9J'
p1615
I1
sS'AmazonUI'
p1616
I18
sS'now'
p1617
I9
sS'2FCqG'
p1618
I1
sS'12388'
p1619
I3
sS'execute'
p1620
I50
sS'Desktops'
p1621
I2
sS'name'
p1622
I83
sS'11525244011'
p1623
I1
sS'III'
p1624
I2
sS'autoCrop'
p1625
I3
sS'navFooterVerticalColumn'
p1626
I1
sS'Watches'
p1627
I1
sS'2Fspecs'
p1628
I8
sS'1001423601'
p1629
I1
sS'ajaxProximity'
p1630
I1
sS'UrTpPut3ZaIvXjeO15jeTrjv818pUF'
p1631
I1
sS'0XFVSE62Z7W5EM084NZ8'
p1632
I3
sS'2BF7HKriiRAxO7MY'
p1633
I1
sS'quicklook'
p1634
I1
sS'AmazonGatewayHerotatorJS'
p1635
I2
sS'magazines'
p1636
I5
sS'cgLL'
p1637
I2
sS'goodreads'
p1638
I1
sS'DW660'
p1639
I6
sS'B00MQOZETK'
p1640
I3
sS'13948'
p1641
I1
sS'264px'
p1642
I5
sS'en'
p1643
I7
sS'retrieve'
p1644
I5
sS'f2f2f2'
p1645
I1
sS'Broadband'
p1646
I1
sS'2BE10rejSGDw'
p1647
I1
sS'51Tdmu3B3RL'
p1648
I5
sS'Multi'
p1649
I6
sS'Battery'
p1650
I14
sS'0HSGHVVYKJAGVQFH2M5T'
p1651
I3
sS'2Fb'
p1652
I1
sS'Live'
p1653
I1
sS'replay'
p1654
I2
sS'41WGPwDB1LL'
p1655
I5
sS'Save'
p1656
I12
sS'2Fpape'
p1657
I2
sS'Finder'
p1658
I16
sS'album'
p1659
I2
sS'B004SL30RC'
p1660
I5
sS'canvas'
p1661
I2
sS'ACX'
p1662
I1
sS'container'
p1663
I11
sS'1645223338'
p1664
I1
sS'Mexico'
p1665
I1
sS'2FZ'
p1666
I1
sS'hoverText'
p1667
I85
sS'B0009WRKUM'
p1668
I3
sS'Diapers'
p1669
I1
sS'01OjVrFGeBL'
p1670
I2
sS'2FC'
p1671
I1
sS'b01ff9981c6fa9d52d797ad0c77bb16b90778760'
p1672
I1
sS'Job'
p1673
I4
sS'Connected'
p1674
I1
sS'11051398011'
p1675
I1
sS'Key'
p1676
I4
sS'B00I15SB16'
p1677
I1
sS'B002RT7K4Q'
p1678
I5
sS'montoya'
p1679
I1
sS'2F6dik1F6d8D7H9U7p8hjuTT2RaWLuXU6BWygJs0ZtT8YwpF7W9cFwroBzwI0k7jW1pZ5UUQASH0gZu2Jfk4zTLNm4rtTL5UuNEdRHX1QbumnmuAGx5NaI'
p1680
I1
sS'Booster'
p1681
I16
sS'2F2'
p1682
I7
sS'2F1'
p1683
I2
sS'after'
p1684
I1
sS'END'
p1685
I7
sS'G'
p1686
I243
sS'Samsung'
p1687
I41
sS'cartFlyoutDisabled'
p1688
I1
sS'13889001'
p1689
I1
sS'8GB'
p1690
I4
sS'cart'
p1691
I57
sS'41vDvOiMqmL'
p1692
I6
sS'ajax'
p1693
I20
sS'cItem'
p1694
I7
sS'Stand'
p1695
I4
sS'One'
p1696
I16
sS'org'
p1697
I5
sS'KindleFireTabletPanel'
p1698
I2
sS'FW7RNi4e8fULJK2IH'
p1699
I1
sS'card'
p1700
I146
sS'care'
p1701
I7
sS'TenMarks'
p1702
I1
sS'rewardscardmember'
p1703
I2
sS'Videos'
p1704
I1
sS'2BGztw5KM6D'
p1705
I1
sS'Money'
p1706
I1
sS'shopall'
p1707
I1
sS'transition'
p1708
I2
sS'nofollow'
p1709
I2
sS'Sign'
p1710
I10
sS'519'
p1711
I19
sS'518'
p1712
I5
sS'2BQOFo'
p1713
I1
sS'place'
p1714
I2
sS'DW2587'
p1715
I6
sS'Touch'
p1716
I5
sS'510'
p1717
I2
sS'513'
p1718
I1
sS'512'
p1719
I1
sS'515'
p1720
I1
sS'514'
p1721
I1
sS'517'
p1722
I2
sS'first'
p1723
I11
sS'Brazil'
p1724
I1
sS'Giant'
p1725
I4
sS'adSnippet'
p1726
I1
sS'CB288286134'
p1727
I7
sS'B011FPHXYY'
p1728
I5
sS'624'
p1729
I2
sS'wlab'
p1730
I1
sS'1X'
p1731
I2
sS'Deluxe'
p1732
I2
sS'There'
p1733
I3
sS'11722'
p1734
I1
sS'Zappos'
p1735
I1
sS'transform'
p1736
I3
sS'price'
p1737
I285
sS'Start'
p1738
I4
sS'Ah'
p1739
I4
sS'Black'
p1740
I80
sS'submit'
p1741
I6
sS'Pure'
p1742
I4
sS'spanish'
p1743
I1
sS'Inch'
p1744
I45
sS'zBoost'
p1745
I6
sS'message'
p1746
I2
sS'Cordless'
p1747
I21
sS'open'
p1748
I1
sS'errorWishlist'
p1749
I1
sS'size'
p1750
I24
sS'B00RHMFQSA'
p1751
I5
sS'B015FEFK8W'
p1752
I5
sS'responsiveTouchAgents'
p1753
I1
sS'exists'
p1754
I1
sS'Monday'
p1755
I16
sS'width'
p1756
I142
sS'1x'
p1757
I28
sS'5745855011'
p1758
I1
sS'Bundle'
p1759
I65
sS'afterschool'
p1760
I1
sS'returns'
p1761
I1
sS'2'
p1762
I94
sS'params'
p1763
I7
sS'carousel'
p1764
I214
sS'whfh'
p1765
I1
sS'Date'
p1766
I2
sS'1h'
p1767
I1
sS'white'
p1768
I6
sS'Allowance'
p1769
I1
sS'2F7p2X6u7wL'
p1770
I1
sS'nutrition'
p1771
I1
sS'2F2YZQ'
p1772
I1
sS'41haBzdhnXL'
p1773
I6
sS'2FXxMgvWf8C0Lt130Qd631ji5czswKgaSgrtuFsHwILaNn3TRFIt'
p1774
I1
sS'purchase'
p1775
I2
sS'responsiveGW'
p1776
I1
sS'Storage'
p1777
I8
sS'hasPanel'
p1778
I1
sS'cmdw'
p1779
I6
sS'Enabled'
p1780
I33
sS'1287'
p1781
I3
sS'padding'
p1782
I15
sS'Install'
p1783
I1
sS'posinset'
p1784
I6
sS'Grooming'
p1785
I2
sS'copy'
p1786
I1
sS'EastDane'
p1787
I1
sS'png'
p1788
I45
sS'41XcDHElLoL'
p1789
I6
sS'11'
p1790
I14
sS'10'
p1791
I30
sS'13'
p1792
I5
sS'12'
p1793
I9
sS'15'
p1794
I9
sS'14'
p1795
I11
sS'17'
p1796
I3
sS'16'
p1797
I10
sS'19'
p1798
I3
sS'18'
p1799
I35
sS'footer'
p1800
I3
sS'Downton'
p1801
I1
sS'CB288910700'
p1802
I1
sS'Deliveries'
p1803
I2
sS'Analytics'
p1804
I1
sS'r'
p1805
I39
sS'Brake'
p1806
I4
sS'cards'
p1807
I3
sS'wpNYcrDBZ'
p1808
I2
sS'browser'
p1809
I11
sS'pre'
p1810
I1
sS'navFooterColSpacerInner'
p1811
I3
sS'InstantVideoPanel'
p1812
I2
sS'TODO'
p1813
I1
sS'softlines'
p1814
I6
sS'20x'
p1815
I2
sS'primeTimeout'
p1816
I1
sS'DB'
p1817
I6
sS'353'
p1818
I1
sS'Extant'
p1819
I1
sS'1GB'
p1820
I4
sS'2204518011'
p1821
I1
sS'prv'
p1822
I1
sS'DX'
p1823
I9
sS'Unlocked'
p1824
I83
sS'SWP'
p1825
I2
sS'DT'
p1826
I1
sS'sap'
p1827
I1
sS'Find'
p1828
I4
sS'DS'
p1829
I42
sS'B007QUZ16A'
p1830
I5
sS'orderApplication'
p1831
I2
sS'2308850662'
p1832
I2
sS'CCLFOOT'
p1833
I1
sS'precacheMaterials'
p1834
I3
sS'Screwdriving'
p1835
I6
sS'B007NVSTO8'
p1836
I5
sS'41weMVNU'
p1837
I6
sS'DPReview'
p1838
I1
sS'dining'
p1839
I1
sS'emphasis'
p1840
I2
sS'animation'
p1841
I1
sS'Hj1VIL'
p1842
I4
sS'15px'
p1843
I2
sS'41xeAcThg0L'
p1844
I6
sS'519x499'
p1845
I2
sS'channel'
p1846
I2
sS'7939884564'
p1847
I1
sS'201'
p1848
I4
sS'200'
p1849
I5
sS'Jc9b9mBqxg9ezheGBvQ9QVTToULIiFiWYPHsD4HC'
p1850
I1
sS'Off'
p1851
I4
sS'204'
p1852
I1
sS'207'
p1853
I2
sS'206'
p1854
I1
sS'track'
p1855
I9
sS'B016LMQIMO'
p1856
I1
sS'CMDW'
p1857
I2
sS'830'
p1858
I2
sS'2Fsell'
p1859
I1
sS'2FgeHehdxvUIKYewVWdXrguY7aWvnZVlrUAjbk4Kq71BnsPidLsEpcJ0H53Yph3CtM9LFChj3c5zCkxcegYjralFgkw7lstmPlRIVffIQFxT8pjC7Jj'
p1860
I1
sS'sheets'
p1861
I1
sS'Depository'
p1862
I1
sS'superhero'
p1863
I8
sS'2250'
p1864
I5
sS'icon'
p1865
I117
sS'Filter'
p1866
I2
sS'timelineOptimization'
p1867
I1
sS'210owd74xAL'
p1868
I3
sS'textarea'
p1869
I1
sS'21GCPa'
p1870
I2
sS'r5zsYiQAKDGfJJNU6bJD6J7L'
p1871
I1
sS'later'
p1872
I3
sS'drive'
p1873
I4
sS'2FGJ2UDEEEloOJi'
p1874
I1
sS'2FhhxJ59O9c'
p1875
I1
sS'Polisher'
p1876
I5
sS'51922'
p1877
I4
sS'Fitbit'
p1878
I2
sS'163856011'
p1879
I3
sS'GATEWAY'
p1880
I5
sS'quantity'
p1881
I1
sS'shop'
p1882
I6
sS'M55'
p1883
I4
sS'B00X8UI466'
p1884
I1
sS'IssParentCoordinator'
p1885
I1
sS'51Zp9MhOyoL'
p1886
I6
sS'show'
p1887
I7
sS'promoID'
p1888
I20
sS'2BIQsK7psSVznoDbUlZC9yODhTr4w88q'
p1889
I1
sS'CB319237959'
p1890
I1
sS'41Uq8eAVVSZXDxzqzuftZ1cPjieAjj2YVJLMXoYRBUWQXZclWcBrGQiYnhLPQrQlR0U4Jb0'
p1891
I1
sS'Happiness'
p1892
I2
sS'sidebarFreeformPlayer'
p1893
I1
sS'Wet'
p1894
I6
sS'41geocARXdL'
p1895
I2
sS'navFooterLinkLine'
p1896
I3
sS'Incredibly'
p1897
I1
sS'slot'
p1898
I12
sS'We'
p1899
I1
sS'224'
p1900
I1
sS'title'
p1901
I264
sS'true'
p1902
I23
sS'Skateboards'
p1903
I1
sS'Handpicked'
p1904
I2
sS'Wi'
p1905
I38
sS'26p'
p1906
I1
sS'only'
p1907
I1
sS'Knitting'
p1908
I1
sS'Services'
p1909
I17
sS'B004GIO0F8'
p1910
I5
sS'buyBox'
p1911
I85
sS'over'
p1912
I1
sS'01JznSgpsVL'
p1913
I6
sS'B00ODN0QD6'
p1914
I5
sS'get'
p1915
I4
sS'isDdInT1'
p1916
I2
sS'H'
p1917
I11
sS'isDdInT3'
p1918
I2
sS'jazz'
p1919
I1
sS'topSpacer'
p1920
I1
sS'Stationery'
p1921
I1
sS'ssl'
p1922
I62
sS'Magazine'
p1923
I2
sS'252F'
p1924
I1
sS'Products'
p1925
I11
sS'1055398'
p1926
I1
sS'2Fs8jdkJXxjtxJRsZSVzR8cPwShEiZBRKzuw'
p1927
I1
sS'videogaming'
p1928
I2
sS'rVXTO2'
p1929
I1
sS'prime'
p1930
I202
sS'130px'
p1931
I1
sS'Right'
p1932
I7
sS'resource'
p1933
I3
sS'bestselling'
p1934
I1
sS'B00L83TQR6'
p1935
I3
sS'artist'
p1936
I1
sS'noti'
p1937
I11
sS'GNO2'
p1938
I1
sS'GNO3'
p1939
I1
sS'summary'
p1940
I2
sS'2FedwaYHpYAmz3zvBMswKXIv574slBvWZ7yh9zGu4i0vDh81glcuUpGA'
p1941
I1
sS'Networking'
p1942
I2
sS'921'
p1943
I1
sS'41yIf'
p1944
I6
sS'Kitchen'
p1945
I6
sS'ir'
p1946
I1
sS'DCR006'
p1947
I6
sS'imageSrc'
p1948
I2
sS'62327'
p1949
I1
sS'dataNavRef'
p1950
I2
sS'sleeves'
p1951
I2
sS'3410851'
p1952
I1
sS'Box'
p1953
I1
sS'Apps'
p1954
I12
sS'Publish'
p1955
I1
sS'up'
p1956
I9
sS'relative'
p1957
I9
sS'sis'
p1958
I2
sS'dialogCss'
p1959
I2
sS'495'
p1960
I5
sS'impressions'
p1961
I5
sS'440X200'
p1962
I1
sS'Voyager'
p1963
I6
sS'Ship'
p1964
I2
sS'B00T8LQ8VW'
p1965
I2
sS'detect'
p1966
I2
sS'Shopping'
p1967
I4
sS'vertical'
p1968
I11
sS'camping'
p1969
I1
sS'AfterSchool'
p1970
I1
sS'toysgames'
p1971
I2
sS'review'
p1972
I1
sS'839'
p1973
I2
sS'2F3DMv3pkU6TFlrkSpKci96rLR'
p1974
I1
sS'2311022942'
p1975
I2
sS'label'
p1976
I6
sS'3'
p1977
I63
sS'28DE5151E2930C25FD313A6DAA6DA31818DA06E4'
p1978
I1
sS'between'
p1979
I1
sS'totalWidth'
p1980
I4
sS'7omHUI6amTiOaIRXFHlx4Rhn3MRkC219EDxWKG2KV35X4Nga0I2W0jyBCEyeo9jsS3Sj'
p1981
I1
sS'reading'
p1982
I3
sS'10445813011'
p1983
I6
sS'B007FHX9OK'
p1984
I5
sS'Check'
p1985
I1
sS'affordable'
p1986
I1
sS'15033'
p1987
I3
sS'jobs'
p1988
I1
sS'2BKoNilBOsTJNH8boA'
p1989
I1
sS'Johnson'
p1990
I1
sS'2BRewE7lRhv8txcJpJh5Hw'
p1991
I1
sS'jp'
p1992
I1
sS'screen'
p1993
I2
sS'aPTID'
p1994
I5
sS'112015'
p1995
I5
sS'js'
p1996
I172
sS'enableBbPrefetch'
p1997
I1
sS'healthpersonalcare'
p1998
I2
sS'Full'
p1999
I1
sS'10394030011'
p2000
I1
sS'unit'
p2001
I3
sS'2BPXG83WUSd'
p2002
I1
sS'Team'
p2003
I1
sS'Directory'
p2004
I1
sS'arial'
p2005
I3
sS'cities'
p2006
I2
sS'2BHmq4xYrXM8FyfNQl1hmZOw7kih4NNBMo9izRwBQttRJp1Djr2oRRhyql'
p2007
I1
sS'2BtL'
p2008
I5
sS'10232440011'
p2009
I1
sS'FireTvPanel'
p2010
I2
sS'installation'
p2011
I1
sS'CB289417201'
p2012
I2
sS'284507'
p2013
I1
sS'Give'
p2014
I1
sS'Phones'
p2015
I11
sS'23'
p2016
I2
sS'2BEP14ESC8Zq14nYmcA3dLUUGIq52ZAQ'
p2017
I1
sS'909664'
p2018
I1
sS'flipped'
p2019
I1
sS'Interest'
p2020
I1
sS'Laptops'
p2021
I2
sS'2FzTZglo5Wdz0JZ9sp2'
p2022
I1
sS'01Fz6nMpmLL'
p2023
I6
sS'2F3EEJ5bFBMIHDs5Aa0tKqIloT6Zm9FhbktbfK7mgA9ruc85Ambt6oqxu88XViH50R4lFmekeJcKHBPKooeyjGObg4wZRxGskXkzupdtQb'
p2024
I1
sS'isNavInline'
p2025
I1
sS'210px'
p2026
I1
sS'Select'
p2027
I1
sS'51kGlATJzSL'
p2028
I5
sS'01c3JrM3rnL'
p2029
I2
sS'appendChild'
p2030
I1
sS'color'
p2031
I174
sS'Travel'
p2032
I1
sS'CB286463012'
p2033
I1
sS'poly'
p2034
I9
sS'Specialty'
p2035
I2
sS'60'
p2036
I5
sS'61'
p2037
I4
sS'62'
p2038
I4
sS'63'
p2039
I2
sS'64'
p2040
I12
sS'3000'
p2041
I5
sS'66'
p2042
I1
sS'Leaky'
p2043
I1
sS'3GB'
p2044
I4
sS'253'
p2045
I3
sS'Events'
p2046
I1
sS'Unfinished'
p2047
I3
sS'7472b31d57dd5f1ec7df71009a1c0ecd73b67507'
p2048
I1
sS'better'
p2049
I1
sS'arts'
p2050
I2
sS'Buy'
p2051
I2
sS'Assembly'
p2052
I1
sS'DCK955X'
p2053
I6
sS'Beauty'
p2054
I15
sS'primephotos'
p2055
I1
sS'computing'
p2056
I1
sS'CB291902036'
p2057
I1
sS'navFooterDescItem'
p2058
I35
sS'But'
p2059
I1
sS'159'
p2060
I2
sS'2FdemxV8e1PPu'
p2061
I1
sS'Optical'
p2062
I16
sS'InternationalStripe'
p2063
I1
sS'Stick'
p2064
I17
sS'509'
p2065
I1
sS'3AGoPro'
p2066
I1
sS'504'
p2067
I1
sS'505'
p2068
I2
sS'502'
p2069
I3
sS'503'
p2070
I1
sS'500'
p2071
I199
sS'501'
p2072
I2
sS'engine'
p2073
I9
sS'5XPWZy47KxseNNGAG3lQlSoKYWlR1aGIIu6RPEaojQkYGe'
p2074
I1
sS'Lawn'
p2075
I3
sS'shopping'
p2076
I4
sS'setNoSimView'
p2077
I3
sS'beta'
p2078
I1
sS'gwPrimeMusicText'
p2079
I1
sS'Cross'
p2080
I6
sS'Gold'
p2081
I14
sS'2BhZG4W0v8AIgLm1CQEIfapRLMidXjTNshErbQDLi6McjL8UPSqSakar8IRk916pLHCK3ne6HURwuPSNR0'
p2082
I1
sS'Rotary'
p2083
I6
sS'usflex'
p2084
I6
sS'30397'
p2085
I1
sS'2407755011'
p2086
I1
sS'span6'
p2087
I4
sS'dialogSelector'
p2088
I2
sS'Learn'
p2089
I3
sS'Action'
p2090
I7
sS'Firefox'
p2091
I1
sS'Round'
p2092
I6
sS'standard'
p2093
I1
sS'172456'
p2094
I1
sS'sound'
p2095
I2
sS'B002RT7K5K'
p2096
I3
sS'B00GMXFK3G'
p2097
I5
sS'hds'
p2098
I1
sS'2Fw'
p2099
I1
sS'Fence'
p2100
I1
sS'To'
p2101
I2
sS'Warehouse'
p2102
I1
sS'6M'
p2103
I1
sS'Coins'
p2104
I1
sS'className'
p2105
I3
sS'6S'
p2106
I4
sS'Sloane'
p2107
I4
sS'many'
p2108
I2
sS'login'
p2109
I2
sS'shops'
p2110
I1
sS'Pilot'
p2111
I6
sS'margin'
p2112
I14
sS'spotlight'
p2113
I2
sS'2Bf5PF4UR23OFtcKwK2YinRylNNkBnzPajeWw'
p2114
I1
sS'Woot'
p2115
I1
sS'orientation'
p2116
I2
sS'61vUHfR'
p2117
I2
sS'secondary'
p2118
I4
sS'31s8B1ue'
p2119
I6
sS'Factory'
p2120
I14
sS'Jackery'
p2121
I6
sS'navFooterDescText'
p2122
I35
sS'Content'
p2123
I6
sS'10048700011'
p2124
I1
sS'Charge'
p2125
I6
sS'Back'
p2126
I1
sS'xVcTDiVuIuLR1rJkhmwe2cduP9bSsMZAwEkQFca9DSlzeRtRKft7JiscbZcymcJFWKaX2lAaVCfhS94YsUgQ'
p2127
I1
sS'2BXZyrP12gZf5fWcgzmX7iDw'
p2128
I1
sS'GNO'
p2129
I4
sS'createList'
p2130
I1
sS'3386071'
p2131
I1
sS'323'
p2132
I1
sS'Complete'
p2133
I2
sS'48px'
p2134
I1
sS'weblabs'
p2135
I1
sS'quickLook'
p2136
I4
sS'1500x300'
p2137
I15
sS'2Fr7EtULejJzhMdOl3m6Kw'
p2138
I1
sS'Plantronics'
p2139
I18
sS'ya'
p2140
I10
sS'html'
p2141
I69
sS'arguments'
p2142
I4
sS'fo'
p2143
I8
sS'PtaqQjFjpR4MY5djpxBptgGY9hreP2IQ0nvequSldtvEpUWCUbjGXzA'
p2144
I1
sS'lite'
p2145
I1
sS'1V93WHZEJJ5DYF0RPGA1'
p2146
I3
sS'document'
p2147
I9
sS'newcust'
p2148
I2
sS'kindleTimeout'
p2149
I1
sS'2F4MovvDK3DU8a2'
p2150
I1
sS'week'
p2151
I1
sS'Goods'
p2152
I1
sS'UTF'
p2153
I1
sS'closest'
p2154
I3
sS'gwAivWith'
p2155
I1
sS'I'
p2156
I668
sS'IS'
p2157
I9
sS'responsiveGridEnabled'
p2158
I1
sS'drives'
p2159
I1
sS'II'
p2160
I6
sS'CB288328662'
p2161
I6
sS'testGradients'
p2162
I2
sS'Anywhere'
p2163
I2
sS'Apparel'
p2164
I2
sS'Maya'
p2165
I3
sS'rID'
p2166
I2
sS'B00DQ5NSIW'
p2167
I5
sS'IE'
p2168
I2
sS'Patio'
p2169
I5
sS'11170040011'
p2170
I1
sS'2F5TWw'
p2171
I1
sS'B0102OM1IC'
p2172
I5
sS'undefined'
p2173
I3
sS'553788'
p2174
I1
sS'DVDs'
p2175
I5
sS'CB224617671'
p2176
I1
sS'It'
p2177
I1
sS'know'
p2178
I1
sS'Everyday'
p2179
I1
sS'media'
p2180
I10
sS'Rent'
p2181
I1
sS'200mm'
p2182
I6
sS'rId'
p2183
I5
sS'DEWALT'
p2184
I182
sS'B013SEXKI8'
p2185
I5
sS'B00IOY8XWQ'
p2186
I2
sS'If'
p2187
I6
sS'216'
p2188
I3
sS'217'
p2189
I1
sS'214'
p2190
I2
sS'outdoor'
p2191
I5
sS'210'
p2192
I1
sS'x09IL'
p2193
I1
sS'when'
p2194
I65
sS'advertising'
p2195
I2
sS'Pine'
p2196
I1
sS'219'
p2197
I1
sS'shopbop'
p2198
I1
sS'3A172282'
p2199
I1
sS'2249193782'
p2200
I17
sS'aspect'
p2201
I85
sS'3Afashion'
p2202
I6
sS'touch'
p2203
I5
sS'co'
p2204
I2
sS'31ffj'
p2205
I6
sS'speed'
p2206
I1
sS'underline'
p2207
I2
sS'cn'
p2208
I1
sS'Garmin'
p2209
I7
sS'buildIssInitObject'
p2210
I4
sS'52129011'
p2211
I1
sS'B015AH8TQE'
p2212
I5
sS'Dome'
p2213
I1
sS'desktop'
p2214
I156
sS'holidaytoylist'
p2215
I2
sS'interested'
p2216
I4
sS'4'
p2217
I276
sS'PkfYDqrtNRRUNNCbjp2oRgo7'
p2218
I1
sS'Ninja'
p2219
I4
sS'C88Ut5d4BuKcc'
p2220
I1
sS'newPadding'
p2221
I4
sS'51VZWrWjOSL'
p2222
I1
sS'scheduled'
p2223
I2
sS'deptText'
p2224
I1
sS'hover'
p2225
I4
sS'Cams'
p2226
I1
sS'DWE575SB'
p2227
I6
sS'Headphones'
p2228
I10
sS'mousemove'
p2229
I1
sS'dark'
p2230
I1
sS'np'
p2231
I3
sS'11436294011'
p2232
I1
sS'grid'
p2233
I6
sS'queuedOpen'
p2234
I4
sS'1xsidekick'
p2235
I2
sS'Crafts'
p2236
I4
sS'using'
p2237
I1
sS'2BRUIkL4cistu00UGqJRltlp96g'
p2238
I1
sS'2BYw'
p2239
I1
sS'furniture'
p2240
I6
sS'Shop'
p2241
I15
sS'2BrJrXQAlwNZ'
p2242
I1
sS'Kathy'
p2243
I1
sS'51vlXVaQMeL'
p2244
I6
sS'B007F4AG76'
p2245
I1
sS'inputPlaceholder'
p2246
I1
sS'Room'
p2247
I4
sS'Streaming'
p2248
I1
sS'3Fld'
p2249
I2
sS'coords'
p2250
I45
sS'isMobile'
p2251
I2
sS'21A'
p2252
I2
sS'2B4cICIp0YH7XHI'
p2253
I1
sS'230659011'
p2254
I1
sS'componentLoaded'
p2255
I1
sS'65'
p2256
I4
sS'node'
p2257
I214
sS'Perry'
p2258
I2
sS'Jewelry'
p2259
I5
sS'Register'
p2260
I1
sS'Entertainment'
p2261
I2
sS'vinemarket'
p2262
I1
sS'conditional'
p2263
I1
sS'Mark'
p2264
I1
sS'cs'
p2265
I17
sS'1LB0'
p2266
I2
sS'Organizer'
p2267
I6
sS'Printers'
p2268
I2
sS'images'
p2269
I1962
sS'New'
p2270
I21
sS'244'
p2271
I2
sS'F9CAD8A11D4336B5E0B3C3B089FA066D0A467C1C'
p2272
I1
sS'Listen'
p2273
I2
sS'extendedFlyout'
p2274
I1
sS'379'
p2275
I2
sS'slice'
p2276
I2
sS'0bf623bd1e2428549caa6d3e37ead8a21c681f91'
p2277
I1
sS'Madea'
p2278
I3
sS'Men'
p2279
I4
sS'labelledby'
p2280
I1
sS'token'
p2281
I11
sS'MhKq'
p2282
I1
sS'02KG68WKMBZNP8A0S0H6'
p2283
I2
sS'critical'
p2284
I9
sS'Climbing'
p2285
I1
sS'346333011'
p2286
I1
sS'Gifting'
p2287
I1
sS'amazondevices'
p2288
I2
sS'SY220'
p2289
I222
sS'B00NB86OYE'
p2290
I1
sS'Dry'
p2291
I6
sS'Cellphone'
p2292
I36
sS'ciuAnnotations'
p2293
I1
sS'Extendable'
p2294
I6
sS'arrow'
p2295
I22
sS'business'
p2296
I2
sS'OriginalContent'
p2297
I1
sS'Equipment'
p2298
I5
sS'springstein'
p2299
I1
sS'each'
p2300
I17
sS'logMetrics'
p2301
I3
sS'2B43jnr'
p2302
I1
sS'2Fredirect'
p2303
I1
sS'Outdoors'
p2304
I9
sS'docId'
p2305
I6
sS'DW1361'
p2306
I6
sS'throw'
p2307
I2
sS'Electric'
p2308
I6
sS'oo'
p2309
I1
sS'src'
p2310
I268
sS'ol'
p2311
I4
sS'HTC'
p2312
I4
sS'2BdrumS3UhDqgvtxfd3fCDxtopRVnnl9KaQU5Lt4mbJ8h0s1bizTmxU4YrXfLM9uwQ'
p2313
I1
sS'origins'
p2314
I1
sS'og'
p2315
I4
sS'oe'
p2316
I1
sS'HTL'
p2317
I1
sS'viewsubscriptions'
p2318
I1
sS'toUpperCase'
p2319
I1
sS'Trade'
p2320
I4
sS'core'
p2321
I1
sS'200260520'
p2322
I1
sS'acx'
p2323
I1
sS'detailPageStatic'
p2324
I1
sS'3248684011'
p2325
I1
sS'2BRLIO6'
p2326
I1
sS'Ads'
p2327
I1
sS'myapps'
p2328
I2
sS'No'
p2329
I2
sS'Na'
p2330
I4
sS'image'
p2331
I518
sS'DWARA100'
p2332
I6
sS'bbb'
p2333
I1
sS'mas'
p2334
I2
sS'Add'
p2335
I3
sS'Luxury'
p2336
I3
sS'countries'
p2337
I1
sS'51vGUaQE'
p2338
I5
sS'Mockingjay'
p2339
I3
sS'B00DAHSY58'
p2340
I1
sS'your'
p2341
I30
sS'Store'
p2342
I7
sS'29090'
p2343
I4
sS'Week'
p2344
I6
sS'bought'
p2345
I1
sS'fast'
p2346
I1
sS'Infinity'
p2347
I1
sS'log'
p2348
I2
sS'comixology'
p2349
I1
sS'area'
p2350
I45
sS'aren'
p2351
I1
sS'10000'
p2352
I1
sS'Jamie'
p2353
I1
sS'CB310910402'
p2354
I1
sS'Fabric'
p2355
I1
sS'cats'
p2356
I1
sS'stars'
p2357
I84
sS'Artwork'
p2358
I1
sS'10158976011'
p2359
I1
sS'Prestige'
p2360
I1
sS'upnav2xImageHeight'
p2361
I1
sS'FREE'
p2362
I1
sS'pageElapsedTime'
p2363
I1
sS'touchScrolling'
p2364
I1
sS'2xsidekick'
p2365
I2
sS'complete'
p2366
I2
sS'kittens'
p2367
I1
sS'51lskdA2jbL'
p2368
I1
sS'J'
p2369
I3
sS'checkColumns'
p2370
I3
sS'706814011'
p2371
I1
sS'Schools'
p2372
I1
sS'AutomotiveIndustrialPanel'
p2373
I2
sS'2BvCWR'
p2374
I1
sS'1593'
p2375
I1
sS'canCreateAutocomplete'
p2376
I3
sS'Small'
p2377
I1
sS'mice'
p2378
I1
sS'Tutoring'
p2379
I1
sS'Guide'
p2380
I3
sS'viewport'
p2381
I10
sS'2BtcZaoqPLfZLHwB4ou9j84gdqsH'
p2382
I1
sS'21o'
p2383
I2
sS'prototype'
p2384
I1
sS'LED'
p2385
I6
sS'largest'
p2386
I1
sS'shogunProductDB'
p2387
I1
sS'default'
p2388
I2
sS'House'
p2389
I4
sS'2F2tH3L4hDCPA7Dd4uEyWEf'
p2390
I1
sS'ryo'
p2391
I1
sS'B00HNJWUBI'
p2392
I2
sS'Close'
p2393
I1
sS'29937'
p2394
I4
sS'CB176526456'
p2395
I1
sS'Special'
p2396
I1
sS'billboardrow'
p2397
I2
sS'605'
p2398
I1
sS'2BRjqIN'
p2399
I1
sS'ad'
p2400
I3
sS'videos'
p2401
I4
sS'af'
p2402
I3
sS'318135011'
p2403
I1
sS'dash2'
p2404
I1
sS'1210'
p2405
I1
sS'watches'
p2406
I5
sS'16858'
p2407
I2
sS'storecardmember'
p2408
I2
sS'ap'
p2409
I10
sS'MgQmL'
p2410
I2
sS'2308685442'
p2411
I2
sS'fruitCSS'
p2412
I1
sS'trace'
p2413
I2
sS'navAmazonLogoFooter'
p2414
I3
sS'gradients'
p2415
I1
sS'Moto'
p2416
I16
sS'B016LMQAEK'
p2417
I2
sS'fill'
p2418
I4
sS'again'
p2419
I4
sS'subtext'
p2420
I87
sS'Computer'
p2421
I5
sS'Read'
p2422
I1
sS'isSelected'
p2423
I2
sS'Stations'
p2424
I1
sS'storage'
p2425
I2
sS'Lab'
p2426
I2
sS'Accessory'
p2427
I2
sS'Dark'
p2428
I4
sS'field'
p2429
I2
sS'1113'
p2430
I1
sS'1115'
p2431
I1
sS'CB306315386'
p2432
I1
sS'addEventListener'
p2433
I8
sS'G6QVwOlFuL2sEOUCaqhR0jF1mUEDdHx8sond01EeRuLOV6NRYGJ05WrrrfPwAXRYcC1Ls2'
p2434
I1
sS'pinnedNavMinHeight'
p2435
I1
sS'467'
p2436
I2
sS'opacity'
p2437
I6
sS'Wide'
p2438
I2
sS'adrive'
p2439
I3
sS'Plans'
p2440
I1
sS'18MP'
p2441
I2
sS'516TxBU6geL'
p2442
I3
sS'460'
p2443
I1
sS'a0'
p2444
I1
sS'important'
p2445
I11
sS'2FyRMweqVOXC1JjRjI2YAzb8SpwhXk2A'
p2446
I1
sS'registry'
p2447
I7
sS'489'
p2448
I1
sS'488'
p2449
I1
sS'cancelBubble'
p2450
I1
sS'Door'
p2451
I1
sS'485'
p2452
I1
sS'484'
p2453
I1
sS'482'
p2454
I1
sS'concat'
p2455
I1
sS'480'
p2456
I1
sS'unbind'
p2457
I1
sS'remote'
p2458
I1
sS'photos'
p2459
I1
sS'Runner'
p2460
I6
sS'nBI231SpazrXwM'
p2461
I1
sS'11433437011'
p2462
I1
sS'Torque'
p2463
I6
sS'B00948EPOQ'
p2464
I2
sS'Pantry'
p2465
I3
sS'Hardware'
p2466
I4
sS'2BqkLO'
p2467
I1
sS'6s'
p2468
I20
sS'u'
p2469
I5
sS'41dNEapzIvL'
p2470
I5
sS'Blackbelt'
p2471
I1
sS'directory'
p2472
I2
sS'songs'
p2473
I2
sS'resolution'
p2474
I1
sS'Gateway'
p2475
I6
sS'2F1vyeeyS8BavTRzrhoRdKD92Q1Dxrlw'
p2476
I1
sS'goToPage'
p2477
I6
sS'1GWPMG0K5JVQ2S33S0CS'
p2478
I53
sS'all'
p2479
I5
sS'Winter'
p2480
I1
sS'Fit'
p2481
I4
sS'graphics'
p2482
I1
sS'Unable'
p2483
I5
sS'31LNMSZZHwL'
p2484
I6
sS'Take'
p2485
I3
sS'Professional'
p2486
I11
sS'follow'
p2487
I1
sS'alt'
p2488
I289
sS'Wish'
p2489
I3
sS'children'
p2490
I2
sS'L0Bi0BQ96pYLqffQyxiixrkFsJjLgTtK'
p2491
I1
sS'144dpi'
p2492
I1
sS'rd'
p2493
I144
sS'2BEa1FNCjEP3lcG2YGwdtmrALwoRLkoA'
p2494
I1
sS'petsupplies'
p2495
I2
sS'Kids\xe2\x80\x99'
p2496
I2
sS'tv'
p2497
I9
sS'HMCjepwTkdxuVdCLCKuIv2d'
p2498
I1
sS'dmusic'
p2499
I4
sS'tr'
p2500
I20
sS'CB306649905'
p2501
I1
sS'B00YR23W1G'
p2502
I5
sS'init'
p2503
I9
sS'womensclothing'
p2504
I2
sS'requestId'
p2505
I2
sS'2FB57AHGnuC'
p2506
I1
sS'siblings'
p2507
I1
sS'td'
p2508
I172
sS'signInHtml'
p2509
I1
sS'homepage'
p2510
I9
sS'ta'
p2511
I1
sS'Reader'
p2512
I1
sS'needToLoad'
p2513
I2
sS'2FjG98OQVEkPAw1FIte50qY8xMjjzHxrSTMGi7ps0KyOh'
p2514
I1
sS'shipment'
p2515
I2
sS'2B40mF5neg'
p2516
I2
sS'song'
p2517
I1
sS'2C0970672BD3CDA6634A8A4D456A3D556D3DC7D0'
p2518
I1
sS'debit'
p2519
I1
sS'ScheduledDeliveryJavascript'
p2520
I1
sS'util'
p2521
I1
sS'2B2fHKMm36IsgHmQvrYxzeWjkF4w8a'
p2522
I1
sS'1px'
p2523
I4
sS'Classes'
p2524
I2
sS'fan'
p2525
I1
sS'7301146011'
p2526
I1
sS'mensclothing'
p2527
I2
sS'2FmlrOwTj1lXJLpA'
p2528
I1
sS'fixedBarBeacon'
p2529
I1
sS'2625373011'
p2530
I1
sS'NirXHAijcSr86DUlnW9oNoGuF'
p2531
I1
sS'2B2Upza1kUKKJGFHJYlImkrR7GB86deVwCBHGr7tkulgRYvC9k9zQFDjlobbcCS1ImvLL'
p2532
I1
sS'sans'
p2533
I3
sS'gatingWeblabOn'
p2534
I4
sS'subnavFlyoutUrl'
p2535
I1
sS'shiftKey'
p2536
I1
sS'img15'
p2537
I74
sS'list'
p2538
I166
sS'manager'
p2539
I1
sS't1'
p2540
I5
sS'large'
p2541
I2
sS'2F5IoEMea'
p2542
I1
sS'Premium'
p2543
I12
sS'navFooterPadItemLine'
p2544
I2
sS'small'
p2545
I1
sS'setAsin'
p2546
I2
sS'CB356015500'
p2547
I1
sS'panelkey'
p2548
I1
sS'yt'
p2549
I1
sS'49340'
p2550
I1
sS'Impact'
p2551
I12
sS'01cs0BjmL9L'
p2552
I2
sS'199'
p2553
I12
sS'198'
p2554
I2
sS'51QIS2Y69aL'
p2555
I6
sS'197'
p2556
I2
sS'191'
p2557
I1
sS'Tez6JMt749NUn5SAwDju6wWChOWywTyLqAj642pZr05G2IL4Nv8BcL10J7o3vHI0SAA33AaqFALpT44x6TODqJ4'
p2558
I1
sS'browsepromos'
p2559
I24
sS'Actually'
p2560
I1
sS'Department'
p2561
I1
sS'Only'
p2562
I96
sS'knex2'
p2563
I2
sS'32GB'
p2564
I12
sS'popoverLatency'
p2565
I4
sS'Easy'
p2566
I8
sS'2B50xvsDJMiYhgUmWTwKnkkaD'
p2567
I1
sS'East'
p2568
I1
sS'Discounts'
p2569
I2
sS'canonical'
p2570
I1
sS'apponlydeals'
p2571
I4
sS'B016LMQF04'
p2572
I1
sS'2FLwNOI2rouFQjC64b6RiPOLY2BGKtzEk5cLsNemmD7HxSnUUAJkJnwI2oZtQi4SyNRaMRQuAj'
p2573
I1
sS'combined'
p2574
I4
sS'Releases'
p2575
I2
sS'2Bdd'
p2576
I1
sS'WK50'
p2577
I1
sS'section'
p2578
I44
sS'B0182OKFV4'
p2579
I1
sS'Worker'
p2580
I1
sS'nand'
p2581
I1
sS'3Dirol'
p2582
I1
sS'B00THKEKEQ'
p2583
I2
sS'OGq5vGML'
p2584
I6
sS'51rbwfgFPML'
p2585
I5
sS'2F4cI0fHUnyHLrPeCCcre0PrjYYb'
p2586
I1
sS'amazonui'
p2587
I9
sS'menubar'
p2588
I1
sS'method'
p2589
I3
sS'B00XVPGR3A'
p2590
I2
sS'FlexTorq'
p2591
I6
sS'full'
p2592
I3
sS'Gift'
p2593
I7
sS'2972638011'
p2594
I1
sS'BLU'
p2595
I12
sS'2BYZV'
p2596
I1
sS'K'
p2597
I4
sS'component'
p2598
I8
sS'Zoom'
p2599
I20
sS'Departments'
p2600
I1
sS'doCTWKeydown'
p2601
I1
sS'9cMpTlfW875dasMYwqEblcOC3ocyg99m8ogB4c61aBc1Vvon9TSQQ3kqvQqIh940Afr8bddpHI55cfOzlsx8OOVim'
p2602
I1
sS'B00TSUGXKE'
p2603
I2
sS'25117E9F01C8F0AB1D649F37EDDD2DEBE047C3A6'
p2604
I1
sS'MvPwJ57u73RLLTxvt85lfGt6PXZOLQZxPLQCA7TS3j8EsVHd'
p2605
I1
sS'41V5drLPvxL'
p2606
I6
sS'search'
p2607
I84
sS'DSLR'
p2608
I4
sS'904'
p2609
I2
sS'2BJMwziWoI7nGp83SdkqGV1'
p2610
I1
sS'Open'
p2611
I1
sS'2Fhome'
p2612
I9
sS'Leveling'
p2613
I9
sS'numberOfRatings'
p2614
I85
sS'experience'
p2615
I1
sS'globalfooter'
p2616
I1
sS'nav2'
p2617
I10
sS'ftvsvr'
p2618
I7
sS'Audiobooks'
p2619
I3
sS'social'
p2620
I3
sS'action'
p2621
I13
sS'4624'
p2622
I1
sS'javascripts'
p2623
I1
sS'2BkRrzcxS8id1Rzw'
p2624
I1
sS'options'
p2625
I1
sS'E1aGOT3qwlS'
p2626
I6
sS'2FsEOBULIOS'
p2627
I1
sS'interestbasedads'
p2628
I1
sS'aria'
p2629
I23
sS'upcoming'
p2630
I1
sS'Planer'
p2631
I6
sS'family'
p2632
I6
sS'B00YYZEQ1G'
p2633
I1
sS'S2'
p2634
I4
sS'Top'
p2635
I2
sS'freshPopOverSimsClick'
p2636
I1
sS'S6'
p2637
I14
sS'S5'
p2638
I8
sS'S4'
p2639
I4
sS'href'
p2640
I365
sS'shopAllContent'
p2641
I1
sS'appliances'
p2642
I2
sS'toys'
p2643
I12
sS'manage'
p2644
I6
sS'2FXnhbkxfvIfGpU5JG2FLlLk1NFlV7ckF90M'
p2645
I1
sS'2FJp'
p2646
I1
sS'select'
p2647
I11
sS'Additional'
p2648
I1
sS'854'
p2649
I1
sS'Elements'
p2650
I1
sS'2BNpyetNnhZ'
p2651
I1
sS'olQFGOjGnHOy0djtF8Xw9EgTNFjBG'
p2652
I1
sS'Passionately'
p2653
I1
sS'Soft'
p2654
I2
sS'destination'
p2655
I1
sS'858'
p2656
I1
sS'two'
p2657
I1
sS'Cloth'
p2658
I2
sS'2900646310'
p2659
I1
sS'11350978011'
p2660
I1
sS'706808011'
p2661
I1
sS'6'
p2662
I51
sS'JyGRXvZxz987W43Eg2IM3bnQi3NaPJydF3mVJ'
p2663
I1
sS'2Fj7WQmHbAbMs5l9AZyqefXcyLF'
p2664
I1
sS'3760911'
p2665
I1
sS'more'
p2666
I27
sS'2FPBS2BP'
p2667
I1
sS'searchSprite'
p2668
I1
sS'2B1tJHLxaJ9IwgyWWS5'
p2669
I1
sS'2FmSJI3DWkRV8srsEQcsrDwXUN'
p2670
I1
sS'Mask'
p2671
I3
sS'11433412011'
p2672
I1
sS'ISS'
p2673
I1
sS'Kodak'
p2674
I6
sS'auiStarClass'
p2675
I84
sS'220px'
p2676
I108
sS'Theater'
p2677
I1
sS'stick'
p2678
I2
sS'LTE'
p2679
I14
sS'webkit'
p2680
I3
sS'Router'
p2681
I6
sS'fromPDB'
p2682
I3
sS'Spotlight'
p2683
I3
sS'3427287011'
p2684
I1
sS'none'
p2685
I32
sS'Now'
p2686
I1
sS'r2'
p2687
I2
sS'documentElement'
p2688
I4
sS'middle'
p2689
I9
sS'49860'
p2690
I2
sS'entertainment'
p2691
I3
sS'dev'
p2692
I1
sS'autocomplete'
p2693
I10
sS'iss'
p2694
I16
sS'paragraph'
p2695
I10
sS'SM'
p2696
I6
sS'v'
p2697
I11
sS'dec'
p2698
I2
sS'star'
p2699
I170
sS'Your'
p2700
I55
sS'history'
p2701
I11
sS'purchases'
p2702
I2
sS'compare'
p2703
I2
sS'SY330'
p2704
I111
sS'CB306317608'
p2705
I1
sS'745'
p2706
I2
sS'746'
p2707
I1
sS'share'
p2708
I5
sS'accept'
p2709
I1
sS'states'
p2710
I2
sS'hasWorkingJavascript'
p2711
I5
sS'auiPreloadCSS'
p2712
I2
sS'minimum'
p2713
I1
sS'Speaker'
p2714
I6
sS'2BbeIQcVR'
p2715
I1
sS'isDoCtw'
p2716
I2
sS'DATE'
p2717
I1
sS'updateRefTags'
p2718
I2
sS'11433453011'
p2719
I1
sS'B00ZVJAF9G'
p2720
I2
sS'You'
p2721
I1
sS'CB288912155'
p2722
I1
sS'13233817011'
p2723
I1
sS'csl'
p2724
I3
sS'61Y'
p2725
I3
sS'7161074011'
p2726
I1
sS'3000x600'
p2727
I6
sS'201602060'
p2728
I1
sS'stripe'
p2729
I1
sS'everyday'
p2730
I1
sS'sbA'
p2731
I1
sS'2BsgCg'
p2732
I1
sS'3A7147440011'
p2733
I1
sS'Curb'
p2734
I1
sS'Shadow'
p2735
I2
sS'277'
p2736
I1
sS'css'
p2737
I149
sS'blank'
p2738
I2
sS'2BUbXlWeCd844NXZweQtaEbeNBndERV9jsEbIC2hXS22VomUZzsMTZ0cJFtK7JPZm'
p2739
I1
sS'fr'
p2740
I1
sS'AUIClients'
p2741
I54
sS'ft'
p2742
I4
sS'plans'
p2743
I2
sS'isSafari'
p2744
I2
sS'2FLy5w'
p2745
I1
sS'3Damazonhome'
p2746
I1
sS'Adapter'
p2747
I1
sS'List'
p2748
I5
sS'Handling'
p2749
I1
sS'altKey'
p2750
I1
sS'fb'
p2751
I2
sS'DOMContentLoaded'
p2752
I2
sS'6669702011'
p2753
I1
sS'sold'
p2754
I4
sS'01hvfEvfPgL'
p2755
I6
sS'Dual'
p2756
I14
sS'horizontal'
p2757
I8
sS'marginheight'
p2758
I1
sS'2BCLmpwoEJ5DQaQJ5tilaxxRaPqQrLZlJafbdESJsYZPu7EMOyLZGcB'
p2759
I1
sS'experienceStr'
p2760
I2
sS'CB289463249'
p2761
I1
sS'51pExJPTniL'
p2762
I6
sS'2FtAHhWVRYR9y3'
p2763
I1
sS'SX410'
p2764
I3
sS'Investor'
p2765
I1
sS'register'
p2766
I12
sS'2F8cefRHcA'
p2767
I1
sS'notfirst'
p2768
I1
sS'tabletDestination'
p2769
I20
sS'yourorders'
p2770
I1
sS'marginwidth'
p2771
I1
sS'crafts'
p2772
I2
sS'inline'
p2773
I134
sS'rentals'
p2774
I1
sS'egg'
p2775
I7
sS'BooksPanel'
p2776
I2
sS'Film'
p2777
I1
sS'8641'
p2778
I4
sS'Powersports'
p2779
I1
sS'Arial'
p2780
I1
sS'help'
p2781
I8
sS'custrec'
p2782
I4
sS'getTime'
p2783
I1
sS'isInternal'
p2784
I1
sS'SignUp'
p2785
I4
sS'Birthdays'
p2786
I2
sS'Components'
p2787
I2
sS'already'
p2788
I3
sS'498'
p2789
I2
sS'499'
p2790
I14
sS'shim'
p2791
I4
sS'OnloadFallbackSetup'
p2792
I1
sS'Supplies'
p2793
I11
sS'496'
p2794
I1
sS'497'
p2795
I4
sS'490'
p2796
I11
sS'stopPropagation'
p2797
I2
sS'492'
p2798
I3
sS'7CB0184DJYTW'
p2799
I1
sS'24'
p2800
I13
sS'25'
p2801
I5
sS'style'
p2802
I113
sS'27'
p2803
I4
sS'20'
p2804
I45
sS'21'
p2805
I13
sS'Vacuums'
p2806
I1
sS'Dessert'
p2807
I1
sS'2FQtuFk48ESiGMenHNM4leSCugS0a8J2MzmZbkhTRXKXbH1'
p2808
I1
sS'28'
p2809
I1
sS'29'
p2810
I2
sS'pct'
p2811
I2
sS'appendTo'
p2812
I1
sS'currentTarget'
p2813
I8
sS'CB327533537'
p2814
I1
sS'B00T85P56C'
p2815
I2
sS'41gDmblHjGL'
p2816
I5
sS'DSCW830'
p2817
I3
sS'parseInt'
p2818
I1
sS'Vinyl'
p2819
I2
sS'21px'
p2820
I1
sS'return'
p2821
I90
sS'yl'
p2822
I1
sS'resizable'
p2823
I1
sS'food'
p2824
I2
sS'herotator'
p2825
I19
sS'2B6lQtMPwuYYxM0FynxPU'
p2826
I1
sS'2FVsV2'
p2827
I1
sS'2X'
p2828
I2
sS'L'
p2829
I12
sS'2BWiGIxwyWymtE7Gnxf01pAGEEvtbsfl26Q'
p2830
I1
sS'Bag'
p2831
I2
sS'2F'
p2832
I34
sS'2B'
p2833
I5
sS'B00VKIY9RG'
p2834
I1
sS'communities'
p2835
I6
sS'Angle'
p2836
I8
sS'B00Q4O255E'
p2837
I5
sS'9vpzZueNucS8hPqoGpZ5r10Nr2'
p2838
I1
sS'256346011'
p2839
I1
sS'51371'
p2840
I2
sS'ROAmjtEdXlNaCOJOAs96CKEQdL2sfNDZYo0hi3LZzbuINTF1WP4BIJd'
p2841
I1
sS'41MR2MMPbBL'
p2842
I6
sS'24GB'
p2843
I2
sS'priceClass'
p2844
I1
sS'accessoriesNavView'
p2845
I1
sS'jsutil'
p2846
I2
sS'2x'
p2847
I43
sS'events'
p2848
I54
sS'2Fqs'
p2849
I1
sS'Tile'
p2850
I7
sS'testTransform3d'
p2851
I2
sS'25736a9bbb6a2a3ba6fdf9837ff7d7fbdb41de11'
p2852
I1
sS'B00T85PUJY'
p2853
I2
sS'NylaWYL'
p2854
I2
sS'Sport'
p2855
I12
sS'fund'
p2856
I1
sS'2FJ5TeKv2MWb9MtqGxXPQ'
p2857
I1
sS'status'
p2858
I7
sS'Pilu'
p2859
I1
sS'Built'
p2860
I13
sS'weight'
p2861
I7
sS'Rose'
p2862
I5
sS'CB287747008'
p2863
I1
sS'300mm'
p2864
I3
sS'Sports'
p2865
I16
sS'333333'
p2866
I1
sS'2BOZspsrWZW4L9UHieTNsnX86LkgbQ'
p2867
I1
sS'personalization'
p2868
I1
sS'51Ox8BCvtfL'
p2869
I5
sS'w2j2pUoyPUeilyLyI8kWLoKz6FLJo1xLgH5OP5CNP'
p2870
I1
sS'Reading'
p2871
I1
sS'event'
p2872
I3
sS'4em'
p2873
I1
sS'More'
p2874
I5
sS'11051399011'
p2875
I1
sS'deals'
p2876
I6
sS'2Becxf9jWcj'
p2877
I1
sS'Medium'
p2878
I6
sS'Moranis'
p2879
I1
sS'B00PB7TFZS'
p2880
I5
sS'cssText'
p2881
I1
sS'1AY4RS4MFF6EY3PTSMQH'
p2882
I1
sS'publish'
p2883
I3
sS'MediaBuilder'
p2884
I2
sS'freshHoverCount'
p2885
I11
sS'health'
p2886
I9
sS'7'
p2887
I40
sS'createSimLink'
p2888
I2
sS'offline'
p2889
I1
sS'Signal'
p2890
I10
sS'51h4ZUGw0IL'
p2891
I1
sS'4px'
p2892
I1
sS'977'
p2893
I1
sS'kidsbabyclothing'
p2894
I2
sS'416HMzw3fhL'
p2895
I6
sS'wishlistContent'
p2896
I1
sS'timeline'
p2897
I4
sS'EF'
p2898
I8
sS'tradein'
p2899
I1
sS'bookdepository'
p2900
I1
sS'S7000'
p2901
I2
sS'quick'
p2902
I9
sS'base'
p2903
I10
sS'Delivery'
p2904
I1
sS'members'
p2905
I3
sS'POST'
p2906
I1
sS'setTimeout'
p2907
I5
sS'B015E8UTIU'
p2908
I5
sS'EaseOfUse'
p2909
I4
sS'rect'
p2910
I36
sS'CB248984170'
p2911
I1
sS'faucet'
p2912
I1
sS'Mutant'
p2913
I4
sS'hiRes'
p2914
I1
sS'BL'
p2915
I3
sS'SponsoredLinksGateway'
p2916
I1
sS'computers'
p2917
I8
sS'2BhVzCOBjAA'
p2918
I1
sS'1E4'
p2919
I1
sS'w'
p2920
I7
sS'CB290920508'
p2921
I1
sS'KNnBDQNHliFwj1xHv4mpyX0gV7ZCk'
p2922
I1
sS'11453461011'
p2923
I1
sS'tabindex'
p2924
I15
sS'feed'
p2925
I249
sS'logUet'
p2926
I6
sS'2402172011'
p2927
I2
sS'encoding'
p2928
I145
sS'417Qg00KkRL'
p2929
I6
sS'isDesktop'
p2930
I2
sS'Fri'
p2931
I1
sS'misc'
p2932
I1
sS'mId'
p2933
I5
sS'logUex'
p2934
I2
sS'hamsters'
p2935
I1
sS'pop'
p2936
I3
sS'B00DD1UQ3Y'
p2937
I5
sS'cb'
p2938
I1
sS'Combo'
p2939
I20
sS'housewares'
p2940
I2
sS'uByrAJqpnxuXWRDNbbjsKZ92Zr4HR5AAcBaqpFH1ubsIIO6g5v2m3mwVKOdUib75NhBGKPjLhkc8MYGGdQoORU48xUr2rTaaK9oL51TQowCeNtYEShWkL'
p2941
I1
sS'promoType'
p2942
I20
sS'2Fselling'
p2943
I1
sS'navBackToTop'
p2944
I1
sS'texttrace'
p2945
I2
sS'EndNav'
p2946
I1
sS'23px'
p2947
I1
sS'4182j3jeLmL'
p2948
I2
sS'B00LI0VA4Q'
p2949
I1
sS'script'
p2950
I39
sS'gourmet'
p2951
I2
sS'CB309092179'
p2952
I1
sS'Wgvtj3ETgvjsnkDmb8OBrDN5yE60A1iwQUeKrUXkU6Wo'
p2953
I1
sS'2226766011'
p2954
I1
sS'978'
p2955
I3
sS'2BqES'
p2956
I1
sS'2F4sG'
p2957
I1
sS'ourPrice'
p2958
I2
sS'181'
p2959
I1
sS'186'
p2960
I3
sS'2BpRH28jyboXuNaoG0KTd3Difc'
p2961
I1
sS'2BYRwq1WAsDk2tY4MXee'
p2962
I1
sS'newSims'
p2963
I4
sS'X2'
p2964
I4
sS'51gXMCi999L'
p2965
I5
sS'YourPrimePIV'
p2966
I1
sS'Transparent'
p2967
I2
sS'store'
p2968
I5
sS'schema'
p2969
I2
sS'Cameras'
p2970
I1
sS'option'
p2971
I90
sS'2FNCuBKOF3SCo'
p2972
I2
sS'PowerShot'
p2973
I9
sS'us4'
p2974
I1
sS'Become'
p2975
I2
sS'selector'
p2976
I2
sS'HERO4'
p2977
I68
sS'innerHTML'
p2978
I1
sS'XR'
p2979
I6
sS'issOpts'
p2980
I15
sS'sign'
p2981
I8
sS'B00T3ER1OW'
p2982
I2
sS'Lenses'
p2983
I5
sS'jquery'
p2984
I2
sS'grocery'
p2985
I9
sS'X1'
p2986
I1
sS'10192821011'
p2987
I1
sS'Hunger'
p2988
I6
sS'double'
p2989
I4
sS'B009O94W3E'
p2990
I5
sS'png8'
p2991
I1
sS'setAttribute'
p2992
I4
sS'XdLWnbs6X6EEGSX'
p2993
I1
sS'ZenFone'
p2994
I6
sS'2024'
p2995
I1
sS'game'
p2996
I2
sS'Starter'
p2997
I22
sS'Toys'
p2998
I8
sS'2FLF27KlkQe7nP60cOv2zFXSaOUystkSrlQtqiD'
p2999
I1
sS'kindle'
p3000
I49
sS'Extinction'
p3001
I4
sS'declare'
p3002
I83
sS'Silver'
p3003
I8
sS'10772747011'
p3004
I1
sS'880'
p3005
I1
sS'2Bz'
p3006
I1
sS'closeButton'
p3007
I1
sS'12700574011'
p3008
I1
sS'9961016011'
p3009
I1
sS'0KMWKFSJHKBK9MZEREVE'
p3010
I1
sS'B014K4Q0CI'
p3011
I5
sS'Orange'
p3012
I4
sS'tertiary'
p3013
I3
sS'BuEn19qM62VlJz5K8etzIKWOf1XWZPWSfg4dTaNAzuDYUbw60kj8QAo'
p3014
I1
sS'headings'
p3015
I1
sS'fiona'
p3016
I5
sS'Yoyo'
p3017
I1
sS'null'
p3018
I279
sS'2F60yA'
p3019
I1
sS'2BGpbYN2MYj0VSxkykQl'
p3020
I1
sS'sell'
p3021
I1
sS'41NI83uayEL'
p3022
I12
sS'DF0CFA9EECFD0DEDEAE6094981480E48DBC1E112'
p3023
I1
sS'16310101'
p3024
I1
sS'lib'
p3025
I2
sS'Food'
p3026
I3
sS'ZHdUorCK7Q'
p3027
I1
sS'cave'
p3028
I1
sS'cropped'
p3029
I18
sS'subnav'
p3030
I4
sS'also'
p3031
I2
sS'B00I8BICB2'
p3032
I2
sS'Germany'
p3033
I1
sS'build'
p3034
I7
sS'2BI'
p3035
I1
sS'mx'
p3036
I1
sS'Alpha'
p3037
I3
sS'banjo'
p3038
I1
sS'With'
p3039
I3
sS'Wishlist'
p3040
I2
sS'2BA'
p3041
I1
sS'352'
p3042
I1
sS'Recreation'
p3043
I1
sS'hires'
p3044
I27
sS'351'
p3045
I1
sS'Photo'
p3046
I3
sS'bluebeacon'
p3047
I6
sS'In'
p3048
I15
sS'M'
p3049
I5
sS'Orbit'
p3050
I3
sS'SX880'
p3051
I1
sS'77'
p3052
I2
sS'76'
p3053
I1
sS'75'
p3054
I8
sS'74'
p3055
I2
sS'73'
p3056
I3
sS'72'
p3057
I2
sS'B00RKNND2W'
p3058
I2
sS'70'
p3059
I5
sS'services'
p3060
I9
sS'alpha'
p3061
I1
sS'The'
p3062
I19
sS'880x400'
p3063
I1
sS'79'
p3064
I4
sS'78'
p3065
I3
sS'ka'
p3066
I3
sS'1040'
p3067
I1
sS'priceformatterJQ'
p3068
I2
sS'7147443011'
p3069
I1
sS'pUrls'
p3070
I2
sS'mobile'
p3071
I8
sS'clear'
p3072
I3
sS'readyOnATF'
p3073
I1
sS'2FZmhBSVg'
p3074
I1
sS'Forerunner'
p3075
I6
sS'266'
p3076
I1
sS'Port'
p3077
I6
sS'3Fnode'
p3078
I1
sS'ext'
p3079
I1
sS'Cost'
p3080
I1
sS'gwPrimeMusicBoldText'
p3081
I2
sS'B014JR51T4'
p3082
I4
sS'exp'
p3083
I1
sS'CB320013542'
p3084
I1
sS'358'
p3085
I1
sS'Speed'
p3086
I18
sS'DWP849X'
p3087
I5
sS'Cloud'
p3088
I10
sS'Side1'
p3089
I1
sS'Corporate'
p3090
I2
sS'2BRWYjmpwAkp4ZrHH1nTCCiw'
p3091
I1
sS'issPrimeEligible'
p3092
I3
sS'CB288332786'
p3093
I1
sS'1263'
p3094
I1
sS'660'
p3095
I1
sS'United'
p3096
I1
sS'blackbelt'
p3097
I1
sS'simsImgLinks'
p3098
I3
sS'userAgent'
p3099
I3
sS'Fitness'
p3100
I2
sS'font'
p3101
I16
sS'fine'
p3102
I1
sS'find'
p3103
I9
sS'benefits'
p3104
I2
sS'440px'
p3105
I4
sS'completion'
p3106
I2
sS'cell'
p3107
I1
sS'14775'
p3108
I3
sS'Service'
p3109
I2
sS'music'
p3110
I32
sS'51W3A'
p3111
I5
sS'SX400'
p3112
I2
sS'211'
p3113
I2
sS'Explore'
p3114
I1
sS'Sellers'
p3115
I1
sS'failed'
p3116
I1
sS'Jaybird'
p3117
I6
sS'B006GLM7IK'
p3118
I1
sS'B008D6IDIO'
p3119
I3
sS'sd'
p3120
I1
sS'override'
p3121
I6
sS'8'
p3122
I20
sS'410m0OfMWEL'
p3123
I6
sS'Based'
p3124
I1
sS'CB292490898'
p3125
I1
sS'Prime'
p3126
I127
sS'trimText'
p3127
I1
sS'template'
p3128
I31
sS'importEvent'
p3129
I3
sS'renderItems'
p3130
I5
sS'CB387356454'
p3131
I1
sS'financing'
p3132
I1
sS'subPageType'
p3133
I1
sS'gwLaunchPlayerV1'
p3134
I2
sS'AMAZON'
p3135
I5
sS'issObject'
p3136
I2
sS'218'
p3137
I6
sS'OFT'
p3138
I1
sS'FLYOUTS'
p3139
I1
sS'during'
p3140
I2
sS'banner'
p3141
I1
sS'2B3YjFwndaSjmL3abQlubpFkqaPIvfBGExg3FQ'
p3142
I1
sS'target'
p3143
I4
sS'ie9'
p3144
I6
sS'B00CD9JOK8'
p3145
I2
sS'beforeUpdateBind'
p3146
I2
sS'Help'
p3147
I3
sS'SX530'
p3148
I3
sS'2FTsZUXGFH9'
p3149
I1
sS'broadband'
p3150
I2
sS'Powerful'
p3151
I1
sS'remove'
p3152
I1
sS'Bluetooth'
p3153
I31
sS'isTablet'
p3154
I2
sS'B00T6UD7BY'
p3155
I2
sS'4156oCaTngL'
p3156
I2
sS'common'
p3157
I16
sS'B00ISH5K20'
p3158
I2
sS'014PM'
p3159
I3
sS'B00PB7TDLY'
p3160
I5
sS'x'
p3161
I35
sS'51We979ipcL'
p3162
I6
sS'2FpKiPAS0ce4Tr6W8QtVP2SQC'
p3163
I1
sS'Notifications'
p3164
I1
sS'2FKAHBL3cd'
p3165
I2
sS'CB392399058'
p3166
I1
sS'DCS391B'
p3167
I6
sS'319'
p3168
I1
sS'AZUSSOA'
p3169
I1
sS'art'
p3170
I1
sS'Essentials'
p3171
I1
sS'5198OX0FxyL'
p3172
I6
sS'locale'
p3173
I33
sS'64GB'
p3174
I4
sS'311'
p3175
I2
sS'310'
p3176
I1
sS'317'
p3177
I2
sS'316'
p3178
I3
sS'315'
p3179
I1
sS'France'
p3180
I1
sS'mithc'
p3181
I3
sS'6708'
p3182
I1
sS'see'
p3183
I18
sS'V323939215'
p3184
I1
sS'CB292541419'
p3185
I1
sS'9013971011'
p3186
I1
sS'11435470011'
p3187
I1
sS'recording'
p3188
I2
sS'Printer'
p3189
I2
sS'GET'
p3190
I1
sS'Zorro'
p3191
I3
sS'please'
p3192
I2
sS'Phone'
p3193
I33
sS'CB375965495'
p3194
I1
sS'rrid'
p3195
I1
sS'Deal'
p3196
I1
sS'Beam'
p3197
I3
sS'Part'
p3198
I3
sS'navFooterLinkCol'
p3199
I4
sS'CB289161455'
p3200
I1
sS'2B3AdNEb'
p3201
I1
sS'B1UzL'
p3202
I6
sS'Sony'
p3203
I16
sS'Brushless'
p3204
I6
sS'CB288329383'
p3205
I1
sS'3Fie'
p3206
I10
sS'available'
p3207
I1
sS'popup'
p3208
I2
sS'recently'
p3209
I1
sS'slotName'
p3210
I5
sS'Gaming'
p3211
I1
sS'2Bb0ghzqftfHtceHZe7m8L'
p3212
I1
sS'B00JBJ3JBI'
p3213
I5
sS'javascript'
p3214
I38
sS'B00XNQECFM'
p3215
I1
sS'2Fidentifier'
p3216
I4
sS'Vivo'
p3217
I4
sS'B00AANQLRI'
p3218
I5
sS'horizOffset'
p3219
I20
sS'416CAvfEqkL'
p3220
I2
sS'Dane'
p3221
I1
sS'navbarSpriteUrl'
p3222
I2
sS'CB395592492'
p3223
I2
sS'4057'
p3224
I1
sS'Mu'
p3225
I1
sS'c'
p3226
I56
sS'3760901'
p3227
I1
sS'last'
p3228
I8
sS'Flyout'
p3229
I3
sS'B00MILGKPI'
p3230
I3
sS'517blCGZzDL'
p3231
I5
sS'pdt'
p3232
I1
sS'b1'
p3233
I1
sS'6563140011'
p3234
I1
sS'preloadImgPath'
p3235
I1
sS'connection'
p3236
I1
sS'scarcityClass'
p3237
I1
sS'2BQCm7zwNAMPQdIB1rEoBDQVNIU73NRLDJ8Kk3sFv32iqkwmUIj1i8e1'
p3238
I1
sS'Violet'
p3239
I6
sS'51744'
p3240
I2
sS'990982538'
p3241
I1
sS'pdb'
p3242
I19
sS'2FXMEbgP0ca1ZpE6XydjQj2dpLFrBnhbzzfHMg3kbtPDq9MNBeDGNJKJvOdwr6meyr1Yc'
p3243
I1
sS'51bbeKL'
p3244
I2
sS'load'
p3245
I10
sS'geolocation'
p3246
I2
sS'2o'
p3247
I1
sS'customerName'
p3248
I1
sS'2F8kvM'
p3249
I1
sS'Wag'
p3250
I1
sS'resetSimView'
p3251
I2
sS'attributeErrors'
p3252
I1
sS'2FdbpguKAnix'
p3253
I1
sS'2BMb0vfuhUtujZ7vd11WrpKWNq4vkfblg2F6i0W6SGog'
p3254
I1
sS'header'
p3255
I8
sS'globals'
p3256
I2
sS'706813011'
p3257
I1
sS'Online'
p3258
I5
sS'1GWPMG0K5JVQ2S33S0CS1'
p3259
I1
sS'Reciprocating'
p3260
I3
sS'1GWPMG0K5JVQ2S33S0CS3'
p3261
I1
sS'2EF4DF105FC57E2F8FA2BB129755A3E03E343571'
p3262
I1
sS'1M06GF7GC444FYSWRCYJ'
p3263
I2
sS'1GWPMG0K5JVQ2S33S0CS7'
p3264
I1
sS'belt'
p3265
I1
sS'pr'
p3266
I2
sS'979455011'
p3267
I1
sS'Play'
p3268
I2
sS'FASHION'
p3269
I5
sS'swm'
p3270
I4
sS'tmmJS'
p3271
I2
sS'swn'
p3272
I2
sS'casa'
p3273
I1
sS'px'
p3274
I5
sS'2FD5'
p3275
I1
sS'Cart'
p3276
I6
sS'marketId'
p3277
I4
sS'pc'
p3278
I7
sS'Train'
p3279
I2
sS'pf'
p3280
I144
sS'God'
p3281
I1
sS'DigitalMusicPanel'
p3282
I2
sS'Fan'
p3283
I2
sS'17333'
p3284
I3
sS'41pFqJ9hWHL'
p3285
I1
sS'Card'
p3286
I8
sS'Women'
p3287
I2
sS'charAt'
p3288
I1
sS'1077068'
p3289
I1
sS'fire'
p3290
I8
sS'SearchJS'
p3291
I16
sS'Months'
p3292
I3
sS'else'
p3293
I23
sS'loadCompleted'
p3294
I4
sS'QDJRXRCL'
p3295
I5
sS'Switch'
p3296
I1
sS'AmazonGatewayAuiAssets'
p3297
I2
sS'hasOwnProperty'
p3298
I5
sS'Drill'
p3299
I13
sS'imgLink'
p3300
I2
sS'2BxyMp6F8BlA'
p3301
I1
sS'wedding'
p3302
I2
sS'Starting'
p3303
I1
sS'searchCSL'
p3304
I6
sS'dpreview'
p3305
I1
sS'16px'
p3306
I2
sS'look'
p3307
I11
sS'B016LMQG5S'
p3308
I1
sS'B00006JKXE'
p3309
I3
sS'Sales'
p3310
I1
sS'36701'
p3311
I27
sS'MITHC'
p3312
I1
sS'CB391853216'
p3313
I9
sS'1001166401'
p3314
I1
sS'B016LMQHES'
p3315
I1
sS'error'
p3316
I22
sS'Marketplace'
p3317
I2
sS'286'
p3318
I1
sS'2FDd'
p3319
I1
sS'guide'
p3320
I1
sS'3689044428'
p3321
I1
sS'navFooter'
p3322
I2
sS'Incorrect'
p3323
I1
sS'City'
p3324
I1
sS'aa'
p3325
I1
sS'isTriggerIssOnClick'
p3326
I1
sS'Italy'
p3327
I1
sS'4M5'
p3328
I2
sS'37'
p3329
I1
sS'5088769011'
p3330
I1
sS'binding'
p3331
I1
sS'jpg'
p3332
I739
sS'B011HT91DO'
p3333
I5
sS'decoration'
p3334
I3
sS'XT1575'
p3335
I4
sS'11kT37JrigL'
p3336
I2
sS'Cd2I9EaACxxL4IuknG4flLlF2sbSVupeyls01MkwqIqbRMXQNHART3U6hBE0UiMEHnpJReKJs0puWasQAPZWGuICf'
p3337
I1
sS'sR1XgqNoY2uurDtfrI1U1vcDgPV0YIkts0SffTOahmM'
p3338
I1
sS'audiobooks'
p3339
I1
sS'facade'
p3340
I2
sS'rid'
p3341
I5
sS'18px'
p3342
I2
sS'obfMkt'
p3343
I1
sS'decor'
p3344
I1
sS'ewc'
p3345
I1
sS'B013HSW4N2'
p3346
I5
sS'incredible'
p3347
I1
sS'Get'
p3348
I6
sS'orders'
p3349
I13
sS'read'
p3350
I1
sS'2FrTcrXpWcuXmFPfdYq2JgvYDClbbKBeVw2MLV3pkoAvO2s1FNeR5A'
p3351
I1
sS'41CfbR97ztL'
p3352
I6
sS'2FCeMnGl2ktu42ZWXsDXE1jy9lmo0oK5'
p3353
I1
sS'boxShadow'
p3354
I1
sS'9'
p3355
I21
sS'wLkPEkbXrNrp8EGFZebXCG9t'
p3356
I2
sS'Silk'
p3357
I1
sS'B00HZ3C4N6'
p3358
I2
sS'1000493771'
p3359
I1
sS'8209720011'
p3360
I1
sS'IMPACT'
p3361
I4
sS'About'
p3362
I2
sS'used'
p3363
I1
sS'895'
p3364
I1
sS'2FNRt3uzsfxfGvCvkBW0V'
p3365
I1
sS'ratings'
p3366
I1
sS'Charger'
p3367
I15
sS'VALIDATIONS'
p3368
I1
sS'468496'
p3369
I1
sS'164734381262'
p3370
I1
sS'Movies'
p3371
I9
sS'001'
p3372
I2
sS'000'
p3373
I15
sS'2BMmaIQMttsW4fixdbBkA063'
p3374
I1
sS'gwCFImgNoCache'
p3375
I1
sS'Activity'
p3376
I12
sS'bluray'
p3377
I2
sS'apponly'
p3378
I1
sS'Power'
p3379
I11
sS'2B8sVb49orc61qrs4'
p3380
I1
sS'262'
p3381
I1
sS'rules'
p3382
I2
sS'432'
p3383
I1
sS'317971011'
p3384
I1
sS'2FhEszQpi0D2a'
p3385
I1
sS'2BW'
p3386
I1
sS'Rate'
p3387
I4
sS'B00NIYNUF2'
p3388
I7
sS'3DAZUSVAS'
p3389
I1
sS'y'
p3390
I2
sS'500500'
p3391
I1
sS'Tools'
p3392
I13
sS'spend'
p3393
I2
sS'B00XIV00EO'
p3394
I1
sS'BUILD'
p3395
I1
sS'sims'
p3396
I57
sS'Living'
p3397
I2
sS'DvFAtJaJXisElQZd3Bhv3UFpEj8JGoekZEFJIT8XWBHfkjQVzQYGGTVfv6FQXAPVm2T3GD0tzT5oJX'
p3398
I1
sS'31574FFRCgL'
p3399
I6
sS'toolshomeimprovement'
p3400
I2
sS'CB291227623'
p3401
I2
sS'nostyle'
p3402
I8
sS'Handmade'
p3403
I5
sS'2Bg8BppCDN'
p3404
I1
sS'assoc'
p3405
I2
sS'getContext'
p3406
I1
sS'CB288279865'
p3407
I4
sS'shape'
p3408
I45
sS'Tyler'
p3409
I3
sS'questions'
p3410
I1
sS'amp'
p3411
I97
sS'2B0jBViEG2acBhMCmq5Oo8mXxc7xJJ'
p3412
I1
sS'sidebar'
p3413
I1
sS'setsize'
p3414
I6
sS'alignment'
p3415
I9
sS'Leisure'
p3416
I1
sS'e7cbed660fa8a177e989dabe6c191db28ca98a54'
p3417
I1
sS'searchDropdownBox'
p3418
I2
sS'hiking'
p3419
I1
sS'tablet'
p3420
I9
sS'readers'
p3421
I6
sS'1076'
p3422
I3
sS'1077'
p3423
I3
sS'PLCCGNO'
p3424
I1
sS'58736'
p3425
I2
sS'nearby'
p3426
I1
sS'rsaquo'
p3427
I1
sS'Holidays'
p3428
I1
sS'Astro'
p3429
I3
sS'source'
p3430
I12
sS'GoPro'
p3431
I111
sS'11XkfseId'
p3432
I6
sS'parents'
p3433
I1
sS'location'
p3434
I13
sS'ray'
p3435
I1
sS'Hands'
p3436
I6
sS'Sylvester'
p3437
I1
sS'input'
p3438
I9
sS'160px'
p3439
I1
sS'2BpiiUnOt'
p3440
I1
sS'Robert'
p3441
I1
sS'finder'
p3442
I1
sS'imeSpacing'
p3443
I2
sS'283155'
p3444
I3
sS'dividerBefore'
p3445
I25
sS'firstVisibleItem'
p3446
I1
sS'Glory'
p3447
I3
sS'format'
p3448
I3
sS'41rMfUQjRcL'
p3449
I6
sS'675'
p3450
I1
sS'Direct'
p3451
I2
sS'2Cp'
p3452
I2
sS'DW089K'
p3453
I3
sS'Air'
p3454
I4
sS'5145FNNM1BL'
p3455
I5
sS'2Cn'
p3456
I24
sS'2BRUmrODlfOG3iUmKFtSHiV7vr0Nq0ojXCdFuMQb5VSUHHcYYA'
p3457
I1
sS'Requests'
p3458
I1
sS'yBJPbKuqXaHsqWkatgRx8OZWy58sfyuPDI5JRJE9ovDn'
p3459
I1
sS'projects'
p3460
I2
sS'3A7147444011'
p3461
I1
sS'B00CSDIK9U'
p3462
I5
sS'd'
p3463
I31
sS'cartContent'
p3464
I1
sS'9442493011'
p3465
I1
sS'2Fk608WIs'
p3466
I1
sS'OC'
p3467
I1
sS'10192825011'
p3468
I1
sS'separately'
p3469
I6
sS'2FHmy'
p3470
I1
sS'Bank'
p3471
I6
sS'popular'
p3472
I2
sS'52036'
p3473
I2
sS'5c'
p3474
I8
sS'OS'
p3475
I7
sS'Selfie'
p3476
I8
sS'30x'
p3477
I2
sS'CB290134841'
p3478
I1
sS'google'
p3479
I2
sS'3Fsc'
p3480
I1
sS'WithTitles'
p3481
I4
sS'01Arpwx2zHL'
p3482
I6
sS'back'
p3483
I1
sS'canAddToCart'
p3484
I169
sS'additionalSpace'
p3485
I3
sS'streaming'
p3486
I3
sS'1480'
p3487
I1
sS'pricing'
p3488
I12
sS'voice'
p3489
I2
sS'5'
p3490
I233
sS'KindleReaderPanel'
p3491
I2
sS'10192831011'
p3492
I1
sS'retry'
p3493
I1
sS'jewelry'
p3494
I12
sS'Pricing'
p3495
I1
sS'Fire'
p3496
I31
sS'Conditions'
p3497
I1
sS'RPM'
p3498
I4
sS'pros'
p3499
I1
sS'Scalable'
p3500
I1
sS'seller'
p3501
I2
sS'B00002232S'
p3502
I3
sS'central'
p3503
I2
sS'1250'
p3504
I1
sS'Vacuum'
p3505
I4
sS'AMP'
p3506
I3
sS'6800426958'
p3507
I1
sS'Holder'
p3508
I4
sS'UP3'
p3509
I4
sS'program'
p3510
I1
sS'308'
p3511
I1
sS'Boy'
p3512
I3
sS'Stabilized'
p3513
I6
sS'run'
p3514
I11
sS'Look'
p3515
I1
sS'bb'
p3516
I4
sS'300'
p3517
I23
sS'301'
p3518
I1
sS'302'
p3519
I1
sS'304'
p3520
I2
sS'Customers'
p3521
I1
sS'O'
p3522
I1
sS'Antonio'
p3523
I1
sS'2FMhljDUMk7ZDHGasQ'
p3524
I1
sS'41zr3x7Mw3L'
p3525
I6
sS'sim'
p3526
I14
sS'51sf7y8LKpL'
p3527
I5
sS'2BG85EmoVtAYDJ6JK9yonuzSAHueSnU'
p3528
I1
sS'br'
p3529
I72
sS'timedOut'
p3530
I2
sS'CB305770688'
p3531
I1
sS'Hello'
p3532
I1
sS'B00T85PH2Y'
p3533
I2
sS'Pack'
p3534
I8
sS'goods'
p3535
I2
sS'2BgtdudMgftzYf3c6XPijAZNR3M17pNbErbjXWXm'
p3536
I1
sS'anything'
p3537
I2
sS'B00WV69ZI4'
p3538
I5
sS'dataNavRole'
p3539
I2
sS'simsLoading'
p3540
I5
sS'DWE7480XA'
p3541
I6
sS'page'
p3542
I10
sS'searchAliasDisplayName'
p3543
I1
sS'2Bb9UoDrUix2Pcu7Tt9EIKB1PBgHMK'
p3544
I1
sS'pkC5BO8k41937bGT4WU2OoI00vpxiaO'
p3545
I1
sS'fallbackFlag'
p3546
I2
sS'headline'
p3547
I2
sS'modal'
p3548
I6
sS'Strap'
p3549
I4
sS'watchlist'
p3550
I2
sS'41arOcWNtwL'
p3551
I5
sS'womens'
p3552
I7
sS'2BJbHH2CNc9Q3knAWFHmDixSydvsx98HvHVRlIPJWrgyrKv8vb2yCcG2cyP3LcdS3029Fvz3bpZC2qLPT7MR1rsjA'
p3553
I1
sS'block'
p3554
I165
sS'repair'
p3555
I2
sS'Netherlands'
p3556
I1
sS'Simon'
p3557
I1
sS'71'
p3558
I1
sS'Neo'
p3559
I6
sS'2FpSFQuK2T9a44w5C1g'
p3560
I1
sS'FastCookies'
p3561
I4
sS'2BxilXL01z6qR6LyKS0ZaqDTQLqik6RG35IATcbEUrfnc64OzC8IRlz28t7cAXgA'
p3562
I1
sS'CB192250695'
p3563
I4
sS'jmrq4nIPPGLYywNJn'
p3564
I1
sS'Everything'
p3565
I5
sS'31XbRoxIfDL'
p3566
I6
sS'seasons'
p3567
I1
sS'computer'
p3568
I2
sS'51WuZi2NWVL'
p3569
I5
sS'16GB'
p3570
I26
sS'Automation'
p3571
I1
sS'kkuL7L'
p3572
I6
sS'2FzUwBHTnU5VpUfxQmciRyDu3KQG'
p3573
I1
sS'193870011'
p3574
I1
sS'Televisions'
p3575
I1
sS'workout'
p3576
I1
sS'Used'
p3577
I1
sS'span'
p3578
I941
sS'classical'
p3579
I1
sS'B016LMQHDO'
p3580
I1
sS'Megan'
p3581
I1
sS'Lists'
p3582
I2
sS'custom'
p3583
I1
sS'screenReaderOn'
p3584
I1
sS'searchAlias'
p3585
I1
sS'SOHO'
p3586
I4
sS'2FYLTIVgM4qQxHjLOdPIzonibOrJxD7LtJ'
p3587
I1
sS'cmpnId'
p3588
I5
sS'Variable'
p3589
I14
sS'nowrap'
p3590
I2
sS'2FWoxoEQeflyGyq6z4jHHbS0Gu5RBsQtByGg'
p3591
I1
sS'Steel'
p3592
I10
sS'swms'
p3593
I1
sS'19530'
p3594
I2
sS'B00J34YO92'
p3595
I2
sS'B00SKOCRCW'
p3596
I3
sS'96px'
p3597
I1
sS'registered'
p3598
I1
sS'anywhere'
p3599
I1
sS'simsSection'
p3600
I6
sS'Deals'
p3601
I39
sS'boys'
p3602
I7
sS'serif'
p3603
I3
sS'link'
p3604
I210
sS'CB289223715'
p3605
I1
sS'createElement'
p3606
I10
sS'line'
p3607
I18
sS'5169XWQsgdL'
p3608
I5
sS'sdk'
p3609
I1
sS'info'
p3610
I1
sS'115'
p3611
I1
sS'utf'
p3612
I1
sS'ux'
p3613
I8
sS'Office'
p3614
I10
sS'Bell'
p3615
I1
sS'CB369764580'
p3616
I2
sS'1003016361'
p3617
I1
sS'Indoor'
p3618
I4
sS'preloadImgHeight'
p3619
I1
sS'us'
p3620
I26
sS'ul'
p3621
I30
sS'Books'
p3622
I23
sS'ui'
p3623
I3
sS'verification'
p3624
I1
sS'uk'
p3625
I1
sS'ue'
p3626
I34
sS'111'
p3627
I2
sS'z'
p3628
I61
sS'bath'
p3629
I1
sS'uber'
p3630
I8
sS'2Fdeveloper'
p3631
I1
sS'Subscribe'
p3632
I3
sS'accessibility'
p3633
I1
sS'doesn'
p3634
I1
sS'145px'
p3635
I1
sS'AReady'
p3636
I2
sS'single'
p3637
I2
sS'warning'
p3638
I1
sS'International'
p3639
I7
sS'Alexa'
p3640
I2
sS'2B7uSzQlpmcQAqqlhwTllfAbOg'
p3641
I1
sS'CB290104146'
p3642
I1
sS'B00BW9E1OO'
p3643
I3
sS'617o5s1Q3yL'
p3644
I2
sS'ysa12MYyMTCX1'
p3645
I1
sS'subtextKey'
p3646
I2
sS'2BLd9G9'
p3647
I1
sS'nositelinkssearchbox'
p3648
I1
sS'2Fgp'
p3649
I10
sS'TV'
p3650
I29
sS'Max'
p3651
I4
sS'water'
p3652
I1
sS'Advertise'
p3653
I1
sS'navFooterColHead'
p3654
I4
sS'V136632413'
p3655
I1
sS'TO'
p3656
I4
sS'Mac'
p3657
I3
sS'obfuscatedMarketId'
p3658
I2
sS'nav'
p3659
I547
sS'ATVPDKIKX0DER'
p3660
I35
sS'getElementsByTagName'
p3661
I1
sS'department'
p3662
I1
sS'Fasteners'
p3663
I1
sS'Coupons'
p3664
I1
sS'Fishing'
p3665
I2
sS'Case'
p3666
I2
sS'1102'
p3667
I1
sS'AC'
p3668
I555
sS'flyoutURL'
p3669
I1
sS'updateAutoCompletion'
p3670
I1
sS'2FzLp30hTdpTzqt5IuziUyTyKNKjV5zKgcwFepXodN'
p3671
I1
sS'Netflix'
p3672
I1
sS'pape'
p3673
I4
sS'T5'
p3674
I8
sS'adsystem'
p3675
I1
sS'CB315476058'
p3676
I1
sS'CB286442767'
p3677
I1
sS'T1'
p3678
I5
sS'HDTV'
p3679
I1
sS'61RYf0sn7eL'
p3680
I5
sS'B00DBYBNEE'
p3681
I1
sS'visibleItems'
p3682
I3
sS'Publishing'
p3683
I4
sS'Vendor'
p3684
I1
sS'subtextkey'
p3685
I1
sS'Audio'
p3686
I9
sS'102px'
p3687
I1
sS'Jawbone'
p3688
I6
sS'lang'
p3689
I1
sS'e'
p3690
I59
sS'Wearables'
p3691
I1
sS'2FjQ93JEsRVVJlKfl'
p3692
I1
sS'2FXNGsxNXMf3otOcRtaztOND4Q4cLv0X19yYGwaSEeRNUDrip4Kkgdc82C1YTGnAc'
p3693
I1
sS'svg'
p3694
I3
sS'age'
p3695
I2
sS'vehicles'
p3696
I2
sS'pId'
p3697
I5
sS'yshURL'
p3698
I4
sS'departments'
p3699
I1
sS'An'
p3700
I6
sS'2000'
p3701
I1
sS'13234696011'
p3702
I2
sS'57388'
p3703
I2
sS'Manage'
p3704
I4
sS'fresh'
p3705
I14
sS'3250697011'
p3706
I1
sS'scroll'
p3707
I1
sS'gw'
p3708
I212
sS'gt'
p3709
I3
sS'partial'
p3710
I1
sS'3A9479199011'
p3711
I1
sS'B00Z81S3ZA'
p3712
I14
sS'gp'
p3713
I119
sS'41HOeBlg'
p3714
I6
sS'2BUIWKv0CL'
p3715
I5
sS'Self'
p3716
I10
sS'Time'
p3717
I8
sS'results'
p3718
I4
sS'upnav2xAiryPostSlateImgInfo'
p3719
I1
sS'Privacy'
p3720
I1
sS'DCL043'
p3721
I3
sS'gc'
p3722
I2
sS'Asset'
p3723
I1
sS'dpSpritesCSS'
p3724
I1
sS'go'
p3725
I2
sS'51TFWk3TmbL'
p3726
I6
sS'searchbar'
p3727
I1
sS'ms9QKvs0WTBjVdAYqT2AtE6eOGbSa'
p3728
I1
sS'9be9303a9c7e50d2052d00e0131b6df124a11aed'
p3729
I1
sS'Catastrophe'
p3730
I1
sS'2BPSht6F1ULifeuLstzz8ESpdalC7bgMdJ89HxZIX2sZEqxHipogd31LXHvSbFF7Gqy8uhCLefeAmqZAiSgbOfavQIUkOMA'
p3731
I1
sS'3D230659011'
p3732
I1
sS'Notice'
p3733
I1
sS'ClothingShoesJewelryPanel'
p3734
I2
sS'displayCtw'
p3735
I5
sS'Business'
p3736
I6
sS'51cyG6SNdnL'
p3737
I5
sS'dismissnotification'
p3738
I1
sS'Object'
p3739
I1
sS'primeclub'
p3740
I1
sS'41Sm09iIRdL'
p3741
I6
sS'affiliates'
p3742
I1
sS'10659983011'
p3743
I1
sS'Registry'
p3744
I5
sS'11434959011'
p3745
I1
sS'details'
p3746
I7
sS'include'
p3747
I1
sS'markAF'
p3748
I2
sS'domReady'
p3749
I1
sS'showUWLPromo'
p3750
I1
sS'Flash'
p3751
I4
sS'garden'
p3752
I9
sS'2BHKXxL'
p3753
I6
sS'Kodi'
p3754
I1
sS'automotive'
p3755
I9
sS'DW2166'
p3756
I6
sS'2BPSw'
p3757
I1
sS'353413011'
p3758
I1
sS'a6000'
p3759
I2
sS'swmStyleData'
p3760
I1
sS'P'
p3761
I72
sS'2FoNVqYOOxdxgGWauNhPHZ0Z2JKioGGCwAFvT'
p3762
I1
sS'merge'
p3763
I1
sS'3403201'
p3764
I1
sS'1263363419'
p3765
I1
sS'Wheels'
p3766
I1
sS'navbarJS'
p3767
I1
sS'Sims'
p3768
I2
sS'entire'
p3769
I1
sS'recreation'
p3770
I2
sS'3Dba'
p3771
I1
sS'3Dfooter'
p3772
I1
sS'Hiking'
p3773
I1
sS'B016LMQBPI'
p3774
I1
sS'primeEventLoggingEnabled'
p3775
I1
sS'button'
p3776
I36
sS'Perrys'
p3777
I1
sS'try'
p3778
I8
sS'51Ss8gVuWKL'
p3779
I5
sS'B003VOW5WI'
p3780
I5
sS'1449220205025'
p3781
I1
sS'FFF'
p3782
I1
sS'primeFlyoutProfilingUrl'
p3783
I1
sS'B000051WQX'
p3784
I5
sS'componentFeedCarousel'
p3785
I16
sS'ff9900'
p3786
I1
sS'590'
p3787
I1
sS'448078902'
p3788
I1
sS'2Fv30JAaXy36LOMi4KqDgfvQyAIw4kcS9ZtA'
p3789
I1
sS'Blu'
p3790
I1
sS'417sMbb1a6L'
p3791
I6
sS'ctrlKey'
p3792
I1
sS'Long'
p3793
I4
sS'27600'
p3794
I1
sS'Camera'
p3795
I46
sS'video'
p3796
I28
sS'uex'
p3797
I6
sS'3L'
p3798
I6
sS'download'
p3799
I2
sS'uet'
p3800
I20
sS'3A'
p3801
I25
sS'41j6awKfGoL'
p3802
I6
sS'2FHu79gcS7RzB3cWjqnsxKhdamJZ8WS0kZCIeEWxqmHmu'
p3803
I1
sS'click'
p3804
I7
sS'append'
p3805
I7
sS'3D'
p3806
I144
sS'index'
p3807
I12
sS'370783011'
p3808
I2
sS'MarkCF'
p3809
I1
sS'dummyNode'
p3810
I2
sS'2BwICv0CCQ'
p3811
I1
sS'ComiXology'
p3812
I1
sS'cvox'
p3813
I1
sS'2B9oMxFNCkb6J4JVj8C0nn'
p3814
I1
sS'access'
p3815
I3
sS'Boys'
p3816
I3
sS'dynamicMenuUrl'
p3817
I1
sS'UX2250'
p3818
I5
sS'B00K26FZ9I'
p3819
I2
sS'Line'
p3820
I8
sS'addToCart'
p3821
I86
sS'3d'
p3822
I2
sS'body'
p3823
I3
sS'MarkAF'
p3824
I1
sS'449'
p3825
I1
sS'Motorola'
p3826
I6
sS'1339'
p3827
I1
sS'11w6gJ8xT3L'
p3828
I6
sS'B00XUP5M6Y'
p3829
I7
sS'FTV'
p3830
I7
sS'443'
p3831
I3
sS'51zLn9ivBiL'
p3832
I6
sS'createElementNS'
p3833
I2
sS'440'
p3834
I130
sS'spacing'
p3835
I11
sS'446'
p3836
I3
sS'445'
p3837
I1
sS'save'
p3838
I1
sS'itemContent'
p3839
I8
sS'CB349243534'
p3840
I1
sS'Green'
p3841
I11
sS'web'
p3842
I1
sS'2BK0GQHtKIcwMloTF1u2Jk6qnYr'
p3843
I1
sS'productTitle2'
p3844
I1
sS'searchAliases'
p3845
I3
sS'twotabsearchtextbox'
p3846
I1
sS'01pz7EOWc8L'
p3847
I6
sS'2B5fF9Mb99Ywi9W0mvHfoVkth'
p3848
I1
sS'authPortal'
p3849
I2
sS'39'
p3850
I7
sS'38'
p3851
I11
sS'ctr'
p3852
I2
sS'B00C7KXUOE'
p3853
I1
sS'32'
p3854
I7
sS'30'
p3855
I12
sS'41wx'
p3856
I6
sS'36'
p3857
I2
sS'35'
p3858
I2
sS'34'
p3859
I4
sS'signInOverride'
p3860
I1
sS'UX880'
p3861
I1
sS'products'
p3862
I15
sS'264x170'
p3863
I4
sS'CB287586666'
p3864
I2
sS'Internationally'
p3865
I1
sS'beautybar'
p3866
I1
sS'Gym'
p3867
I1
sS'cellphonesaccessories'
p3868
I2
sS'CB287586661'
p3869
I2
sS'2BEKg'
p3870
I1
sS'Makeup'
p3871
I2
sS'339'
p3872
I1
sS'338'
p3873
I2
sS'borderRadius'
p3874
I1
sS'aps'
p3875
I4
sS'app'
p3876
I5
sS'336'
p3877
I2
sS'331'
p3878
I3
sS'330'
p3879
I171
sS'333'
p3880
I15
sS'332'
p3881
I3
sS'tds'
p3882
I85
sS'api'
p3883
I1
sS'Safety'
p3884
I1
sS'dcw'
p3885
I1
sS'2BqdPy2GaHdzgQ'
p3886
I1
sS'apply'
p3887
I2
sS'borderImage'
p3888
I1
sS'2B8g'
p3889
I1
sS'tools'
p3890
I10
sS'gateway'
p3891
I14
sS'cloud'
p3892
I5
sS'FO'
p3893
I1
sS'511228'
p3894
I1
sS'from'
p3895
I6
sS'2BkCr3a1Oqkuc0RfefyOTSEVxqfXEv'
p3896
I1
sS'899'
p3897
I2
sS'51WgkJrZsdL'
p3898
I6
sS'snacks'
p3899
I1
sS'Driver'
p3900
I10
sS'next'
p3901
I2
sS'Lens'
p3902
I10
sS'Membership'
p3903
I3
sS'2FmH0B4OmGYHlLDu0tIaHQRdbFpF'
p3904
I1
sS'zhtml'
p3905
I1
sS'amazonbasics'
p3906
I1
sS'tahoe'
p3907
I1
sS'Wedding'
p3908
I2
sS'Fi'
p3909
I38
sS'panel'
p3910
I1
sS'NavDesktopMetaAsset'
p3911
I5
sS'24px'
p3912
I1
sS'textShadow'
p3913
I1
sS'8N0QuAOmMayoLs4lgANN3xoxTUWj9Omk'
p3914
I1
sS'2FXntfRZiT8ZYRC1NqSP3YO6wuDHt7HdPKlB1u0FEzPjr4qV3HCZzecU1xwMKnZzpLS8'
p3915
I1
sS'Laser'
p3916
I15
sS'zappos'
p3917
I1
sS'12766669011'
p3918
I1
sS'DCV581H'
p3919
I6
sS'B00KE205NG'
p3920
I5
sS'B016OFYGXQ'
p3921
I5
sS'UX440'
p3922
I1
sS'transient'
p3923
I1
sS'Eligible'
p3924
I2
sS'boxes'
p3925
I3
sS'baby'
p3926
I13
sS'2FsEH2zF3QzFccnXlfUeCTZ0QPO5O98r5Qa52OcU0PbaZbsrBIiXA4aToAUzhEoDU'
p3927
I1
sS'Ultra'
p3928
I1
sS'resize'
p3929
I2
sS'customer'
p3930
I12
sS'substring'
p3931
I2
sS'account'
p3932
I8
sS'scarcityMessage'
p3933
I2
sS'consoles'
p3934
I1
sS'10943282011'
p3935
I1
sS'f'
p3936
I18
sS'17px'
p3937
I1
sS'opengraphprotocol'
p3938
I2
sS'2B1PlXB02KmpiFxwnXW05QHkB'
p3939
I1
sS'020E83530EE2B7F2EDA65ADA51F882D31A4AC155'
p3940
I1
sS'3D97664'
p3941
I1
sS'2292948122'
p3942
I1
sS'Library'
p3943
I5
sS'DCF886B'
p3944
I6
sS'2FizuNVSsV3ZQ0T9lVXbxuQ937mK01uHWNlBuQhe3UQYdm6xcqdRXaa'
p3945
I1
sS'tag'
p3946
I9
sS'Video'
p3947
I34
sS'thin'
p3948
I1
sS'2Fphoenix'
p3949
I1
sS'Fixtures'
p3950
I3
sS'Windshield'
p3951
I6
sS'468642'
p3952
I2
sS'mediaBuilder'
p3953
I3
sS'B00B6K4VDK'
p3954
I5
sS'239'
p3955
I2
sS'control'
p3956
I16
sS'es'
p3957
I1
sS'172635'
p3958
I1
sS'Camping'
p3959
I1
sS'52290'
p3960
I2
sS'Diets'
p3961
I2
sS'billboards'
p3962
I2
sS'2BUoC5HPkXGqxjQBadmH4bQTtXH8l9GhffVjPQx4z5GsoqI2aEWNDHyR3zef3I9B0FBXupS3WpasacE3MjzYN9po8UpxP8YkkL8y8rwbVazF1fQswn5c'
p3963
I1
sS'2FBSDIO5wNTcxQw1a7UEch0dnxk0wAFdPCnR48ioY0fX65QaoTkiCoImRo7o'
p3964
I1
sS'Parts'
p3965
I4
sS'2Fwww'
p3966
I13
sS'shipping'
p3967
I81
sS'SLUL'
p3968
I1
sS'renderskin'
p3969
I4
sS'Party'
p3970
I1
sS'2BiMXF9oEG9gPTC'
p3971
I1
sS'beforeunload'
p3972
I1
sS'Christmas'
p3973
I5
sS'B015E8UKNE'
p3974
I5
sS'41lhxE16l3L'
p3975
I6
sS'CB306655601'
p3976
I2
sS'2FmNP5rknWH'
p3977
I1
sS'9538508011'
p3978
I1
sS'9013937011'
p3979
I1
sS'B00S5HFVGI'
p3980
I1
sS'230'
p3981
I3
sS'purpose'
p3982
I1
sS'3A7161073011'
p3983
I1
sS'namespace'
p3984
I1
sS'51aay3VweHL'
p3985
I6
sS'UX533'
p3986
I1
sS'localservices'
p3987
I1
sS'gcs'
p3988
I2
sS'31ChY1VmjnL'
p3989
I6
sS'2265995162'
p3990
I1
sS'sid'
p3991
I5
sS'CB192250661'
p3992
I2
sS'8209718011'
p3993
I1
sS'Friends'
p3994
I1
sS'Payment'
p3995
I5
sS'issHost'
p3996
I1
sS'postslateImgPath'
p3997
I1
sS'profile'
p3998
I3
sS'Dance'
p3999
I1
sS'stripbooks'
p4000
I3
sS'de'
p4001
I1
sS'310px'
p4002
I1
sS'SearchPageAccess'
p4003
I4
sS'bestsellers'
p4004
I4
sS'mergeBTFDropdown'
p4005
I1
sS'space'
p4006
I3
sS'Ryan'
p4007
I3
sS'SX2250'
p4008
I5
sS'41nwekEtbmL'
p4009
I6
sS'Smartwatches'
p4010
I1
sS'165796011'
p4011
I1
sS'CB318409967'
p4012
I1
sS'sprite03'
p4013
I3
sS'141px'
p4014
I1
sS'Outdoor'
p4015
I5
sS'Apple'
p4016
I38
sS'bind'
p4017
I17
sS'vertOffset'
p4018
I20
sS'51CwuPNg4BL'
p4019
I6
sS'lines'
p4020
I1
sS'Ya47ULPH6WP'
p4021
I1
sS'matchMedia'
p4022
I4
sS'flyoutError'
p4023
I9
sS'Tablets'
p4024
I6
sS'title2'
p4025
I1
sS'AndroidPanel'
p4026
I2
sS'fallback'
p4027
I1
sS'myactions'
p4028
I1
sS'Hammer'
p4029
I4
sS'2619533011'
p4030
I1
sS'01uU2WpWzwL'
p4031
I4
sS'41WzHu5BvbL'
p4032
I6
sS'Wilson'
p4033
I6
sS'Cycling'
p4034
I2
sS'5174'
p4035
I1
sS'ieTouch'
p4036
I1
sS'time\xe2\x80\x94it'
p4037
I1
sS'2Fyourstore'
p4038
I9
sS'4972214011'
p4039
I1
sS'2BK5UFsQkmwaM'
p4040
I2
sS'130'
p4041
I6
sS'136'
p4042
I2
sS'Hearts'
p4043
I1
sS'139'
p4044
I4
sS'138'
p4045
I1
sS'Shipping'
p4046
I3
sS'Magazines'
p4047
I1
sS'DXImageTransform'
p4048
I1
sS'perfect'
p4049
I1
sS'TopLeft'
p4050
I90
sS'ld'
p4051
I6
sS'byline'
p4052
I88
sS'Scientific'
p4053
I4
sS'EL'
p4054
I1
sS'la'
p4055
I3
sS'Herotator'
p4056
I4
sS'll'
p4057
I1
sS'RAM'
p4058
I8
sS'isWayfindingEnabled'
p4059
I3
sS'AZSOAviewallMakeM'
p4060
I1
sS'li'
p4061
I384
sS'simsWrapper'
p4062
I5
sS'webworker'
p4063
I1
sS'lt'
p4064
I8
sS'datasetId'
p4065
I1
sS'instruments'
p4066
I2
sS'2015'
p4067
I39
sS'2014'
p4068
I4
sS'holiday'
p4069
I25
sS'pixel'
p4070
I5
sS'soa'
p4071
I1
sS'addClass'
p4072
I8
sS'flex'
p4073
I8
sS'mainContent'
p4074
I1
sS'B011VB21DU'
p4075
I5
sS'cust'
p4076
I1
sS'2BafWYhU2g0l3rnv9NYAFlKeeU9v3FpiV5LTMZCVIipwBIiyn'
p4077
I1
sS'2BD2lHM3lKwW6SlKVE2tXTmMeDo7o2WcHZjXpEX3IneT7JkbVxRf'
p4078
I1
sS'auto'
p4079
I7
sS'2FYmlUP'
p4080
I1
sS'41K9ArRD02L'
p4081
I6
sS'CreditPanel'
p4082
I2
sS'earn'
p4083
I2
sS'auth'
p4084
I2
sS'2B75Ju1x4gTrealw0oogdjwoDeAaHGJMkFsroRXO0'
p4085
I1
sS'iPhone'
p4086
I52
sS'2FGglSsAs26DcHXa0YYgx0Wf19PB1BkMvP91n4hxn2MGqpxUUxY9J2POu0zibHl9'
p4087
I1
sS'onLine'
p4088
I2
sS'2FL31vQ'
p4089
I1
sS'pinnedNavMinWidth'
p4090
I1
sS'transparent'
p4091
I3
sS'41jXrl4KO3L'
p4092
I1
sS'SX533'
p4093
I1
sS'Entourage'
p4094
I1
sS'114lRrrwfEL'
p4095
I2
sS'Download'
p4096
I6
sS'01jml6Pm'
p4097
I6
sS'Sporting'
p4098
I1
sS'preventDefault'
p4099
I1
sS'Accessories'
p4100
I23
sS'B00L3NY180'
p4101
I2
sS'servicerequests'
p4102
I1
sS'2BMXWpQOqqGK5Q7JpDTnR993c'
p4103
I1
sS'slide'
p4104
I1
sS'scrollbar'
p4105
I24
sS'2FgAK8Vo3K'
p4106
I1
sS'mode'
p4107
I2
sS'2em'
p4108
I1
sS'B001UHOUXK'
p4109
I5
sS'prefetchGatewayHero'
p4110
I1
sS'circular'
p4111
I1
sS'Saw'
p4112
I14
sS'Kindle\xe2\x80\x94now'
p4113
I1
sS'jQuery'
p4114
I14
sS'Arts'
p4115
I5
sS'Random'
p4116
I3
sS'708'
p4117
I1
sS'709'
p4118
I1
sS'147'
p4119
I7
sS'2BCVhwCFon0y86FjcVva0KjQE'
p4120
I1
sS'CB289457073'
p4121
I1
sS'700'
p4122
I1
sS'2FTKm2QFdDcVuSTEzCiv'
p4123
I1
sS'pantry'
p4124
I3
sS'meta'
p4125
I11
sS'static'
p4126
I1
sS'dragDrop'
p4127
I1
sS'VpLeutoU'
p4128
I1
sS'80'
p4129
I6
sS'26925'
p4130
I1
sS'84'
p4131
I1
sS'out'
p4132
I84
sS'384082011'
p4133
I1
sS'CB293002752'
p4134
I4
sS'307026011'
p4135
I1
sS'3407731'
p4136
I1
sS'Festive'
p4137
I1
sS'Material'
p4138
I1
sS'rev'
p4139
I1
sS'540734'
p4140
I1
sS'FZ41'
p4141
I3
sS'Browser'
p4142
I1
sS'China'
p4143
I1
sS'rel'
p4144
I4
sS'Always'
p4145
I1
sS'Baby'
p4146
I14
sS'rec'
p4147
I2
sS'electronics'
p4148
I17
sS'ref'
p4149
I17
sS'pageHideEnabled'
p4150
I1
sS'removeAttr'
p4151
I2
sS'412'
p4152
I4
sS'2FrJs6IEilqqx3bqsetM76p2llCZh652wPk'
p4153
I2
sS'recommendations'
p4154
I1
sS'2FdQ3wat2OnZllCztDIFj9olzEngDFCGh'
p4155
I1
sS'588'
p4156
I1
sS'CB288625141'
p4157
I1
sS'pinnedNav'
p4158
I1
sS'Software'
p4159
I4
sS'elementStyle'
p4160
I2
sS'148'
p4161
I3
sS'rzekmvyjojcp6uc'
p4162
I1
sS'latest'
p4163
I1
sS'networking'
p4164
I1
sS'Spend'
p4165
I1
sS'2FWOvMu2KHyJnlzSsS9RaCzM5yTMxek23COiyhej5HZZsss4gxH'
p4166
I1
sS'ecx'
p4167
I829
sS'495224'
p4168
I1
sS'7CB00Y0XYN6U'
p4169
I1
sS'organic'
p4170
I1
sS'Portable'
p4171
I12
sS'g'
p4172
I173
sS'shopwithpoints'
p4173
I1
sS'navbar'
p4174
I40
sS'deprecated'
p4175
I2
sS'Celebrities'
p4176
I1
sS'2311473482'
p4177
I2
sS'smarthome'
p4178
I1
sS'columnBreak'
p4179
I8
sS'Currency'
p4180
I4
sS'length'
p4181
I16
sS'11444071011'
p4182
I1
sS'NCwESbiL'
p4183
I5
sS'designed'
p4184
I2
sS'3A8A0D46C0A7784536AB22A32DA00F4ADB9C771A5'
p4185
I1
sS'2FKgc22OMqxtRL'
p4186
I1
sS'2FiZWGKuCG3oi8UUj6kVPzaMFD5AoP14o'
p4187
I1
sS'signinContent'
p4188
I1
sS'450'
p4189
I6
sS'451'
p4190
I1
sS'1342'
p4191
I1
sS'453'
p4192
I1
sS'454'
p4193
I1
sS'456'
p4194
I3
sS'echo'
p4195
I5
sS'linkList'
p4196
I1
sS'Peripherals'
p4197
I1
sS'set'
p4198
I2
sS'npt'
p4199
I8
sS'RegExp'
p4200
I1
sS'pushState'
p4201
I3
sS'png32'
p4202
I2
sS'Model'
p4203
I2
sS'Exercise'
p4204
I2
sS'2B7YL'
p4205
I6
sS'playlist'
p4206
I1
sS'stands'
p4207
I1
sS'For'
p4208
I9
sS'navFooterDescSpacer'
p4209
I40
sS'CB286429891'
p4210
I1
sS'Worldwide'
p4211
I1
sS'BodyTech'
p4212
I1
sS'nodeId'
p4213
I91
sS'wrapper'
p4214
I8
sS'1266766011'
p4215
I1
sS'attach'
p4216
I1
sS'1500'
p4217
I13
sS'34AD60CFC4DCD7A97D4E2F4A4A7C4149FBEEF236'
p4218
I1
sS'12555661011'
p4219
I2
sS'man'
p4220
I1
sS'Create'
p4221
I1
sS'ellipsis'
p4222
I1
sS'8335758011'
p4223
I4
sS'3Flocation'
p4224
I1
sS'udp'
p4225
I4
sS'Remote'
p4226
I17
sS'41fwE1Qr7UL'
p4227
I2
sS'41RouO'
p4228
I5
sS'shorts'
p4229
I1
sS'Deprecated'
p4230
I1
sS'2BCq8cZCE6QmamumW0KjHwt1I'
p4231
I1
sS'abebooks'
p4232
I1
sS'10449978011'
p4233
I1
sS'lists'
p4234
I1
sS'CB288328657'
p4235
I5
sS'CHDHS'
p4236
I2
sS'var'
p4237
I115
sS'xmlns'
p4238
I2
sS'notificationsList'
p4239
I1
sS'B005OH6IPA'
p4240
I3
sS'Amp'
p4241
I12
sS'videogames'
p4242
I2
sS'Edition'
p4243
I8
sS'41lcibLaloL'
p4244
I6
sS'6EA15C3DC4355BAFC38AD4C9C673A4961272F399'
p4245
I1
sS'wishlist'
p4246
I10
sS'logC'
p4247
I8
sS'ZB545'
p4248
I6
sS'508088'
p4249
I1
sS'3561432011'
p4250
I2
sS'B016LMQAJA'
p4251
I1
sS'41XbZDUCvgL'
p4252
I6
sS'KL'
p4253
I6
sS'KR'
p4254
I1
sS'accessoriesCSS'
p4255
I1
sS'KV'
p4256
I2
sS'light'
p4257
I2
sS'radius'
p4258
I1
sS'selling'
p4259
I1
sS'2BogzIG'
p4260
I2
sS'2Fservices'
p4261
I1
sS'0101a1823ca3d5d46ce03d4502edf28f095b20f780c29eddcddebefb2933fa9c1e98'
p4262
I1
sS'Technology'
p4263
I1
sS'G8Ford'
p4264
I1
sS'Foldable'
p4265
I6
sS'51pFaVU8f8L'
p4266
I5
sS'false'
p4267
I33
sS'Pay'
p4268
I2
sS'CB288891334'
p4269
I1
sS'3764441'
p4270
I1
sS'Tech'
p4271
I1
sS'1292'
p4272
I1
sS'BLACK'
p4273
I22
sS'2676882011'
p4274
I3
sS'have'
p4275
I2
sS'close'
p4276
I6
sS'need'
p4277
I1
sS'element'
p4278
I1
sS'border'
p4279
I13
sS'2BbqFKsGd7vowp4LVyUZD'
p4280
I1
sS'isRecognized'
p4281
I1
sS'Activities'
p4282
I1
sS'Xperia'
p4283
I6
sS'min'
p4284
I24
sS'fullWidthPrime'
p4285
I1
sS'HOL2'
p4286
I4
sS'3754161'
p4287
I1
sS'322'
p4288
I1
sS'Mirrorless'
p4289
I3
sS'320'
p4290
I1
sS'321'
p4291
I2
sS'2FBamvyMA'
p4292
I1
sS'327'
p4293
I2
sS'which'
p4294
I1
sS'325'
p4295
I1
sS'truck'
p4296
I1
sS'328'
p4297
I1
sS'soap'
p4298
I1
sS'COOLPIX'
p4299
I15
sS'CB386942464'
p4300
I2
sS'departmentText'
p4301
I2
sS'Available'
p4302
I3
sS'aws'
p4303
I1
sS'SLR'
p4304
I8
sS'onSimImgLoad'
p4305
I2
sS'WARN'
p4306
I1
sS'newSimLink'
p4307
I8
sS'28px'
p4308
I1
sS'Games'
p4309
I29
sS'Ons'
p4310
I1
sS'device'
p4311
I1
sS'Joiner'
p4312
I3
sS'class'
p4313
I1409
sS'2619525011'
p4314
I1
sS'delivery'
p4315
I1
sS'B00UA4NJNG'
p4316
I1
sS'CB289363490'
p4317
I2
sS'doCTWDisplay'
p4318
I1
sS'2BA7Il4r3ulLdvwyZ'
p4319
I1
sS'url'
p4320
I483
sS'Instruments'
p4321
I3
sS'enableDynamicMenus'
p4322
I1
sS'uri'
p4323
I1
sS'High'
p4324
I2
sS'movie'
p4325
I1
sS'd5WdohxLTB4P0dQo4TCrX2RKGUUjDa9r1z'
p4326
I1
sS'discoveryPanelList'
p4327
I1
sS'2F9Ep5ujz4d'
p4328
I1
sS'491'
p4329
I1
sS'newSimImg'
p4330
I7
sS'Lessons'
p4331
I2
sS'2Bc2oMBGoBEG1Ywg'
p4332
I1
sS'selection'
p4333
I2
sS'Paris'
p4334
I3
sS'text'
p4335
I423
sS'Error'
p4336
I2
sS'39px'
p4337
I2
sS'2BwXnv2NGFLeFuKPQhviZ0'
p4338
I1
sS'addOverlay'
p4339
I2
sS'gwLineBreak'
p4340
I1
sS'6669703011'
p4341
I1
sS'21Szs6GbgwL'
p4342
I2
sS'Stallone'
p4343
I1
sS'Under'
p4344
I1
sS'USB'
p4345
I12
sS'B016LMQBRQ'
p4346
I1
sS'Math'
p4347
I2
sS'redirect'
p4348
I14
sS'Moz'
p4349
I1
sS'B00KC6I06S'
p4350
I1
sS'Balance'
p4351
I1
sS'q4'
p4352
I1
sS'6000'
p4353
I1
sS'WPQJw4z1XYDqTm'
p4354
I1
sS'02b'
p4355
I2
sS'navFooterDescLine'
p4356
I1
sS'controls'
p4357
I2
sS'Original'
p4358
I2
sS'buttons'
p4359
I3
sS'1500px'
p4360
I6
sS'toggleResponsiveGrid'
p4361
I1
sS'USHardlinesDetailPageMetaAsset'
p4362
I4
sS'5px'
p4363
I3
sS'printers'
p4364
I4
sS'xshop'
p4365
I3
sS'b'
p4366
I252
sS'local'
p4367
I3
sS'Legend'
p4368
I4
sS'KindleAmazonEchoPanel'
p4369
I2
sS'handle'
p4370
I4
sS'493964'
p4371
I1
sS'48346'
p4372
I1
sS'999'
p4373
I1
sS'Tilu'
p4374
I1
sS'prefetchUrls'
p4375
I2
sS'120'
p4376
I2
sS'121'
p4377
I2
sS'122'
p4378
I1
sS'123'
p4379
I3
sS'124'
p4380
I2
sS'125'
p4381
I2
sS'126'
p4382
I5
sS'127'
p4383
I3
sS'128'
p4384
I4
sS'129'
p4385
I3
sS'DWA2T40IR'
p4386
I6
sS'newCust'
p4387
I1
sS'GPS'
p4388
I7
sS'qs'
p4389
I1
sS'toLowerCase'
p4390
I1
sS'502394'
p4391
I1
sS'cached'
p4392
I1
sS'h'
p4393
I33
sS'Stainless'
p4394
I6
sS'GenericObservableJS'
p4395
I2
sS'CB288329382'
p4396
I6
sS'dpf'
p4397
I1
sS'wish'
p4398
I1
sS'CB192250664'
p4399
I2
sS'fixed'
p4400
I6
sS'CHDHY'
p4401
I2
sS'discoveryPanelSummary'
p4402
I1
sS'view'
p4403
I9
sS'iPad'
p4404
I5
sS'ToysKidsBabyPanel'
p4405
I2
sS'Driving'
p4406
I12
sS'2B4zojMWGuyaYA6gbXiK1'
p4407
I1
sS'we'
p4408
I3
sS'CB288335559'
p4409
I1
sS'qty'
p4410
I2
sS'writable'
p4411
I1
sS'GwSims'
p4412
I2
sS'DML'
p4413
I2
sS'btf'
p4414
I5
sS'skateboarding'
p4415
I1
sS'btn'
p4416
I11
sS'CB287576035'
p4417
I2
sS'firstvisibleitem'
p4418
I1
sS'MoviesMusicGamesPanel'
p4419
I2
sS'49697'
p4420
I2
sS'2B6Dvj1wA43yMM79kns5O87cS86AkcDPkylN0Woa8QcM6oWkmKWiJlXJlhv'
p4421
I1
sS'DW618PK'
p4422
I3
sS'Scooters'
p4423
I1
sS'B00O4B74UA'
p4424
I7
sS'B00NIYJF6U'
p4425
I5
sS'PC'
p4426
I3
sS'state'
p4427
I6
sS'9783'
p4428
I3
sS'62845'
p4429
I2
sS'Happy'
p4430
I1
sS'3402401'
p4431
I1
sS'0AVW2729D158HYFZ1CPA'
p4432
I3
sS'hasClass'
p4433
I2
sS'Subscription'
p4434
I1
sS'Leather'
p4435
I6
sS'beforeUpdate'
p4436
I2
sS'imgmap'
p4437
I40
sS'2Fb4Hr66Ufw5c53AA7OBkq'
p4438
I1
sS'41z8JAFJrlL'
p4439
I5
sS'2px'
p4440
I4
sS'issMktid'
p4441
I1
sS'B003NQ2GSW'
p4442
I5
sS'31vFcbniU0L'
p4443
I3
sS'searchAliasAccessor'
p4444
I1
sS'10971181011'
p4445
I1
sS'CB302132952'
p4446
I1
sS'S'
p4447
I33
sS'1UKhy0c0oB5MZO2u'
p4448
I1
sS'key'
p4449
I4
sS'DOTD'
p4450
I2
sS'binder'
p4451
I7
sS'01DY5Sga5oL'
p4452
I2
sS'2Fk6ZJQtHZ9'
p4453
I1
sS'beaconbeltCover'
p4454
I1
sS'1057794'
p4455
I1
sS'Designer'
p4456
I3
sS'471306'
p4457
I1
sS'instant'
p4458
I9
sS'PLCCFOOT'
p4459
I1
sS'15706941'
p4460
I1
sS'showViewpoints'
p4461
I84
sS'avatarUrl'
p4462
I1
sS'UxusSML'
p4463
I1
sS'3DUTF8'
p4464
I10
sS'V1'
p4465
I16
sS'FZ51'
p4466
I3
sS'383'
p4467
I1
sS'pIpL'
p4468
I2
sS'Landscaping'
p4469
I1
sS'zOQ511tmF9BlHuHLk7aFmmjL'
p4470
I1
sS'29493'
p4471
I1
sS'B005VAORH6'
p4472
I5
sS'websiteGridCSS'
p4473
I3
sS'subtitle'
p4474
I3
sS'30308'
p4475
I1
sS'Her'
p4476
I1
sS'Delivered'
p4477
I1
sS'Shenanigans'
p4478
I1
sS'Tangerine'
p4479
I2
sS'ca'
p4480
I1
sS'Suture'
p4481
I6
sS'Girls'
p4482
I3
sS'cf'
p4483
I20
sS'Collets'
p4484
I6
sS'cd'
p4485
I2
sS'maxTouchPoints'
p4486
I1
sS'2BjF9hOWVtqWmIovVTmJ7NojluEYVwOUfCEf3iMHkuGz8NBBNUtM009v9JernJXy9ArUheSgKwlrLd24WXOE76kNl96fX1A'
p4487
I1
sS'Music'
p4488
I27
sS'crafted'
p4489
I1
sS'Tasks'
p4490
I1
sS'15706571'
p4491
I1
sS'table'
p4492
I4
sS'Holiday'
p4493
I4
sS'1057792'
p4494
I1
sS'Smart'
p4495
I18
sS'600'
p4496
I6
sS'1320X600'
p4497
I2
sS'bbn'
p4498
I7
sS'productAds'
p4499
I1
sS'Rewards'
p4500
I2
sS'rgb'
p4501
I1
sS'IndieForTheHolidays'
p4502
I1
sS'Audiobook'
p4503
I1
sS'Space'
p4504
I12
sS'clearTimeout'
p4505
I2
sS'lightningDeals'
p4506
I1
sS'ewcTimeout'
p4507
I1
sS'navCF'
p4508
I2
sS'offers'
p4509
I2
sS'01VElAfJGKL'
p4510
I3
sS'B0049ZFUK2'
p4511
I5
sS'improve'
p4512
I1
sS'2FMHMR'
p4513
I1
sS'Gen'
p4514
I6
sS'shims'
p4515
I2
sS'533px'
p4516
I1
sS'general'
p4517
I3
sS'Of'
p4518
I2
sS'Multiroom'
p4519
I1
sS'2FXzEmfDm9KAJQqICy9YBZF'
p4520
I1
sS'associationHandle'
p4521
I4
sS'461'
p4522
I1
sS'Teenage'
p4523
I4
sS'463'
p4524
I1
sS'Credit'
p4525
I10
sS'logEvent'
p4526
I1
sS'41QDcHGCOUL'
p4527
I6
sS'11xRy3bSkOL'
p4528
I2
sS'CDs'
p4529
I3
sS'weblab'
p4530
I5
sS'an'
p4531
I4
sS'412kGjEHJjL'
p4532
I5
sS'1392'
p4533
I2
sS'880X400'
p4534
I1
sS'Points'
p4535
I2
sS'2Bv9xIdgCnaBrTv0h9wenEmIk3Oyv2zSIhWPN0J9JNvGP3'
p4536
I1
sS'7147442011'
p4537
I1
sS'align'
p4538
I17
sS'328182011'
p4539
I1
sS'newforyou'
p4540
I1
sS'value'
p4541
I54
sS'FlyoutErrorTemplate'
p4542
I1
sS'21jgC'
p4543
I2
sS'kLaCtWcbL0EKS3LVy44yEu4PNHOPuZi1RX7mcsIndaGkK1DdzHX5vrySJ6GGbdcqx'
p4544
I1
sS'2Bvvt7IWVMeknb5yZtiV1am'
p4545
I1
sS'B00RSGIVVO'
p4546
I3
sS'ku'
p4547
I5
sS'amznJQ'
p4548
I2
sS'C071B28A40F97576FEA202E63908D82B0B17E9472'
p4549
I1
sS'6682399011'
p4550
I1
sS'B016LMQDWE'
p4551
I1
sS'createAutocomplete'
p4552
I4
sS'helper'
p4553
I1
sS'2F6Q'
p4554
I1
sS'getC'
p4555
I6
sS'779'
p4556
I1
sS'site'
p4557
I9
sS'hardware'
p4558
I4
sS'mouseenter'
p4559
I2
sS'lightweight'
p4560
I3
sS'claimed'
p4561
I2
sS'Items'
p4562
I7
sS'Friendly'
p4563
I3
sS'suggestionText'
p4564
I2
sS'DWP611PK'
p4565
I6
sS'education'
p4566
I1
sS'forher'
p4567
I1
sS'Garden'
p4568
I8
sS'706809011'
p4569
I1
sS'2FovheTLGlW6TQYMSfb1p'
p4570
I1
sS'alwaysRaised'
p4571
I1
sS'landmarks'
p4572
I1
sS'B016EAZ6GC'
p4573
I1
sS'parts'
p4574
I3
sS'CNPUCkCb0IEBMmABTAYhWqTpw1f0OdcvN'
p4575
I1
sS'Drilling'
p4576
I6
sS'android'
p4577
I8
sS'B00U3FPN4U'
p4578
I1
sS'2350149011'
p4579
I1
sS'lazyLoadLib'
p4580
I3
sS'Entire'
p4581
I4
sS'billboardRowWrapper'
p4582
I2
sS'http'
p4583
I892
sS'Sell'
p4584
I7
sS'Luggage'
p4585
I2
sS'promo'
p4586
I12
sS'dialog'
p4587
I5
sS'13233815011'
p4588
I1
sS'ios'
p4589
I1
sS'Grey'
p4590
I6
sS'automation'
p4591
I1
sS'Decker'
p4592
I1
sS'v1'
p4593
I6
sS'v2'
p4594
I4
sS'v3'
p4595
I3
sS'2BdoTbfGt1IlpadalysOgETF8m6YdLdpkNHktcktng'
p4596
I1
sS'Recommendations'
p4597
I1
sS'Lumo'
p4598
I7
sS'identity'
p4599
I2
sS'Kristen'
p4600
I1
sS'Yard'
p4601
I2
sS'gutter'
p4602
I1
sS'off'
p4603
I4
sS'center'
p4604
I25
sS'myhabit'
p4605
I1
sS'i'
p4606
I101
sS'10192836011'
p4607
I1
sS'builder'
p4608
I2
sS'Supplements'
p4609
I2
sS'priceOnly'
p4610
I86
sS'13707'
p4611
I1
sS'object'
p4612
I5
sS'col'
p4613
I5
sS'draggable'
p4614
I1
sS'356'
p4615
I2
sS'355'
p4616
I1
sS'354'
p4617
I3
sS'Blackley'
p4618
I1
sS'keydownTriggeredWeblabs'
p4619
I2
sS'oft'
p4620
I1
sS'350'
p4621
I1
sS'position'
p4622
I17
sS'clouddrive'
p4623
I7
sS'audio'
p4624
I3
sS'2Fappsandservices'
p4625
I1
sS'359'
p4626
I4
sS'callbackUrl'
p4627
I5
sS'WARRANTY'
p4628
I6
sS'CB204593665'
p4629
I1
sS'B00I2TV3NO'
p4630
I2
sS'B013LKLIB0'
p4631
I5
sS'safari'
p4632
I1
sS'BB'
p4633
I1
sS'youraccount'
p4634
I1
sS'Gourmet'
p4635
I2
sS'cobrandcard'
p4636
I2
sS'openPopover'
p4637
I3
sS'317970011'
p4638
I1
sS'DCD980M2'
p4639
I3
sS'Shorts'
p4640
I1
sS'Tahoe'
p4641
I2
sS'seats'
p4642
I1
sS'Weeks'
p4643
I2
sS'scooters'
p4644
I1
sS'GSM'
p4645
I12
sS'reduced'
p4646
I8
sS'iOS'
p4647
I2
sS'B00J4TK4B8'
p4648
I5
sS'13635'
p4649
I3
sS'previewing'
p4650
I1
sS'msMaxTouchPoints'
p4651
I1
sS'Friday'
p4652
I2
sS'capabilities'
p4653
I2
sS'2FIemcmK1VWO'
p4654
I1
sS'spinner'
p4655
I8
sS'288'
p4656
I1
sS'add'
p4657
I11
sS'sslTriggerRetry'
p4658
I1
sS'adoption'
p4659
I1
sS'SX3375'
p4660
I1
sS'281'
p4661
I9
sS'280'
p4662
I1
sS'51Fqg3MtCvL'
p4663
I12
sS'285'
p4664
I1
sS'284'
p4665
I3
sS'2B4KLKZeW9xCq67C6RHSg4'
p4666
I1
sS'41GUiiv8yZL'
p4667
I6
sS'300px'
p4668
I13
sS'auiIconClass'
p4669
I77
sS'CB291918975'
p4670
I1
sS'newsstand'
p4671
I2
sS'handleTriggers'
p4672
I2
sS'267'
p4673
I2
sS'BOLT'
p4674
I5
sS'CB291918972'
p4675
I1
sS'264'
p4676
I7
sS'Windowshop'
p4677
I1
sS'268'
p4678
I1
sS'B0035GX0BM'
p4679
I2
sS'you'
p4680
I2
sS'desc'
p4681
I2
sS'tenmarks'
p4682
I1
sS'weeklyftr'
p4683
I1
sS'Fashion'
p4684
I8
sS'like'
p4685
I3
sS'success'
p4686
I3
sS'sizes'
p4687
I1
sS'2Fphx'
p4688
I1
sS'validations'
p4689
I1
sS'Returns'
p4690
I1
sS'61tKnrzBkTL'
p4691
I5
sS'garage'
p4692
I2
sS'dashbutton'
p4693
I1
sS'dpProductImage'
p4694
I2
sS'2Fi9oyxFj0DwuMB2qimkmBsDKap5lLa5ptFeAHegtTo5iCC7dQ'
p4695
I1
sS'async'
p4696
I1
sS'CB358606633'
p4697
I1
sS'11525222011'
p4698
I1
sS'audible'
p4699
I2
sS'replacement'
p4700
I1
sS'productTitle'
p4701
I1
sS'hasArrow'
p4702
I1
sS'12px'
p4703
I3
sS'BmgC4i6OIWNzK41ZtNYQgqpQc5XKviI2VO6HgFvFfDlqa2H'
p4704
I1
sS'openid'
p4705
I24
sS'337'
p4706
I1
sS'twitter'
p4707
I2
sS'2BKuUEPqnpg7fNHDhJMTnAK'
p4708
I1
sS'library'
p4709
I3
sS'searchSelect'
p4710
I3
sS'114'
p4711
I1
sS'116'
p4712
I1
sS'49594'
p4713
I2
sS'112'
p4714
I1
sS'Underground'
p4715
I3
sS'home'
p4716
I21
sS'overlay'
p4717
I7
sS'b397320662b86fef1dfc4f185eaebd602ab0d7d9'
p4718
I1
sS'kdp'
p4719
I1
sS'118'
p4720
I2
sS'61PuFVPGahL'
p4721
I6
sS'navSwmHoliday'
p4722
I2
sS'sslTriggerType'
p4723
I1
sS'progid'
p4724
I1
sS'IndiefortheHolidays'
p4725
I1
sS'ajaxSuccess'
p4726
I2
sS'5856181011'
p4727
I1
sS'bedding'
p4728
I3
sS'3Dnav'
p4729
I10
sS'Smartwatch'
p4730
I24
sS'War'
p4731
I3
sS'Quantity'
p4732
I1
sS'57042'
p4733
I1
sS'2FdA9MA5xegp8EEpbp5'
p4734
I1
sS'2Flg'
p4735
I1
sS'mkt'
p4736
I1
sS'1GWPMG0K5JVQ2S33S0CS6'
p4737
I2
sS'W800'
p4738
I3
sS'preload'
p4739
I30
sS'2FVKuGCSl4FW9rhY2M95oY2NWVFI5Q'
p4740
I1
sS'Junglee'
p4741
I1
sS'indexOf'
p4742
I5
sS'2FYTqcNTOUwMJynvMq9nv9cc1FCdw3r1w'
p4743
I1
sS'Skin'
p4744
I2
sS'Up'
p4745
I5
sS'Us'
p4746
I5
sS'create'
p4747
I1
sS'host'
p4748
I4
sS'Li'
p4749
I15
sS'28298'
p4750
I4
sS'824'
p4751
I2
sS'ElectronicsComputersPanel'
p4752
I2
sS'Kindle'
p4753
I29
sS'ibprox'
p4754
I2
sS'3400371'
p4755
I1
sS'CB354814520'
p4756
I2
sS'Microsoft'
p4757
I8
sS'carat'
p4758
I6
sS'2FsrregaZ0xC22ehs10aua5bxnjjRrNET0oL5dsFaQPKWkDFuLVU1urG0BeGA'
p4759
I1
sS'about'
p4760
I6
sS'lifestyle'
p4761
I1
sS'UX'
p4762
I8
sS'Reload'
p4763
I1
sS'column'
p4764
I13
sS'UV'
p4765
I2
sS'mdash'
p4766
I1
sS'US'
p4767
I25
sS'Guarding'
p4768
I6
sS'a2'
p4769
I1
sS'that\xe2\x80\x99s'
p4770
I1
sS'2Fbenefits'
p4771
I1
sS'constructor'
p4772
I1
sS'Japan'
p4773
I1
sS'dismissId'
p4774
I2
sS'software'
p4775
I7
sS'Voyage'
p4776
I2
sS'Speakers'
p4777
I1
sS'flingData'
p4778
I1
sS'2Bb7NH6C2n6Hc9fcAo7OSNj9L5x5UJhEx6TQh5Z7TfJOzF'
p4779
I1
sS'immersiveView'
p4780
I2
sS'el'
p4781
I3
sS'h2'
p4782
I17
sS'skates'
p4783
I1
sS'Two'
p4784
I7
sS'B00NQGP42Y'
p4785
I5
sS'brands'
p4786
I8
sS'square'
p4787
I1
sS'11zbtATnVTL'
p4788
I2
sS'isUseAuiIss'
p4789
I2
sS'51M'
p4790
I5
sS'strategy'
p4791
I1
sS'Thousands'
p4792
I1
sS'B010H05JMQ'
p4793
I5
sS'rcx'
p4794
I1
sS'yourstore'
p4795
I3
sS'val'
p4796
I2
sS'Most'
p4797
I4
sS'beacon'
p4798
I3
sS'2F6Fp8CTEmOf2pDOaBQ9HD4MlqDCM54nm5aR03EVJEVFZe15WCL5w'
p4799
I1
sS'2B3huR7u3eNtdMGoBB1TSFhje23RG1XBCmQSJ'
p4800
I1
sS'apps'
p4801
I8
sS'3A2350149011'
p4802
I1
sS'pa'
p4803
I1
sS'IMDb'
p4804
I2
sS'inner'
p4805
I10
sS'CloudDrivePanel'
p4806
I2
sS'biggest'
p4807
I2
sS'vas'
p4808
I1
sS'popupPlayerV1'
p4809
I1
sS'Expendables'
p4810
I4
sS'function'
p4811
I234
sS'buy'
p4812
I2
sS'alexa'
p4813
I1
sS'requestTimes'
p4814
I5
sS'hr'
p4815
I37
sS'funds'
p4816
I1
sS'2FvcIB'
p4817
I1
sS'swmslot'
p4818
I1
sS'ht'
p4819
I1
sS'31hcDbuFeiL'
p4820
I6
sS'Actionable'
p4821
I1
sS'163'
p4822
I1
sS'14251'
p4823
I1
sS'Oops'
p4824
I5
sS'B00BVYNSLC'
p4825
I1
sS'overflow'
p4826
I11
sS'Dec'
p4827
I1
sS'memphis'
p4828
I1
sS'count'
p4829
I41
sS'Compare'
p4830
I3
sS'Industrial'
p4831
I5
sS'Golf'
p4832
I2
sS'beds'
p4833
I1
sS'temp'
p4834
I1
sS'Wall'
p4835
I6
sS'2F31QD5wC1Ma0kbrEB6J3JC9EMuMhTw43'
p4836
I1
sS'3375'
p4837
I1
sS'j'
p4838
I14
sS'1182'
p4839
I3
sS'dmm'
p4840
I1
sS'2FK1J2io5YkSU3PA2A5RMjg'
p4841
I1
sS'1181'
p4842
I3
sS'Twist'
p4843
I4
sS'record'
p4844
I6
sS'books'
p4845
I15
sS'empty'
p4846
I7
sS'fetch'
p4847
I2
sS'problem'
p4848
I3
sS'Care'
p4849
I5
sS'display'
p4850
I46
sS'ec2'
p4851
I2
sS'myx'
p4852
I1
sS'2242532011'
p4853
I1
sS'flyout'
p4854
I30
sS'cartTimeout'
p4855
I1
sS'campusActivation'
p4856
I1
sS'AbeBooks'
p4857
I1
sS'51IgxCfFKgL'
p4858
I1
sS'Site'
p4859
I4
sS'7175545011'
p4860
I1
sS'Print'
p4861
I1
sS'textareaPlaceholder'
p4862
I1
sS'21uZFQ67nJL'
p4863
I4
sS'fitbit'
p4864
I4
sS'Electronics'
p4865
I27
sS'Lithium'
p4866
I6
sS'eastdane'
p4867
I1
sS'piv'
p4868
I22
sS'Goodreads'
p4869
I1
sS'2BGW'
p4870
I1
sS'48'
p4871
I3
sS'49'
p4872
I4
sS'3A7147443011'
p4873
I1
sS'navFooterLogoLine'
p4874
I1
sS'45'
p4875
I7
sS'hpw'
p4876
I1
sS'detail'
p4877
I3
sS'40'
p4878
I8
sS'41'
p4879
I13
sS'Wireless'
p4880
I19
sS'Textbooks'
p4881
I3
sS'other'
p4882
I2
sS'B00FBYY6PU'
p4883
I5
sS'Cellular'
p4884
I4
sS'hpc'
p4885
I6
sS'Sleep'
p4886
I6
sS'2BF30n1MY'
p4887
I1
sS'B52F829B67D44401C2BE286EF11A79A7F838C72F4'
p4888
I1
sS'frn'
p4889
I2
sS'nl'
p4890
I1
sS'evergreen'
p4891
I1
sS'474'
p4892
I2
sS'monday'
p4893
I4
sS'22px'
p4894
I1
sS'00002'
p4895
I2
sS'CB289978805'
p4896
I1
sS'2FQ'
p4897
I1
sS'447969222'
p4898
I1
sS'46px'
p4899
I1
sS'apparel'
p4900
I3
sS'waitPeriod'
p4901
I2
sS'Future'
p4902
I1
sS'U'
p4903
I28
sS'4K'
p4904
I1
sS'760330'
p4905
I1
sS'2B5G'
p4906
I1
sS'4G'
p4907
I12
sS'B00M0QVG3W'
p4908
I2
sS'friends'
p4909
I4
sS'Musical'
p4910
I3
sS'Whispersync'
p4911
I1
sS'yourAccount'
p4912
I1
sS'amazonservices'
p4913
I1
sS'Coach'
p4914
I6
sS'breaks'
p4915
I18
sS'4x'
p4916
I11
sS'devicePixelRatio'
p4917
I2
sS'acorn'
p4918
I2
sS'L340'
p4919
I2
sS'subscribe'
p4920
I1
sS'41ocebjcROL'
p4921
I6
sS'Private'
p4922
I1
sS'3Fc'
p4923
I1
sS'472'
p4924
I3
sS'473'
p4925
I1
sS'470'
p4926
I2
sS'476'
p4927
I3
sS'477'
p4928
I1
sS'issInitObj'
p4929
I16
sS'475'
p4930
I2
sS'2F796N826YW4TzI6KyEKp'
p4931
I1
sS'28204'
p4932
I4
sS'478'
p4933
I6
sS'479'
p4934
I1
sS'11SreAAABVL'
p4935
I6
sS'Orders'
p4936
I4
sS'populateSims'
p4937
I2
sS'Stereo'
p4938
I6
s.