(dp0
S'822'
p1
I1
sS'8f71'
p2
I1
sS'050905952'
p3
I1
sS'dynamic'
p4
I1
sS'sco'
p5
I1
sS'Hunt'
p6
I1
sS'68c6'
p7
I1
sS'164'
p8
I2
sS'prefix'
p9
I1
sS'bcookie'
p10
I4
sS'playpause'
p11
I1
sS'32fe719b4370'
p12
I4
sS'appetite'
p13
I1
sS'hate'
p14
I3
sS'inpt'
p15
I11
sS'userRecognized'
p16
I1
sS'acaec995fd2c'
p17
I1
sS'\xe2\x80\x9cOnce'
p18
I1
sS'e212609c'
p19
I1
sS'43a4aeaf'
p20
I1
sS'paris'
p21
I14
sS'tweet'
p22
I9
sS'30345807'
p23
I5
sS'SCROLLARROWS'
p24
I1
sS'a798'
p25
I1
sS'a9e1'
p26
I1
sS'Sheets'
p27
I1
sS'under'
p28
I1
sS'China'
p29
I6
sS'SBNation'
p30
I1
sS'ab95'
p31
I1
sS'suburban'
p32
I2
sS'4000008500S00001X000'
p33
I1
sS'pgmode'
p34
I1
sS'001000028'
p35
I3
sS'bcnScroll'
p36
I2
sS'fieldset'
p37
I3
sS'risk'
p38
I1
sS'b069'
p39
I1
sS'sca'
p40
I1
sS'void'
p41
I1
sS'13838465'
p42
I23
sS'3b2e'
p43
I1
sS'a9cf22c502cb5fa0eb342a5b1db1f65d'
p44
I1
sS'a1a8'
p45
I1
sS'jacob'
p46
I2
sS'Military'
p47
I3
sS'rtJSLoad'
p48
I1
sS'vast'
p49
I1
sS'look'
p50
I10
sS'234e'
p51
I1
sS'trackShutdown'
p52
I1
sS'9cdc7b61c937'
p53
I1
sS'30345940'
p54
I5
sS'210843101'
p55
I1
sS'ref'
p56
I1
sS'14580105'
p57
I1
sS'2313'
p58
I1
sS'3c48'
p59
I2
sS'Hercules'
p60
I1
sS'globalfinance'
p61
I3
sS'math'
p62
I2
sS'a081'
p63
I1
sS'BGRNews'
p64
I1
sS'Go'
p65
I3
sS'obamaAP'
p66
I2
sS'bcnDrawerOpen'
p67
I2
sS'cms'
p68
I2
sS'heading'
p69
I25
sS'crbc'
p70
I1
sS'BTAeFV4'
p71
I1
sS'4d2ea6fd'
p72
I8
sS'4000008980S00001X000'
p73
I1
sS'3770'
p74
I1
sS'force'
p75
I1
sS'30bd51a0'
p76
I1
sS'1402544433026'
p77
I3
sS'warns'
p78
I2
sS'3EKMgFTmnTFMXnF7E0kPcA'
p79
I1
sS'f1427c7577bb'
p80
I1
sS'horo'
p81
I1
sS'batch'
p82
I2
sS'Matthew'
p83
I1
sS'cd546ef335fd5c5b30314ce47f56a22a'
p84
I1
sS'273'
p85
I1
sS'searchGreyiconEnabled'
p86
I1
sS'275'
p87
I1
sS'7th'
p88
I1
sS'952e'
p89
I1
sS'air'
p90
I3
sS'AnISISde'
p91
I1
sS'sbnation'
p92
I2
sS'blue'
p93
I41
sS'10K'
p94
I2
sS'7ba1d969'
p95
I1
sS'hide'
p96
I5
sS'preferences'
p97
I7
sS'Wash'
p98
I1
sS'News\xe2\x80\xa6'
p99
I1
sS'2715633605'
p100
I2
sS'selected'
p101
I22
sS'35d78e6e'
p102
I1
sS'kendalls'
p103
I1
sS'children'
p104
I1
sS'lights'
p105
I2
sS'a625557acbcf'
p106
I1
sS'animPauseBeacon'
p107
I1
sS'blur'
p108
I3
sS'new'
p109
I17
sS'56ed'
p110
I7
sS'72157660513700188'
p111
I11
sS'bQ2eDhx7272LgnACWQorGA'
p112
I1
sS'told'
p113
I2
sS'med'
p114
I5
sS'widget'
p115
I56
sS'hero'
p116
I3
sS'enableAutocomplete'
p117
I2
sS'sugg'
p118
I2
sS'never'
p119
I1
sS'requestUrl'
p120
I1
sS'here'
p121
I2
sS'hundreds'
p122
I1
sS'e93bc5ec35e6'
p123
I1
sS'met'
p124
I4
sS'27s'
p125
I2
sS'ADSDISLIKE'
p126
I2
sS'24dbb55f'
p127
I1
sS'102'
p128
I2
sS'path'
p129
I46
sS'100'
p130
I23
sS'120x48'
p131
I5
sS'placeholder'
p132
I3
sS'sethpPromoShare'
p133
I2
sS'deferredResDelay'
p134
I1
sS'metrologger'
p135
I4
sS'5c26ecabfbaa'
p136
I1
sS'3582168'
p137
I2
sS'paramLocation'
p138
I1
sS'309a'
p139
I1
sS'4a88ada35bd4'
p140
I4
sS'3582162'
p141
I2
sS'items'
p142
I3
sS'k'
p143
I9
sS'RESULTSITEM'
p144
I1
sS'3582164'
p145
I2
sS'3582165'
p146
I2
sS'ziQ6THJkAmgARaG'
p147
I1
sS'bf35'
p148
I1
sS'3e2b'
p149
I1
sS'e2727843f3b5'
p150
I1
sS'8ac5ef44'
p151
I1
sS'tw'
p152
I1
sS'Home'
p153
I1
sS'teamWrapper'
p154
I16
sS'changes'
p155
I1
sS'sportssearch'
p156
I1
sS'missing'
p157
I1
sS'ne1'
p158
I3
sS'3582184'
p159
I2
sS'Orleans'
p160
I1
sS'3582186'
p161
I2
sS'LREC'
p162
I8
sS'trackingid'
p163
I1
sS'campaign'
p164
I2
sS'Privacy'
p165
I1
sS'9378'
p166
I1
sS'Watch'
p167
I1
sS'3998ae3c'
p168
I1
sS'3582188'
p169
I4
sS'root'
p170
I3
sS'feelings'
p171
I1
sS'bro'
p172
I2
sS'substr'
p173
I1
sS'Health'
p174
I6
sS'k7xgzWHLee4nnJjAu8oE4g'
p175
I1
sS'jackets'
p176
I5
sS'newHeight'
p177
I4
sS'actions'
p178
I1
sS'txt'
p179
I8
sS'050'
p180
I1
sS'11de'
p181
I1
sS'promoapp'
p182
I3
sS'sarah'
p183
I1
sS'plot'
p184
I1
sS'4000007200S00001X000'
p185
I1
sS'countryCode'
p186
I1
sS'would'
p187
I5
sS'ywaProjectId'
p188
I1
sS'30345848'
p189
I7
sS'fstream'
p190
I14
sS'aaron'
p191
I4
sS'39df'
p192
I1
sS'b6cfe2cae94b'
p193
I1
sS'videoPlayerAdsDelay'
p194
I1
sS'ltime'
p195
I9
sS'pathPrefix'
p196
I1
sS'music'
p197
I2
sS'be22d880'
p198
I1
sS'Masthead'
p199
I3
sS'preview'
p200
I3
sS'type'
p201
I292
sS'until'
p202
I1
sS'4000013460S00017X000'
p203
I2
sS'3dcb41b638ce'
p204
I1
sS'4000003230S00002X000'
p205
I1
sS'Play'
p206
I3
sS'2b59'
p207
I1
sS'Ministry'
p208
I3
sS'oscar'
p209
I2
sS'notif'
p210
I1
sS'yahoo'
p211
I400
sS'Teams'
p212
I1
sS'99'
p213
I1
sS'98'
p214
I2
sS'holm'
p215
I1
sS'4000021590S00008X000'
p216
I1
sS'c5'
p217
I2
sS'AlphaImageLoader'
p218
I1
sS'90'
p219
I1
sS'92'
p220
I3
sS'metaSize'
p221
I3
sS'locdropCrumb'
p222
I1
sS'97'
p223
I2
sS'tl2b'
p224
I1
sS'me'
p225
I5
sS'join'
p226
I1
sS'mc'
p227
I19
sS'mb'
p228
I26
sS'ml'
p229
I3
sS'mh'
p230
I2
sS'eb7d6d3b'
p231
I1
sS'mu'
p232
I15
sS'mt'
p233
I34
sS'locationBased'
p234
I1
sS'1447891200000'
p235
I1
sS'mr'
p236
I13
sS'4000007470S00001X000'
p237
I1
sS'c635'
p238
I1
sS'my'
p239
I10
sS'8832'
p240
I1
sS'jindal'
p241
I1
sS'Tested'
p242
I1
sS'transition'
p243
I5
sS'bda4'
p244
I2
sS'chgsgn'
p245
I1
sS'c56e'
p246
I1
sS'UDcNP3SteHsXBzMoNsvMYw'
p247
I1
sS'Wizard'
p248
I1
sS'validates'
p249
I1
sS'stressing'
p250
I1
sS'jalopnik'
p251
I2
sS'36ac'
p252
I1
sS'6ff9'
p253
I1
sS'908849f8'
p254
I1
sS'83280f55'
p255
I1
sS'want'
p256
I1
sS'Teahupoo'
p257
I1
sS'juliaoft'
p258
I1
sS'fptrough'
p259
I1
sS'4000019150S00008X000'
p260
I1
sS'H3getYDRed2'
p261
I1
sS'sportsSearch'
p262
I1
sS'McCurdy'
p263
I4
sS'Tumblr'
p264
I1
sS'hswitch'
p265
I1
sS'end'
p266
I5
sS'4000011580S00008X000'
p267
I1
sS'quot'
p268
I34
sS'win3'
p269
I1
sS'travel'
p270
I9
sS'21ff4953'
p271
I1
sS'be0fc9520686'
p272
I1
sS'feature'
p273
I1
sS'7b417c5f19'
p274
I1
sS'Couric'
p275
I3
sS'hou'
p276
I3
sS'hor'
p277
I6
sS'pluginhost'
p278
I13
sS'env'
p279
I2
sS'rookie'
p280
I3
sS'interview'
p281
I1
sS'BestBuyB'
p282
I1
sS'config'
p283
I24
sS'searchBoxEnabled'
p284
I1
sS'massive'
p285
I1
sS'A'
p286
I4
sS'gaming'
p287
I1
sS'3f0d'
p288
I1
sS'description'
p289
I2
sS'beauty'
p290
I3
sS'horoscope'
p291
I28
sS'less'
p292
I3
sS'resultLen'
p293
I3
sS'after'
p294
I6
sS'7fc7'
p295
I1
sS'8RDUWRjp0SpzI5uXatMaYA'
p296
I1
sS'thankyou'
p297
I1
sS'wrong'
p298
I1
sS'McSnowHammer'
p299
I1
sS'adid'
p300
I11
sS'lat'
p301
I1
sS'YXBwaWQ9eWhvbWVydW47cT04NTtzbT0xO3c9NTgwO2g9MzI2'
p302
I1
sS'YXBwaWQ9eWhvbWVydW47cT00NTtzbT0xO2ZpPWZpbGw7dz0xNjQ7aD0xNjQ7cHlvZmY9MA'
p303
I14
sS'Raptors'
p304
I1
sS'2b038212'
p305
I1
sS'Lifestyles'
p306
I1
sS'51643100'
p307
I7
sS'opted'
p308
I1
sS'All'
p309
I2
sS'hostFile'
p310
I1
sS'82be'
p311
I1
sS'third'
p312
I1
sS'4000000910A100S00004X000'
p313
I1
sS'strs'
p314
I29
sS'bootstrap'
p315
I1
sS'7281d7ca'
p316
I1
sS'maintain'
p317
I1
sS'horribly'
p318
I1
sS'strm'
p319
I180
sS'enter'
p320
I1
sS'FALLBACK'
p321
I5
sS'first'
p322
I5
sS'make'
p323
I3
sS'nonsequitur'
p324
I3
sS'200129148'
p325
I1
sS'12000'
p326
I1
sS'privateCometHost'
p327
I1
sS'feedback'
p328
I4
sS'ABBY'
p329
I1
sS'plcmt'
p330
I2
sS'over'
p331
I2
sS'adsfallbackData'
p332
I1
sS'857f'
p333
I1
sS'YAFT'
p334
I3
sS'TOGGLE'
p335
I2
sS'el'
p336
I3
sS'tempUnit'
p337
I1
sS'34c3'
p338
I1
sS'nets'
p339
I1
sS'financePortfolioUrl'
p340
I1
sS'before'
p341
I1
sS'yimg'
p342
I335
sS'9ad1'
p343
I2
sS'uuid'
p344
I26
sS'img'
p345
I266
sS'personal'
p346
I1
sS'Salt'
p347
I2
sS'trying'
p348
I3
sS'SECONDINPUT'
p349
I1
sS'defector'
p350
I3
sS'videoplayer'
p351
I2
sS'Here'
p352
I1
sS'SOURCE'
p353
I1
sS'production'
p354
I1
sS'403'
p355
I1
sS'Act'
p356
I2
sS'400'
p357
I1
sS'carve'
p358
I7
sS'hidden'
p359
I17
sS'fin'
p360
I14
sS'2dd0078a2f27'
p361
I1
sS'videoPlayerQosRate'
p362
I1
sS'frcode'
p363
I1
sS'them'
p364
I2
sS'anim'
p365
I12
sS'ZIP'
p366
I1
sS'createTextRange'
p367
I2
sS'Mobile'
p368
I1
sS'downs'
p369
I1
sS'safe'
p370
I1
sS'break'
p371
I3
sS'3582131'
p372
I2
sS'sdarla'
p373
I4
sS'e4691df04aa9'
p374
I1
sS'RETAIN'
p375
I1
sS'payback'
p376
I1
sS'rapidnofollow'
p377
I78
sS'Microsoft'
p378
I1
sS'one'
p379
I5
sS'Environmental'
p380
I1
sS'formerSP'
p381
I1
sS'appMgmtDialog'
p382
I1
sS'20427270706'
p383
I2
sS'8de9'
p384
I1
sS'001000780'
p385
I7
sS'Dce6WMA'
p386
I1
sS'7ac5'
p387
I1
sS'30345835'
p388
I5
sS'l'
p389
I157
sS'30345830'
p390
I9
sS'explode'
p391
I1
sS'good'
p392
I1
sS'1x1'
p393
I3
sS'setlineup'
p394
I6
sS'b9ed13cc'
p395
I1
sS'arrow'
p396
I7
sS'1447824043'
p397
I2
sS'debug'
p398
I1
sS'went'
p399
I1
sS'3eb9'
p400
I1
sS'b85c'
p401
I1
sS'3581987'
p402
I2
sS'Abby'
p403
I6
sS'4000006200S00001X000'
p404
I1
sS'f7126d29'
p405
I1
sS'luann'
p406
I3
sS'adobe'
p407
I1
sS'mdm'
p408
I2
sS'list'
p409
I61
sS'uievents'
p410
I6
sS'15000'
p411
I3
sS'4000012010S00008X000'
p412
I1
sS'Aside'
p413
I1
sS'usproxy2'
p414
I1
sS'upc'
p415
I19
sS'4c037a93'
p416
I1
sS'4000009990S00001X000'
p417
I2
sS'395'
p418
I2
sS'awry'
p419
I1
sS'logo'
p420
I10
sS'9b99'
p421
I1
sS'bcnDrawerClose'
p422
I2
sS'cc6a'
p423
I1
sS'brings'
p424
I1
sS'19T00'
p425
I3
sS'rt'
p426
I2
sS'37e9'
p427
I1
sS'trending'
p428
I1
sS'b447c19b'
p429
I1
sS'rq'
p430
I8
sS'90c4'
p431
I1
sS'xservicePath'
p432
I1
sS'3d60ea79'
p433
I1
sS'cameras'
p434
I1
sS'rx'
p435
I2
sS'dss'
p436
I2
sS'rz'
p437
I1
sS'imgGossipUrl'
p438
I1
sS'content'
p439
I25
sS're'
p440
I3
sS'Holm'
p441
I8
sS'9c36'
p442
I1
sS'8cb9'
p443
I5
sS'nextgen'
p444
I1
sS'rc'
p445
I6
sS'rm'
p446
I13
sS'Super'
p447
I1
sS'gop'
p448
I1
sS'delegate'
p449
I7
sS'5737c5b4'
p450
I1
sS'comScore'
p451
I2
sS'clearfix'
p452
I3
sS'rail'
p453
I4
sS'University'
p454
I1
sS'linkout'
p455
I1
sS'mourning'
p456
I1
sS'1a43'
p457
I1
sS'45d55efeab64'
p458
I1
sS'cscLogEnabled'
p459
I1
sS'243'
p460
I1
sS'setSelectionRange'
p461
I2
sS'favs'
p462
I1
sS'a21fd6fea324'
p463
I1
sS'AFP'
p464
I2
sS'37cb'
p465
I1
sS'placementID'
p466
I3
sS'9f1f'
p467
I10
sS'141209'
p468
I1
sS'9c4b'
p469
I1
sS'a966da5'
p470
I1
sS'logging'
p471
I3
sS'36cf'
p472
I1
sS'onStartPosRender'
p473
I1
sS'National'
p474
I10
sS'privacy'
p475
I5
sS'Ugg'
p476
I5
sS'days'
p477
I1
sS'DEFAULT'
p478
I1
sS'30345710'
p479
I5
sS'filter'
p480
I117
sS'bcnOnOff'
p481
I2
sS'prefetch'
p482
I1
sS'positionMeta'
p483
I1
sS'signature'
p484
I25
sS'isc'
p485
I17
sS'a341'
p486
I1
sS'240483'
p487
I2
sS'onto'
p488
I1
sS'shoppingPartner'
p489
I1
sS'f2068adfa354b97ae83d8efb6da7053d'
p490
I1
sS'XDbRjy'
p491
I1
sS'rang'
p492
I2
sS'render'
p493
I1
sS'35de'
p494
I1
sS'8f92d475ba92'
p495
I1
sS'nhl'
p496
I14
sS'Please'
p497
I2
sS'69d5'
p498
I1
sS'd008'
p499
I1
sS'fantasy'
p500
I1
sS'featured'
p501
I8
sS'Going'
p502
I1
sS'radioContainer'
p503
I1
sS'customization'
p504
I1
sS'AIDS'
p505
I1
sS'navigator'
p506
I1
sS'elmt'
p507
I200
sS'Monsters'
p508
I2
sS'hood'
p509
I2
sS'ThisisWh'
p510
I1
sS'3baf'
p511
I1
sS'basketball'
p512
I1
sS'onSuccess'
p513
I1
sS'service'
p514
I92
sS'tor'
p515
I2
sS'9753236'
p516
I1
sS'top'
p517
I19
sS'IXIC'
p518
I1
sS'girls'
p519
I6
sS'd274db7b'
p520
I1
sS'Jennette'
p521
I3
sS'iosDefaultSearchSetEnabled'
p522
I1
sS'vqTETEj9qJjV1R7c3oG4hw'
p523
I1
sS'cc42f8f96e2eb6218008b2d505d917f8'
p524
I1
sS'Press'
p525
I1
sS'242455'
p526
I2
sS'd3bc'
p527
I1
sS'LIFESTYLES'
p528
I1
sS'userinfo'
p529
I3
sS'publicCometHost'
p530
I1
sS'1447826948'
p531
I3
sS'Search'
p532
I17
sS'B'
p533
I1
sS'rGe3yVYVTRqL7tO4l4WQ'
p534
I1
sS'3D501'
p535
I1
sS'8b5d'
p536
I1
sS'centered'
p537
I1
sS'f66ac98e4e73'
p538
I1
sS'signup'
p539
I2
sS'panel11'
p540
I1
sS'took'
p541
I1
sS'd00f'
p542
I1
sS'searchsubmit'
p543
I1
sS'Ahmet'
p544
I3
sS'193'
p545
I1
sS'somewhat'
p546
I1
sS'LABEL'
p547
I1
sS'd718'
p548
I1
sS'4000001100A100S00004X000'
p549
I1
sS'dummyYLT'
p550
I1
sS'940b'
p551
I1
sS'Iraq'
p552
I5
sS'target'
p553
I16
sS'3582149'
p554
I2
sS'shadowbound'
p555
I2
sS'4000012870S00008X000'
p556
I1
sS'b233'
p557
I1
sS'17583d6d139acb69046d77c8cf35c507'
p558
I1
sS'enabled'
p559
I33
sS'Sex'
p560
I4
sS'project'
p561
I1
sS'See'
p562
I2
sS'srenderPath'
p563
I1
sS'1ee6'
p564
I1
sS'qoFHrtjK8X1MclxsykcP1A'
p565
I1
sS'b01f'
p566
I1
sS'Interest'
p567
I1
sS'we\xe2\x80\x99ve'
p568
I1
sS'navigate'
p569
I3
sS'modern'
p570
I1
sS'35ae'
p571
I1
sS'ee2c839a8a77'
p572
I1
sS'a1b6'
p573
I1
sS'716b92ce1a2a'
p574
I1
sS'locDetectEnabled'
p575
I1
sS'showOnlySetHP'
p576
I2
sS'Holly'
p577
I8
sS'tells'
p578
I1
sS'lang'
p579
I5
sS'secure'
p580
I1
sS'b849f257'
p581
I1
sS'3ff9'
p582
I1
sS'yui3'
p583
I7
sS'211500254'
p584
I1
sS'Parenting'
p585
I3
sS'recommended'
p586
I3
sS'29a3'
p587
I1
sS'luxury'
p588
I1
sS'forces'
p589
I5
sS'8c87'
p590
I1
sS'69610f0c'
p591
I1
sS'progid'
p592
I1
sS'4000009070S00001X000'
p593
I1
sS'39e4'
p594
I1
sS'Jones'
p595
I1
sS'celibate'
p596
I1
sS'searchform'
p597
I1
sS'classy'
p598
I3
sS'ADSDISLIKEOPTN3'
p599
I1
sS'Knight'
p600
I3
sS'ADSDISLIKEOPTN1'
p601
I1
sS'4000012870S00017X000'
p602
I2
sS'OIJc8uHxJgHeA'
p603
I1
sS'ADSDISLIKEOPTN4'
p604
I1
sS'HC0phM'
p605
I1
sS'Columnist'
p606
I1
sS'4000008550S00001X000'
p607
I1
sS'loadingMessage'
p608
I1
sS'f571d294db062b5e2c19d300dc7da53a'
p609
I1
sS'min2'
p610
I1
sS'Bernie'
p611
I5
sS'62e57f06cca7'
p612
I1
sS'padding'
p613
I1
sS'don'
p614
I8
sS'19c6'
p615
I1
sS'14816902'
p616
I1
sS'db36777d'
p617
I1
sS'camp'
p618
I2
sS'm'
p619
I189
sS'a28c6c82d10c'
p620
I1
sS'Garfield'
p621
I1
sS'536890b0'
p622
I1
sS'tech'
p623
I4
sS'c713'
p624
I1
sS'neg'
p625
I1
sS'entertaining'
p626
I2
sS'reserve'
p627
I14
sS'modErrorHtml'
p628
I1
sS'bomb'
p629
I2
sS'0928aa84026c'
p630
I1
sS'bottomright'
p631
I1
sS'a64b'
p632
I1
sS'presentation'
p633
I5
sS'Illegal'
p634
I3
sS'1148'
p635
I1
sS'OBJECT'
p636
I1
sS'Helvetica'
p637
I4
sS'13303551'
p638
I3
sS'ab5a29fc'
p639
I7
sS'LOADING'
p640
I2
sS'0a2760f0c900'
p641
I1
sS'pkg'
p642
I1
sS'Hlsp6q5sF3yifxDIpdJVbrYvFLv'
p643
I1
sS'4000000310A100S00004X000'
p644
I1
sS'Sequitur'
p645
I1
sS'1402776928'
p646
I1
sS'enjoyed'
p647
I3
sS'Thank'
p648
I3
sS'toast'
p649
I1
sS'drew'
p650
I1
sS'tabid'
p651
I13
sS'layout'
p652
I4
sS'just'
p653
I6
sS'async'
p654
I4
sS'headline'
p655
I13
sS'menu'
p656
I27
sS'175545907'
p657
I1
sS'fa8f498d'
p658
I3
sS'8f7a'
p659
I1
sS'hrs'
p660
I5
sS'cpgnv1'
p661
I2
sS'theme'
p662
I9
sS'9173a6b4'
p663
I1
sS'Bad'
p664
I1
sS'FILTERS'
p665
I1
sS'ir11'
p666
I1
sS'announce'
p667
I1
sS'242453'
p668
I2
sS'4f1666f6489b'
p669
I1
sS'Explosions'
p670
I2
sS'16384'
p671
I1
sS'dn'
p672
I24
sS'innerborder'
p673
I1
sS'tiles'
p674
I2
sS'dk'
p675
I4
sS'dh'
p676
I12
sS'wide'
p677
I1
sS'df'
p678
I17
sS'a02b5580'
p679
I1
sS'dd'
p680
I19
sS'de'
p681
I1
sS'stop'
p682
I3
sS'4000006030S00001X000'
p683
I2
sS'sdaRefreshTimeout'
p684
I1
sS'locDenialAlertMessage'
p685
I1
sS'yfp'
p686
I3
sS'a334'
p687
I1
sS'report'
p688
I1
sS'X'
p689
I1
sS'dt'
p690
I7
sS'Crime'
p691
I1
sS'dr'
p692
I1
sS'ds'
p693
I2
sS'peyton'
p694
I1
sS'webGossipUrl'
p695
I1
sS'getElementsByTagName'
p696
I1
sS'bat'
p697
I1
sS'bar'
p698
I2
sS'60c695bae3'
p699
I1
sS'bpic'
p700
I1
sS'covering'
p701
I1
sS'adsRemoveEnable'
p702
I1
sS'4000015280S00017X000'
p703
I2
sS'MYyImKujO2xYkM4BamQHsE'
p704
I1
sS'undectable'
p705
I1
sS'Washington'
p706
I1
sS'option3'
p707
I4
sS'isLrec2Failure'
p708
I3
sS'SwKwovoAkgMTvdY'
p709
I1
sS'1f7295d7'
p710
I1
sS'b3a7'
p711
I1
sS'206380'
p712
I1
sS'a956'
p713
I1
sS'sethomepage'
p714
I3
sS'proxyTimeout'
p715
I1
sS'LREC2'
p716
I4
sS'dnr'
p717
I1
sS'4000006860S00001X000'
p718
I1
sS'93ede023e9b5'
p719
I1
sS'eP0a0UJibMiUKiWGmkpUbw'
p720
I1
sS'Internet'
p721
I1
sS'itemLists'
p722
I1
sS'Levant'
p723
I5
sS'observed'
p724
I2
sS'DARLA'
p725
I11
sS'Recommended'
p726
I1
sS'num'
p727
I36
sS'STATIC'
p728
I1
sS'result'
p729
I6
sS'4000009000S00001X000'
p730
I1
sS'weird'
p731
I8
sS'Android'
p732
I5
sS'srpx'
p733
I1
sS'closeAd'
p734
I3
sS'best'
p735
I2
sS'02'
p736
I1
sS'03'
p737
I2
sS'30345823'
p738
I7
sS'said'
p739
I2
sS'06'
p740
I2
sS'ddmenu'
p741
I7
sS'04'
p742
I2
sS'30345826'
p743
I15
sS'away'
p744
I5
sS'tags'
p745
I42
sS'broadcastDynamicEnabled'
p746
I1
sS'score'
p747
I8
sS'game3'
p748
I2
sS'game2'
p749
I2
sS'game1'
p750
I2
sS'props'
p751
I45
sS'25941429036'
p752
I3
sS'4000005570S00002X000'
p753
I1
sS'sorts'
p754
I1
sS'previous'
p755
I1
sS'4000012730S00017X000'
p756
I1
sS'zindexClass'
p757
I1
sS'677b'
p758
I1
sS'e35b02c616a6'
p759
I4
sS'001000001'
p760
I7
sS'C'
p761
I8
sS'men'
p762
I1
sS'terms'
p763
I1
sS'Settings'
p764
I1
sS'4000005690S00001X000'
p765
I1
sS'onkeydown'
p766
I1
sS'Celibacy'
p767
I1
sS'HIV\xe2\x80\x99'
p768
I1
sS'typing'
p769
I1
sS'9d00c7b27067'
p770
I1
sS'sportacular'
p771
I14
sS'Cloudy'
p772
I4
sS'172c67c10f31'
p773
I1
sS'expIfr'
p774
I2
sS'gsw2'
p775
I1
sS'credstore'
p776
I1
sS'improve'
p777
I2
sS'faced'
p778
I1
sS'cop'
p779
I1
sS'ilc'
p780
I5
sS'geocoder'
p781
I3
sS'12b4a101dc2b'
p782
I1
sS'3c28'
p783
I5
sS'country'
p784
I2
sS'navigatorAvail'
p785
I1
sS'lookit'
p786
I1
sS'space'
p787
I1
sS'against'
p788
I9
sS'players'
p789
I2
sS'109'
p790
I3
sS'games'
p791
I27
sS't4'
p792
I8
sS'046cdf60d42743adeca2dcd42d7f46a06ec4b377'
p793
I1
sS'adlocs'
p794
I6
sS'uni'
p795
I2
sS'login'
p796
I62
sS'com'
p797
I820
sS'col'
p798
I13
sS'011d'
p799
I1
sS'had'
p800
I4
sS'TVs'
p801
I1
sS'height'
p802
I65
sS'a2ce'
p803
I1
sS'3f2f'
p804
I1
sS'Forest'
p805
I1
sS'loaded'
p806
I1
sS'250'
p807
I9
sS'Dating'
p808
I1
sS'4d0e1dd6'
p809
I1
sS'conference'
p810
I1
sS'beeb'
p811
I1
sS'cpos'
p812
I134
sS'59b0f1924432'
p813
I1
sS'4000013400S00017X000'
p814
I2
sS'pregame'
p815
I4
sS'rangers'
p816
I1
sS'chrome'
p817
I25
sS'Curry'
p818
I7
sS'three'
p819
I1
sS'been'
p820
I1
sS'edgeRoot'
p821
I1
sS'enableRQInlineEdit'
p822
I1
sS'Groups'
p823
I2
sS'b9ee'
p824
I1
sS'prefs'
p825
I17
sS'3e0c'
p826
I1
sS'offnetwork'
p827
I4
sS'canucks'
p828
I1
sS'xxs'
p829
I85
sS'onblur'
p830
I1
sS'Q5ybbCWCa8X4v8g'
p831
I1
sS'bmPE5Mw'
p832
I1
sS'sprite'
p833
I162
sS'd828bcdd'
p834
I1
sS'turned'
p835
I2
sS'undefined'
p836
I1
sS'contentinfo'
p837
I2
sS'a23f'
p838
I5
sS'26391799'
p839
I7
sS'Sites'
p840
I1
sS'b7ab'
p841
I1
sS'033434221'
p842
I4
sS'35f0'
p843
I1
sS'3582169'
p844
I2
sS'81be'
p845
I1
sS'33a9'
p846
I1
sS'spid'
p847
I1
sS'303e'
p848
I1
sS'catch'
p849
I2
sS'ae61'
p850
I5
sS'35f8'
p851
I1
sS'sf1'
p852
I1
sS'160'
p853
I1
sS'001001060'
p854
I3
sS'162'
p855
I1
sS'diverted'
p856
I12
sS'play'
p857
I2
sS'openAnimDisabled'
p858
I1
sS'videosearch'
p859
I1
sS'has'
p860
I29
sS'Huertas'
p861
I6
sS'emails'
p862
I1
sS'pbid'
p863
I3
sS'5f02'
p864
I1
sS'International'
p865
I2
sS'enableBucketedGames'
p866
I1
sS'f318'
p867
I4
sS'850166'
p868
I1
sS'autoplay'
p869
I2
sS'1447784786'
p870
I2
sS'n'
p871
I218
sS'fr2'
p872
I30
sS'near'
p873
I2
sS'slk'
p874
I53
sS'aid'
p875
I28
sS'TheNationalInter'
p876
I1
sS'Tuesday'
p877
I3
sS'launched'
p878
I4
sS'1094'
p879
I1
sS'desktopCrumb'
p880
I1
sS'rotationTimingDisabled'
p881
I1
sS'1095'
p882
I1
sS'3582166'
p883
I2
sS'0000000'
p884
I1
sS'36be10c50d3d'
p885
I8
sS'spaceid'
p886
I5
sS'lookupTime'
p887
I1
sS'21d83253'
p888
I1
sS'need'
p889
I3
sS'enableAnimation'
p890
I1
sS'Here\xe2\x80\x99s'
p891
I2
sS'2048'
p892
I1
sS'conf'
p893
I2
sS'8d4c'
p894
I1
sS'campaigning'
p895
I3
sS'a1ca'
p896
I2
sS'ib'
p897
I289
sS'id'
p898
I430
sS'trusted'
p899
I28
sS'D'
p900
I6
sS'videoPlayerSafariHtml5'
p901
I1
sS'Jeffrey'
p902
I1
sS'Main'
p903
I1
sS'locDenialAlertInterval'
p904
I1
sS'impID'
p905
I3
sS'katiecouric'
p906
I3
sS'custom'
p907
I11
sS'aa68'
p908
I1
sS'amount'
p909
I3
sS'4000019090S00008X000'
p910
I1
sS'300'
p911
I3
sS'complex'
p912
I7
sS'5981ab09'
p913
I1
sS'filtered'
p914
I1
sS'DROPDOWN'
p915
I1
sS'NAVIGATION'
p916
I1
sS'couple'
p917
I1
sS'254f'
p918
I1
sS'353b'
p919
I1
sS'raid'
p920
I4
sS'Room'
p921
I4
sS'353f'
p922
I1
sS'99d6b30c4f9529f59fabc75b5888fea1'
p923
I1
sS'gameWrapper'
p924
I8
sS'c20ba3a0'
p925
I1
sS'Angeles'
p926
I5
sS'suburb'
p927
I4
sS'Telmolo'
p928
I1
sS'YXBwaWQ9eWhvbWVydW47cT04NTtzbT0xO3c9NTA7aD01MA'
p929
I16
sS'Y'
p930
I19
sS'10500'
p931
I1
sS'opportunity'
p932
I1
sS'darla'
p933
I11
sS'a933d190'
p934
I1
sS'President'
p935
I1
sS'cscURI'
p936
I3
sS'shortly'
p937
I1
sS'useShow'
p938
I1
sS'yahoofrontpageappmoregames'
p939
I1
sS'smoker'
p940
I5
sS'inherit'
p941
I6
sS'4000016390S00008X000'
p942
I1
sS'20c8c395f22f'
p943
I1
sS'd49b'
p944
I1
sS'6035553c'
p945
I1
sS'there\xe2\x80\x99s'
p946
I2
sS'thg'
p947
I20
sS'3131'
p948
I1
sS'hjserror'
p949
I1
sS'dads'
p950
I1
sS'left'
p951
I37
sS'Sarah'
p952
I7
sS'lqCL4COzlsfx16pjY6Amg'
p953
I1
sS'locOverride'
p954
I1
sS'f2b8d5084bbd'
p955
I1
sS'background'
p956
I63
sS'19342041203'
p957
I2
sS'3582185'
p958
I2
sS'useYAC'
p959
I1
sS'photo'
p960
I2
sS'dealing'
p961
I1
sS'terrorist'
p962
I1
sS'Cambodia'
p963
I6
sS'2fdb0a141758'
p964
I1
sS'3ae3'
p965
I7
sS'quotes'
p966
I9
sS'fighters'
p967
I1
sS'3582187'
p968
I2
sS'5473'
p969
I1
sS'CONF'
p970
I8
sS'a426'
p971
I1
sS'yep'
p972
I11
sS'c28244f3'
p973
I1
sS'shadow'
p974
I1
sS'25021282'
p975
I1
sS't9pm5siR9'
p976
I1
sS'noscript'
p977
I8
sS'onload'
p978
I1
sS'broncos'
p979
I1
sS'family'
p980
I8
sS'candidate'
p981
I1
sS'elm'
p982
I228
sS'scorpio'
p983
I2
sS'Oscar'
p984
I4
sS'batchSize'
p985
I1
sS'3582183'
p986
I2
sS'character'
p987
I2
sS'4000008440S00001X000'
p988
I1
sS'Waimea'
p989
I1
sS'fxjsonp'
p990
I1
sS'Scorpio'
p991
I1
sS'potential'
p992
I1
sS'teenager'
p993
I1
sS'News'
p994
I15
sS'303f'
p995
I1
sS'save'
p996
I3
sS'humanity'
p997
I3
sS'gave'
p998
I3
sS'95e0'
p999
I1
sS'fantasysports'
p1000
I1
sS'429a'
p1001
I1
sS'a42e'
p1002
I1
sS'fracture'
p1003
I1
sS'woeId'
p1004
I2
sS'yahoofrontpageapprecommended'
p1005
I3
sS'b4cf79b24a9a'
p1006
I1
sS'possible'
p1007
I6
sS'bd80'
p1008
I1
sS'Roberts'
p1009
I1
sS'3pm'
p1010
I1
sS'haspopup'
p1011
I3
sS'a38e'
p1012
I1
sS'OK'
p1013
I2
sS'0f0a836149f6'
p1014
I1
sS'highly'
p1015
I1
sS'20K'
p1016
I2
sS'advanced'
p1017
I2
sS'Trump'
p1018
I3
sS'118'
p1019
I1
sS'111815'
p1020
I5
sS'59'
p1021
I2
sS'58'
p1022
I6
sS'73fa8d2e'
p1023
I1
sS'and\xc2\xa0Jennette'
p1024
I1
sS'55'
p1025
I8
sS'57'
p1026
I1
sS'hunt'
p1027
I2
sS'51'
p1028
I2
sS'50'
p1029
I38
sS'53'
p1030
I3
sS'52'
p1031
I7
sS'536'
p1032
I2
sS'3fca'
p1033
I1
sS'metaKey'
p1034
I1
sS'b473'
p1035
I1
sS'Are'
p1036
I1
sS'ywa'
p1037
I13
sS'8cc7760b'
p1038
I1
sS'Compares'
p1039
I1
sS'security'
p1040
I4
sS'autohide'
p1041
I4
sS'www'
p1042
I146
sS'right'
p1043
I5
sS'old'
p1044
I9
sS'people'
p1045
I5
sS'whiteListedAds'
p1046
I2
sS'Chevrolet'
p1047
I2
sS'mPLduIhEnHXUuA'
p1048
I1
sS'dead'
p1049
I3
sS'sizingMethod'
p1050
I1
sS'Weapons'
p1051
I1
sS'20151118'
p1052
I3
sS'36'
p1053
I3
sS'celibacy'
p1054
I1
sS'tabbar'
p1055
I15
sS'openAnimDuration'
p1056
I1
sS'Fargo'
p1057
I2
sS'2b658934233a'
p1058
I1
sS'contests'
p1059
I2
sS'fe7dc925099f1181c86e2803b56af07e8bcec81c'
p1060
I1
sS'paginationtype'
p1061
I1
sS'f63f'
p1062
I1
sS'noQueryURL'
p1063
I5
sS'total'
p1064
I2
sS'humor'
p1065
I1
sS'icn'
p1066
I17
sS'G0s9zJSJWJUU3Ae8QZPKVQ'
p1067
I1
sS'purple'
p1068
I6
sS'forums'
p1069
I1
sS'4000013430S00008X000'
p1070
I1
sS'killing'
p1071
I3
sS'everything'
p1072
I4
sS'a728'
p1073
I1
sS'Les'
p1074
I1
sS'unit'
p1075
I12
sS'beaconFired'
p1076
I5
sS'foo'
p1077
I1
sS'AE'
p1078
I2
sS'6860265454'
p1079
I2
sS'3809398ea8dc'
p1080
I6
sS'c21d'
p1081
I1
sS'68UOPDqMD4N1U'
p1082
I1
sS'School'
p1083
I1
sS'who'
p1084
I3
sS'ctnr'
p1085
I1
sS'7298'
p1086
I1
sS'Daily'
p1087
I2
sS'REMOVETEXT'
p1088
I1
sS'monsters'
p1089
I1
sS'393146ef996e'
p1090
I1
sS'29ff'
p1091
I1
sS'9f6a'
p1092
I1
sS'starring'
p1093
I1
sS'8a39'
p1094
I1
sS'0px'
p1095
I2
sS'Think'
p1096
I1
sS'pli'
p1097
I2
sS'First'
p1098
I1
sS'DivorceF'
p1099
I1
sS'Accidental'
p1100
I1
sS'lightbox'
p1101
I11
sS'attacks'
p1102
I4
sS'Image'
p1103
I1
sS'1f18'
p1104
I1
sS'o'
p1105
I7
sS'essential'
p1106
I1
sS'plus'
p1107
I1
sS'u00cb'
p1108
I1
sS'6d6e25f647'
p1109
I1
sS'curry'
p1110
I1
sS'Best'
p1111
I16
sS'GS'
p1112
I1
sS'Use'
p1113
I2
sS'dilemma'
p1114
I1
sS'nationalinterest'
p1115
I2
sS'Make'
p1116
I4
sS'Abdullah'
p1117
I3
sS'bound'
p1118
I5
sS'son'
p1119
I2
sS'down'
p1120
I3
sS'Insider'
p1121
I3
sS'826b'
p1122
I1
sS'panel9'
p1123
I1
sS'wikiids'
p1124
I26
sS'sow'
p1125
I1
sS'17986569'
p1126
I1
sS'wrap'
p1127
I86
sS'subo'
p1128
I6
sS'50d7818279d7'
p1129
I1
sS'soon'
p1130
I1
sS'a702'
p1131
I1
sS'chunked'
p1132
I1
sS'4000007110S00001X000'
p1133
I1
sS'ISIS'
p1134
I6
sS'Cat\xc2\xa0did'
p1135
I1
sS'dropdownHover'
p1136
I1
sS'initial'
p1137
I1
sS'UkrYu48p9F\xe2\x80\x94'
p1138
I1
sS'gift'
p1139
I30
sS'why'
p1140
I9
sS'panel8'
p1141
I1
sS'gif'
p1142
I23
sS'conservation'
p1143
I1
sS'4000004690S00008X000'
p1144
I1
sS'way'
p1145
I4
sS'crews'
p1146
I1
sS'panel0'
p1147
I1
sS'panel1'
p1148
I1
sS'NBA'
p1149
I13
sS'panel3'
p1150
I1
sS'panel4'
p1151
I1
sS'panel5'
p1152
I1
sS'panel6'
p1153
I1
sS'panel7'
p1154
I1
sS'Passengers'
p1155
I1
sS'head'
p1156
I1
sS'medium'
p1157
I2
sS'61ded94f'
p1158
I1
sS'form'
p1159
I13
sS'some'
p1160
I1
sS'b41d480d7a6e'
p1161
I1
sS'Coming'
p1162
I1
sS'4000006250S00001X000'
p1163
I1
sS'bengals'
p1164
I1
sS'useGlApi'
p1165
I2
sS'3582098'
p1166
I2
sS'profile'
p1167
I1
sS'searchlabel'
p1168
I1
sS'9c83'
p1169
I1
sS'icmp'
p1170
I11
sS'true'
p1171
I107
sS'GMT'
p1172
I1
sS'reset'
p1173
I1
sS'Golden'
p1174
I1
sS'isis'
p1175
I2
sS'ADs'
p1176
I6
sS'versions'
p1177
I1
sS'supp'
p1178
I3
sS'3582113'
p1179
I4
sS'ADSDISLIKEDCTA'
p1180
I1
sS'CACHEBUSTER'
p1181
I2
sS'3582112'
p1182
I2
sS'29729a42'
p1183
I1
sS'Vow'
p1184
I1
sS'37a1'
p1185
I1
sS'FLAGGEDCTA'
p1186
I1
sS'2023538075'
p1187
I10
sS'e27c9159e8a1'
p1188
I1
sS'3582110'
p1189
I2
sS'Vox'
p1190
I2
sS'37a8'
p1191
I1
sS'delete'
p1192
I1
sS'centerStory'
p1193
I1
sS'4000009660S00001X000'
p1194
I1
sS'matchID'
p1195
I3
sS'3f64'
p1196
I1
sS'3532256'
p1197
I1
sS'Personal'
p1198
I5
sS'Got'
p1199
I1
sS'animate'
p1200
I1
sS'Deseret'
p1201
I2
sS'sticky'
p1202
I6
sS'31f3'
p1203
I1
sS'billboard'
p1204
I2
sS'eb7b5fab'
p1205
I1
sS'd3be4bfca479'
p1206
I1
sS'a665'
p1207
I1
sS'face'
p1208
I8
sS'check'
p1209
I21
sS'fb7f560e'
p1210
I1
sS'moreClickEnabled'
p1211
I1
sS'pipe'
p1212
I3
sS'Begin'
p1213
I1
sS'1197716352'
p1214
I1
sS'4000024840S00008X000'
p1215
I2
sS'nn'
p1216
I393
sS'130122'
p1217
I1
sS'when'
p1218
I11
sS'ne'
p1219
I1
sS'handed'
p1220
I1
sS'Cgy'
p1221
I1
sS'role'
p1222
I48
sS'bfa9'
p1223
I1
sS'30346008'
p1224
I7
sS'378e'
p1225
I1
sS'test'
p1226
I6
sS'nq'
p1227
I1
sS'3b41'
p1228
I1
sS'30346005'
p1229
I4
sS'30346002'
p1230
I1
sS'30346003'
p1231
I7
sS'30346000'
p1232
I7
sS'30346001'
p1233
I1
sS'node'
p1234
I30
sS'mozilla'
p1235
I1
sS'E'
p1236
I2
sS'locDetectWriteEnabled'
p1237
I1
sS'SHOW'
p1238
I1
sS'football'
p1239
I3
sS'polite'
p1240
I1
sS'adServer'
p1241
I2
sS'ACTIONDRAWER'
p1242
I13
sS'postLoad'
p1243
I2
sS'intent'
p1244
I5
sS'interestId'
p1245
I2
sS'scores'
p1246
I3
sS'enableAppReorderingLoggedOut'
p1247
I1
sS'ico'
p1248
I1
sS'lastDetectedLocExp'
p1249
I1
sS'4000006010S00001X000'
p1250
I1
sS'988def28'
p1251
I1
sS'3cb0'
p1252
I1
sS'oMBA62b56HrEfcMASdg0gA'
p1253
I1
sS'lazyLoad'
p1254
I1
sS'26fr'
p1255
I1
sS'tested'
p1256
I1
sS'queryfirst'
p1257
I1
sS'Charles'
p1258
I2
sS'uicontrib'
p1259
I35
sS'90bea411aeaf'
p1260
I1
sS'daily'
p1261
I2
sS'084744401'
p1262
I4
sS'4154984551'
p1263
I3
sS'8ec3fc93fdcf'
p1264
I1
sS'ovr'
p1265
I5
sS'time'
p1266
I17
sS'push'
p1267
I12
sS'w1200'
p1268
I1
sS'0372dc7b54c1'
p1269
I1
sS'7G5EbWE4UjnshojCVRaJUA'
p1270
I1
sS'PluID'
p1271
I2
sS'23424868'
p1272
I38
sS'chain'
p1273
I1
sS'3582060'
p1274
I2
sS'TEXT'
p1275
I1
sS'global'
p1276
I1
sS'focus'
p1277
I9
sS'leads'
p1278
I1
sS'WIDTH'
p1279
I3
sS'manager'
p1280
I6
sS'skin'
p1281
I7
sS'86fcecc9'
p1282
I1
sS'bomber'
p1283
I2
sS'Louisiana'
p1284
I2
sS'Today'
p1285
I5
sS'row'
p1286
I5
sS'Dad'
p1287
I2
sS'1UUQ8rKOviivKp05W0augw'
p1288
I1
sS'Ravell'
p1289
I2
sS'ver'
p1290
I2
sS'Dan'
p1291
I2
sS'flash'
p1292
I5
sS'attachEvent'
p1293
I5
sS'countdown'
p1294
I2
sS'0'
p1295
I871
sS'finally'
p1296
I1
sS'4000008230S00001X000'
p1297
I1
sS'0b91'
p1298
I1
sS'adNode'
p1299
I5
sS'Atlanta'
p1300
I2
sS'4000014530S00017X000'
p1301
I1
sS'Day'
p1302
I1
sS'4000010540S00001X000'
p1303
I1
sS'jhB'
p1304
I1
sS'4000006650S00001X000'
p1305
I1
sS'Rousey'
p1306
I7
sS'FIT'
p1307
I3
sS'controls'
p1308
I7
sS'lrm'
p1309
I12
sS'Cin'
p1310
I1
sS'KylieJen'
p1311
I1
sS'Don\xe2\x80\x99t'
p1312
I1
sS'Darryn'
p1313
I1
sS'Tech'
p1314
I2
sS'4000012440S00008X000'
p1315
I1
sS'anonymous'
p1316
I4
sS'25021298'
p1317
I1
sS'25021296'
p1318
I1
sS'3af4'
p1319
I1
sS'blast'
p1320
I1
sS'Where'
p1321
I4
sS'Jersey'
p1322
I1
sS'incitement'
p1323
I3
sS'beating'
p1324
I1
sS'after\xe2\x80\xa6'
p1325
I1
sS'Just'
p1326
I1
sS'081309'
p1327
I1
sS'refreshMod'
p1328
I1
sS'Global'
p1329
I1
sS'300x250'
p1330
I1
sS'item'
p1331
I113
sS'9dcb2a30'
p1332
I1
sS'historystate'
p1333
I1
sS'4018e9108c5f'
p1334
I1
sS'diy'
p1335
I1
sS'defaults'
p1336
I1
sS'espanol'
p1337
I1
sS'928e'
p1338
I1
sS'0279c7cbcb38'
p1339
I1
sS'div'
p1340
I918
sS'82a2'
p1341
I1
sS'ERROR'
p1342
I2
sS'round'
p1343
I4
sS'dir'
p1344
I1
sS'YExtPostInstallSummary'
p1345
I1
sS'e6f0e30b3396'
p1346
I1
sS'sayt'
p1347
I6
sS'says'
p1348
I7
sS'4000003790S00002X000'
p1349
I1
sS'core'
p1350
I15
sS'trend'
p1351
I1
sS'sucks'
p1352
I1
sS'f85c'
p1353
I1
sS'6983'
p1354
I1
sS'3810'
p1355
I1
sS'sbnation1'
p1356
I1
sS'sign'
p1357
I7
sS'f0d3'
p1358
I8
sS'c6e38871'
p1359
I10
sS'imagesOn'
p1360
I8
sS'jsErrorUrl'
p1361
I1
sS'sBdrClasses'
p1362
I2
sS'targets'
p1363
I3
sS'substitute'
p1364
I3
sS'ba4b'
p1365
I7
sS'comictag'
p1366
I7
sS'3657'
p1367
I1
sS'addr'
p1368
I2
sS'movies'
p1369
I4
sS'heres'
p1370
I2
sS'CONFIRM'
p1371
I1
sS'9337baa004c2'
p1372
I4
sS'10b3750592dd'
p1373
I7
sS'4000020000S00008X000'
p1374
I1
sS'current'
p1375
I2
sS'FoxtrotAlpha'
p1376
I1
sS'suspect'
p1377
I8
sS'd3b12630'
p1378
I5
sS'Honolulu'
p1379
I1
sS'ADEND'
p1380
I1
sS'reply'
p1381
I2
sS'9b69'
p1382
I1
sS'35a4'
p1383
I1
sS'20c4'
p1384
I1
sS'7dbe'
p1385
I1
sS'cc283f80568c'
p1386
I1
sS'animPause'
p1387
I1
sS'dropdown'
p1388
I3
sS'ad8ce445a409'
p1389
I1
sS'learn'
p1390
I1
sS'TTnlsPp5reaLw'
p1391
I1
sS'MINIASSIST'
p1392
I1
sS'bOXpDLJH2IjIBePC0j8UvQ'
p1393
I1
sS'FLAG'
p1394
I1
sS'Woman'
p1395
I2
sS'baseball'
p1396
I1
sS'306'
p1397
I1
sS'groups'
p1398
I4
sS'homerunv2'
p1399
I1
sS'tellUs'
p1400
I1
sS'My'
p1401
I6
sS'teacher'
p1402
I3
sS'toolbar'
p1403
I13
sS'topnews'
p1404
I5
sS'a0d095b3ed4c'
p1405
I1
sS'thirdday'
p1406
I2
sS'getElementsByName'
p1407
I1
sS'b2fd3266'
p1408
I1
sS'flames'
p1409
I1
sS'44d9'
p1410
I6
sS'videoPlayerMaxInstances'
p1411
I1
sS'tooltipsEnabled'
p1412
I1
sS'lakers'
p1413
I1
sS'Your'
p1414
I2
sS'bpos'
p1415
I90
sS'trial'
p1416
I1
sS'24803755'
p1417
I7
sS'textCount'
p1418
I1
sS'4e451832'
p1419
I1
sS'boo'
p1420
I2
sS'Dear'
p1421
I6
sS'rslt'
p1422
I21
sS'tablist'
p1423
I13
sS'Davuto'
p1424
I3
sS'navigation'
p1425
I3
sS'302b'
p1426
I1
sS'2Ftv'
p1427
I2
sS'231830201'
p1428
I1
sS'pause'
p1429
I1
sS'defer'
p1430
I42
sS'Justice'
p1431
I1
sS'a94f78e532a6bd170b42814128a20ac29e80726b'
p1432
I1
sS'Visit'
p1433
I3
sS'eSq3JQ'
p1434
I1
sS'Stopping'
p1435
I1
sS'tabpanel'
p1436
I9
sS'ipt'
p1437
I3
sS'1st'
p1438
I7
sS'4000021220S00008X000'
p1439
I1
sS'rosewood'
p1440
I1
sS'should'
p1441
I2
sS'prevg'
p1442
I1
sS'Sanders'
p1443
I5
sS'4c92e58c6507'
p1444
I1
sS'perf'
p1445
I3
sS'working'
p1446
I1
sS'entities'
p1447
I3
sS'appscontainer'
p1448
I14
sS'filters'
p1449
I1
sS'pref'
p1450
I2
sS'mss'
p1451
I1
sS'sports'
p1452
I59
sS'pers'
p1453
I1
sS'9fc9'
p1454
I1
sS'stylesheet'
p1455
I3
sS'handler'
p1456
I25
sS'https'
p1457
I529
sS'msg'
p1458
I21
sS'31b3'
p1459
I1
sS'31b0'
p1460
I1
sS'bill'
p1461
I4
sS'170'
p1462
I3
sS'today'
p1463
I9
sS'wicked'
p1464
I1
sS'bf7a'
p1465
I1
sS'faf1ee05569c'
p1466
I1
sS'290215f7ba'
p1467
I1
sS'd3f35d8b0384'
p1468
I1
sS'a311'
p1469
I1
sS'4928cdb6'
p1470
I1
sS'F'
p1471
I12
sS'These'
p1472
I1
sS'TIC5bwGxfX6oUsdJktwPLA'
p1473
I1
sS'srch'
p1474
I15
sS'Orlando'
p1475
I1
sS'001000069'
p1476
I10
sS'0bKEIBhmJFgA'
p1477
I1
sS'37px'
p1478
I2
sS'downing'
p1479
I1
sS'everywhere'
p1480
I1
sS'matthewherper'
p1481
I3
sS'Time'
p1482
I5
sS'sit'
p1483
I2
sS'3582163'
p1484
I2
sS'3d93'
p1485
I1
sS'fly'
p1486
I1
sS'animation'
p1487
I1
sS'gid'
p1488
I3
sS'Celebrations'
p1489
I2
sS'ylp'
p1490
I1
sS'Family'
p1491
I1
sS'Video'
p1492
I6
sS'fade'
p1493
I1
sS'4000002750S00008X000'
p1494
I1
sS'93109'
p1495
I6
sS'ult'
p1496
I2
sS'cat'
p1497
I93
sS'001000661'
p1498
I5
sS'flk'
p1499
I14
sS'd7a'
p1500
I2
sS'can'
p1501
I5
sS'iframe'
p1502
I5
sS'001000667'
p1503
I3
sS'following'
p1504
I1
sS'making'
p1505
I1
sS'aa9a279df2d5'
p1506
I1
sS'gunfire'
p1507
I2
sS'9422'
p1508
I1
sS'Out'
p1509
I1
sS'15ir45r6b'
p1510
I3
sS'Sharon'
p1511
I3
sS'emptyNavURL'
p1512
I4
sS'3ac3'
p1513
I1
sS'stream'
p1514
I39
sS'Min'
p1515
I1
sS'8a2be0bd'
p1516
I1
sS'Media'
p1517
I2
sS'wave3'
p1518
I1
sS'cookieName'
p1519
I4
sS'JFhuwPQ'
p1520
I1
sS'9f84'
p1521
I4
sS'topic'
p1522
I23
sS'drawer'
p1523
I10
sS'celsius'
p1524
I4
sS'8f92'
p1525
I1
sS'ca72627749de'
p1526
I1
sS'spo'
p1527
I54
sS'Lethal'
p1528
I1
sS'Ppg1j6i2AHvMS4yMVZMMYUAAAAA'
p1529
I2
sS'f36d89996efd'
p1530
I4
sS'323a'
p1531
I2
sS'30d9'
p1532
I1
sS'30d8'
p1533
I1
sS'Terms'
p1534
I1
sS'prod'
p1535
I1
sS'iosDefaultSearchSetFreq'
p1536
I1
sS'enableAppManagement'
p1537
I6
sS'ec9466621dd4'
p1538
I1
sS'assetcollector'
p1539
I8
sS'brand'
p1540
I2
sS'cookieDomain'
p1541
I2
sS'YXBwaWQ9eWhvbWVydW4'
p1542
I1
sS'rspns'
p1543
I191
sS'1'
p1544
I712
sS'fpt'
p1545
I1
sS'3b7d'
p1546
I1
sS'Fruit'
p1547
I5
sS'Demand'
p1548
I1
sS'Conflicts'
p1549
I2
sS'clientonly'
p1550
I1
sS'divider'
p1551
I3
sS'1497925324'
p1552
I1
sS'ylc'
p1553
I3
sS'filterFontSize'
p1554
I1
sS'142'
p1555
I2
sS'143'
p1556
I2
sS'140'
p1557
I4
sS'may'
p1558
I1
sS'max'
p1559
I1
sS'a2a8'
p1560
I1
sS'a442'
p1561
I1
sS'spot'
p1562
I6
sS'13872472'
p1563
I25
sS'jaguars'
p1564
I1
sS'question\xe2\x80\xa6'
p1565
I1
sS'slotData'
p1566
I3
sS'reverseHighlight'
p1567
I1
sS'STR'
p1568
I44
sS'date'
p1569
I7
sS'0df97bc731fd'
p1570
I5
sS'bbf9988c'
p1571
I1
sS'data'
p1572
I664
sS'View'
p1573
I5
sS'enableGroupByStatus'
p1574
I1
sS'a\xc2\xa0place'
p1575
I1
sS'80'
p1576
I1
sS'autos'
p1577
I3
sS'enableUpdateButton'
p1578
I1
sS'sp'
p1579
I12
sS'timeout'
p1580
I2
sS'st'
p1581
I3
sS'q'
p1582
I14
sS'30346010'
p1583
I1
sS'30346013'
p1584
I5
sS'3d77'
p1585
I1
sS'so'
p1586
I2
sS'30346014'
p1587
I7
sS'Neue'
p1588
I2
sS'sc'
p1589
I1
sS'sb'
p1590
I4
sS'sa'
p1591
I9
sS'38da'
p1592
I1
sS'3d78'
p1593
I1
sS'sf'
p1594
I4
sS'sd'
p1595
I2
sS'console'
p1596
I1
sS'Cha'
p1597
I1
sS'0d68'
p1598
I1
sS'serving'
p1599
I3
sS'Jax'
p1600
I1
sS'flbk'
p1601
I2
sS'tts'
p1602
I30
sS'4000013190S00008X000'
p1603
I1
sS'Breaking'
p1604
I2
sS'970d'
p1605
I1
sS'SEARCHTERMS'
p1606
I1
sS'years'
p1607
I1
sS'ended'
p1608
I1
sS'lst'
p1609
I17
sS'tablets'
p1610
I6
sS'nbsp'
p1611
I16
sS'8d6d'
p1612
I1
sS'UHZg6J9TB6sxd9Gw3GtlnA'
p1613
I1
sS'KingofJo'
p1614
I1
sS'pointer'
p1615
I3
sS'34eb'
p1616
I1
sS'Sheen'
p1617
I7
sS'RT'
p1618
I1
sS'gta'
p1619
I2
sS'closeAnimDuration'
p1620
I1
sS'HAS'
p1621
I1
sS'police'
p1622
I19
sS'thumb'
p1623
I30
sS'how'
p1624
I4
sS'ADSDISLIKETEXT'
p1625
I1
sS'interesting'
p1626
I1
sS'comic'
p1627
I16
sS'Assist'
p1628
I3
sS'TNMOD'
p1629
I2
sS'3582097'
p1630
I4
sS'Rain'
p1631
I4
sS'platform'
p1632
I29
sS'window'
p1633
I19
sS'cookieSignKey'
p1634
I1
sS'9564'
p1635
I1
sS'firstitem'
p1636
I1
sS'tweets'
p1637
I3
sS'mail'
p1638
I20
sS'x1r'
p1639
I1
sS'main'
p1640
I29
sS'decades'
p1641
I1
sS'356d8090'
p1642
I1
sS'happened'
p1643
I1
sS'nom'
p1644
I2
sS'non'
p1645
I3
sS'stdmod'
p1646
I3
sS'4000018840S00008X000'
p1647
I1
sS'finance'
p1648
I34
sS'nod'
p1649
I4
sS'4000012090S00017X000'
p1650
I1
sS'150103911'
p1651
I2
sS'removeEventListener'
p1652
I1
sS'ac8b'
p1653
I1
sS'col1'
p1654
I1
sS'b53214df4b63'
p1655
I1
sS'Right'
p1656
I1
sS'Ultimate'
p1657
I1
sS'safari'
p1658
I2
sS'3582144'
p1659
I2
sS'now'
p1660
I13
sS'4000008830S00001X000'
p1661
I1
sS'killed'
p1662
I2
sS'nor'
p1663
I2
sS'3582145'
p1664
I2
sS'beaconsDisabled'
p1665
I1
sS'videoPlayerTwoControls'
p1666
I1
sS'name'
p1667
I96
sS'170200294'
p1668
I1
sS'mcode'
p1669
I1
sS'errorDetails'
p1670
I1
sS'beach'
p1671
I9
sS'dd24e94f'
p1672
I1
sS'drop'
p1673
I4
sS'dabd'
p1674
I1
sS'3582148'
p1675
I2
sS'adsLREC'
p1676
I2
sS'focusInput'
p1677
I3
sS'3Filc'
p1678
I2
sS'tor2'
p1679
I1
sS'1827'
p1680
I1
sS'379b'
p1681
I5
sS'em'
p1682
I4
sS'gWtuegkkNQg'
p1683
I1
sS'domain'
p1684
I2
sS'en'
p1685
I26
sS'ei'
p1686
I1
sS'worker'
p1687
I2
sS'Contest'
p1688
I4
sS'ed'
p1689
I43
sS'8338'
p1690
I1
sS'f69685e63a93'
p1691
I1
sS'b14994459bf0'
p1692
I1
sS'c6e4'
p1693
I1
sS'Live'
p1694
I2
sS'DONE'
p1695
I2
sS'begun'
p1696
I1
sS'year'
p1697
I13
sS'3304'
p1698
I1
sS'ep'
p1699
I1
sS'colo'
p1700
I1
sS'0eda41033b00'
p1701
I1
sS'troll'
p1702
I1
sS'3b14'
p1703
I1
sS'2a80'
p1704
I1
sS'container'
p1705
I12
sS'factors'
p1706
I1
sS'unavailable'
p1707
I1
sS'locationPickerEnabled'
p1708
I1
sS'tablite'
p1709
I6
sS'increase'
p1710
I4
sS'96eb00a7'
p1711
I1
sS'974\xe2\x80\xa6'
p1712
I1
sS'DQf1Lyapgf6alcd2v8GHZQ'
p1713
I1
sS'Joe'
p1714
I2
sS'videoPlayerJs'
p1715
I1
sS'searchTracking'
p1716
I1
sS'staticflickr'
p1717
I10
sS'createElement'
p1718
I1
sS'bkn'
p1719
I1
sS'901d'
p1720
I1
sS'e537'
p1721
I1
sS'4000006000S00001X000'
p1722
I1
sS'crossfade'
p1723
I1
sS'RAIL'
p1724
I1
sS'4000003080S00002X000'
p1725
I1
sS'million'
p1726
I1
sS'4000011550S00008X000'
p1727
I1
sS'39f7'
p1728
I1
sS'orl'
p1729
I2
sS'e97f52826bf9'
p1730
I1
sS'67cee8dd4c2d'
p1731
I1
sS'org'
p1732
I14
sS'ord'
p1733
I2
sS'b9a89048982a'
p1734
I1
sS'62364990'
p1735
I1
sS'pageloadListId'
p1736
I1
sS'1213'
p1737
I1
sS'a1ae'
p1738
I1
sS'Videos'
p1739
I2
sS'App'
p1740
I2
sS'Tournament'
p1741
I4
sS'swipeFilterEnabled'
p1742
I1
sS'nofollow'
p1743
I13
sS'Sign'
p1744
I11
sS'yui'
p1745
I125
sS'25021335'
p1746
I1
sS'altjoezee40x40'
p1747
I1
sS'separator'
p1748
I8
sS'40x40'
p1749
I2
sS'3da1'
p1750
I1
sS'Yields'
p1751
I1
sS'promotion'
p1752
I2
sS'ad71'
p1753
I1
sS'b450'
p1754
I7
sS'1000'
p1755
I2
sS'origin'
p1756
I1
sS'ZFmLNQLxKLbB'
p1757
I1
sS'3fc8'
p1758
I4
sS'err'
p1759
I4
sS'xl'
p1760
I17
sS'4000002330S00002X000'
p1761
I1
sS'Aguirre'
p1762
I1
sS'autosuggest'
p1763
I3
sS'There'
p1764
I1
sS'Royal'
p1765
I3
sS'Asia'
p1766
I2
sS'xe'
p1767
I3
sS'price'
p1768
I1
sS'95MS'
p1769
I1
sS'Black'
p1770
I11
sS'long'
p1771
I4
sS'4349'
p1772
I1
sS'153025796'
p1773
I2
sS'xs'
p1774
I131
sS'1K'
p1775
I2
sS'Flickr'
p1776
I4
sS'open'
p1777
I1
sS'tomorrow'
p1778
I2
sS'387f'
p1779
I1
sS'size'
p1780
I7
sS'city'
p1781
I2
sS'little'
p1782
I1
sS'necessarily'
p1783
I1
sS'2886'
p1784
I1
sS'FINANCE'
p1785
I1
sS'option4'
p1786
I4
sS'width'
p1787
I65
sS'shortTitle'
p1788
I41
sS'response'
p1789
I2
sS'31ce'
p1790
I1
sS'FBJSC'
p1791
I1
sS'returns'
p1792
I2
sS'2'
p1793
I136
sS'params'
p1794
I1
sS'Turkeyfa'
p1795
I1
sS'carousel'
p1796
I12
sS'3D500'
p1797
I1
sS'Date'
p1798
I2
sS'4000005140S00002X000'
p1799
I1
sS'white'
p1800
I2
sS'001000075'
p1801
I3
sS'User'
p1802
I2
sS'829a'
p1803
I1
sS'GUmKRZJufcQ'
p1804
I1
sS'searchBackToTopEnabled'
p1805
I1
sS'yql'
p1806
I13
sS'cookieErrorHtml'
p1807
I1
sS'season'
p1808
I4
sS'94ef'
p1809
I1
sS'Kitesurfing'
p1810
I1
sS'4000007480S00001X000'
p1811
I1
sS'broadcast'
p1812
I1
sS'released'
p1813
I2
sS'4000021200S00008X000'
p1814
I1
sS'textindent'
p1815
I2
sS'disassociation'
p1816
I1
sS'x2'
p1817
I1
sS'x3'
p1818
I6
sS'30345871'
p1819
I7
sS'holder'
p1820
I11
sS'than'
p1821
I4
sS'png'
p1822
I58
sS'titans'
p1823
I1
sS'11'
p1824
I29
sS'10'
p1825
I35
sS'13'
p1826
I22
sS'12'
p1827
I9
sS'15'
p1828
I15
sS'14'
p1829
I9
sS'17'
p1830
I19
sS'16'
p1831
I16
sS'19'
p1832
I22
sS'18'
p1833
I20
sS'LIST'
p1834
I2
sS'typography'
p1835
I3
sS'Grande'
p1836
I1
sS'war'
p1837
I5
sS'r'
p1838
I159
sS'bec2cb71'
p1839
I1
sS'were'
p1840
I1
sS'Advertise'
p1841
I1
sS'outcome'
p1842
I61
sS'v12'
p1843
I1
sS'russia'
p1844
I1
sS'browser'
p1845
I3
sS'comboBase'
p1846
I2
sS'sam'
p1847
I2
sS'86e8'
p1848
I1
sS'879c'
p1849
I1
sS'topics'
p1850
I1
sS'3ca0'
p1851
I1
sS'202322761'
p1852
I1
sS'ani'
p1853
I1
sS'28cdb821'
p1854
I1
sS'PhD'
p1855
I1
sS'4000002100S00008X000'
p1856
I1
sS'Winnipeg'
p1857
I1
sS'Call'
p1858
I2
sS'classnamemanager'
p1859
I3
sS'Tell'
p1860
I4
sS'Mail'
p1861
I6
sS'Valley'
p1862
I2
sS'any'
p1863
I1
sS'REND'
p1864
I1
sS'4000015590S00008X000'
p1865
I1
sS'r3M'
p1866
I1
sS'8cf3'
p1867
I6
sS'rcnt'
p1868
I2
sS'd4ee'
p1869
I6
sS'homerun'
p1870
I7
sS'fef8eddb'
p1871
I1
sS'warriors'
p1872
I2
sS'c72'
p1873
I8
sS'somethingq'
p1874
I1
sS'081aa9bc'
p1875
I5
sS'SALEM'
p1876
I1
sS'Olsen'
p1877
I2
sS'repeatedly'
p1878
I1
sS'online'
p1879
I2
sS'performance'
p1880
I12
sS'personalized'
p1881
I1
sS'63794'
p1882
I8
sS'btns'
p1883
I5
sS'surf'
p1884
I1
sS'200'
p1885
I1
sS'begin'
p1886
I1
sS'sure'
p1887
I1
sS'normal'
p1888
I7
sS'track'
p1889
I4
sS'HrpBw'
p1890
I1
sS'universalheader'
p1891
I14
sS'Fewer'
p1892
I1
sS'renderFile'
p1893
I1
sS'barrage'
p1894
I1
sS'4000002530A100S00004X000'
p1895
I1
sS'Egypt'
p1896
I1
sS'sheets'
p1897
I5
sS'net'
p1898
I1
sS'photo\xe2\x80\xa6'
p1899
I1
sS'tabNavigationMode'
p1900
I3
sS'GOP'
p1901
I5
sS'cc'
p1902
I1
sS'icon'
p1903
I144
sS'4000021030S00008X000'
p1904
I1
sS'140602'
p1905
I1
sS'BurstingPipe'
p1906
I2
sS'signOutTooltipEnabled'
p1907
I1
sS'Armed'
p1908
I6
sS'removed'
p1909
I2
sS'shooter'
p1910
I1
sS'4000006140S00001X000'
p1911
I1
sS'SpaceID'
p1912
I8
sS'raquo'
p1913
I2
sS'a140'
p1914
I1
sS'1G3Y0w'
p1915
I1
sS'subsequent'
p1916
I1
sS'9cd3'
p1917
I1
sS'redirected'
p1918
I1
sS'ontouchstart'
p1919
I1
sS'3fef'
p1920
I1
sS'ShockwaveFlash'
p1921
I2
sS'Web'
p1922
I2
sS'Trending'
p1923
I3
sS'ghostrider'
p1924
I1
sS'show'
p1925
I9
sS'06e0b3bfb239'
p1926
I1
sS'3495'
p1927
I1
sS'Subfooter'
p1928
I2
sS'datetime'
p1929
I4
sS'9402'
p1930
I1
sS'Reuters'
p1931
I2
sS'ec79'
p1932
I1
sS'builds'
p1933
I2
sS'35a3'
p1934
I6
sS'u00d8'
p1935
I1
sS'label'
p1936
I47
sS'a5b9'
p1937
I1
sS'u00d9'
p1938
I1
sS'0775'
p1939
I1
sS'We'
p1940
I7
sS'upgrade'
p1941
I2
sS'title'
p1942
I210
sS'iOUSRCHhMOvJgaApOZ4T4g'
p1943
I1
sS'3953'
p1944
I1
sS'behind'
p1945
I1
sS'going'
p1946
I1
sS'black'
p1947
I1
sS'animPlay'
p1948
I1
sS'28basketball'
p1949
I2
sS'u00d6'
p1950
I1
sS'4000005930S00001X000'
p1951
I1
sS'Load'
p1952
I3
sS'k2E2ERate'
p1953
I1
sS'fixedMastheadEnabled'
p1954
I1
sS'get'
p1955
I5
sS'H'
p1956
I3
sS'fcd48efe1b57'
p1957
I1
sS'original'
p1958
I2
sS'fc'
p1959
I3
sS'mission'
p1960
I1
sS'8e09'
p1961
I1
sS'fdb'
p1962
I21
sS'Products'
p1963
I1
sS'dffrontpagecontest'
p1964
I6
sS'34c7'
p1965
I1
sS'modChromeHtml'
p1966
I1
sS'224432252'
p1967
I1
sS'geo'
p1968
I3
sS'sans'
p1969
I2
sS'e04eceda'
p1970
I1
sS'BnrhYiRHTxciyT76gBrQExN4ix8IOtbLjcep2r5yKZmdl'
p1971
I1
sS'c907a7f2228f'
p1972
I1
sS'sbox'
p1973
I15
sS'scrollBuffer'
p1974
I1
sS'command'
p1975
I2
sS'4406'
p1976
I2
sS'helpcentral'
p1977
I1
sS'aa50'
p1978
I1
sS'summary'
p1979
I21
sS'3b6a'
p1980
I1
sS'network'
p1981
I6
sS'b754'
p1982
I1
sS'3b6d'
p1983
I1
sS'da4f66a2'
p1984
I1
sS'srpAssetURL'
p1985
I1
sS'cb0b37cb'
p1986
I1
sS'where'
p1987
I4
sS'Twitter'
p1988
I2
sS'bf29'
p1989
I1
sS'reveals'
p1990
I1
sS'declared'
p1991
I57
sS'3582045'
p1992
I2
sS'pane'
p1993
I2
sS'autoc'
p1994
I1
sS'rmx'
p1995
I3
sS'Fleece'
p1996
I5
sS'up'
p1997
I13
sS'3276'
p1998
I1
sS'Biggest'
p1999
I1
sS'b202'
p2000
I1
sS'spaceID'
p2001
I1
sS'3270'
p2002
I1
sS'4000026130S00008X000'
p2003
I2
sS'13923486'
p2004
I7
sS'fdn'
p2005
I1
sS'050256928'
p2006
I1
sS'u00d1'
p2007
I1
sS'Shopping'
p2008
I2
sS'parent'
p2009
I27
sS'That'
p2010
I1
sS'adPromoNodeHack'
p2011
I1
sS'Decades'
p2012
I1
sS'4fd0'
p2013
I2
sS'ed13'
p2014
I1
sS'sites'
p2015
I2
sS'4000001240A100S00004X000'
p2016
I1
sS'forecast'
p2017
I7
sS'weapons'
p2018
I1
sS'3'
p2019
I314
sS'between'
p2020
I2
sS'is3rd'
p2021
I3
sS'f879bf36'
p2022
I1
sS'priming'
p2023
I1
sS'across'
p2024
I1
sS'affordable'
p2025
I4
sS'9a3c'
p2026
I1
sS'notice'
p2027
I1
sS'SAVEDCTA'
p2028
I1
sS'4000008560S00002X000'
p2029
I1
sS'vertical'
p2030
I3
sS'032716145'
p2031
I1
sS'screen'
p2032
I16
sS'OnloadCache'
p2033
I2
sS'26'
p2034
I7
sS'js'
p2035
I270
sS'7229be5cfcac'
p2036
I1
sS'jets'
p2037
I1
sS'tuc'
p2038
I10
sS'1987'
p2039
I1
sS'undermine'
p2040
I1
sS'overlayEnabled'
p2041
I1
sS'INTERESTS'
p2042
I5
sS'053552685'
p2043
I1
sS'8e0e'
p2044
I1
sS'missions'
p2045
I1
sS'1f532252'
p2046
I1
sS'21em'
p2047
I1
sS'b515'
p2048
I1
sS'region'
p2049
I1
sS'according'
p2050
I1
sS'Inverted'
p2051
I1
sS'colour3'
p2052
I1
sS'568d8e41'
p2053
I1
sS'347c'
p2054
I1
sS'786'
p2055
I1
sS'comet'
p2056
I8
sS'Zxw6DWkiE1Pg'
p2057
I1
sS'expression'
p2058
I1
sS'888c'
p2059
I1
sS'bucketSA'
p2060
I1
sS'8251'
p2061
I1
sS'ywaTrackingEnabled'
p2062
I1
sS'color'
p2063
I3
sS'Divorce'
p2064
I7
sS'Travel'
p2065
I2
sS'2a58'
p2066
I1
sS'pos'
p2067
I187
sS'dispatch'
p2068
I1
sS'Ki6CQ'
p2069
I1
sS'60'
p2070
I1
sS'61'
p2071
I2
sS'slain'
p2072
I1
sS'interestsData'
p2073
I1
sS'setprt'
p2074
I1
sS'65'
p2075
I2
sS'tagName'
p2076
I4
sS'67'
p2077
I2
sS'parseInt'
p2078
I1
sS'69'
p2079
I1
sS'fptoday'
p2080
I21
sS'31f1'
p2081
I1
sS'Surf'
p2082
I1
sS'Buy'
p2083
I7
sS'4000018320S00008X000'
p2084
I1
sS'Beauty'
p2085
I2
sS'145c'
p2086
I1
sS'stretch'
p2087
I2
sS'west'
p2088
I1
sS'Flash'
p2089
I1
sS'airliner'
p2090
I1
sS'vacation'
p2091
I2
sS'mark'
p2092
I1
sS'nresults'
p2093
I1
sS'Luckily'
p2094
I1
sS'25021324'
p2095
I1
sS'9ece2bfc613e'
p2096
I1
sS'atusr'
p2097
I1
sS'509'
p2098
I1
sS'setimp'
p2099
I1
sS'12514424925'
p2100
I2
sS'502'
p2101
I1
sS'500'
p2102
I6
sS'adfb'
p2103
I1
sS'streamClickReordingEnabled'
p2104
I1
sS'5eb8d6c41fda336c058586ce63e9f775'
p2105
I1
sS'enable'
p2106
I3
sS'shopping'
p2107
I3
sS'50K'
p2108
I2
sS'Shadowbound'
p2109
I2
sS'Terror'
p2110
I2
sS'Sucks'
p2111
I1
sS'1402544433026922'
p2112
I3
sS'8060'
p2113
I1
sS'9103'
p2114
I8
sS'photos'
p2115
I14
sS'3845'
p2116
I1
sS'observe'
p2117
I2
sS'isLoggedOutPage'
p2118
I1
sS'DearAbby'
p2119
I1
sS'Learn'
p2120
I2
sS'suspected'
p2121
I2
sS'014801164'
p2122
I1
sS'4000011980S00017X000'
p2123
I2
sS'crumb'
p2124
I3
sS'hdr'
p2125
I4
sS'4000003000S00008X000'
p2126
I1
sS'Dilbert'
p2127
I1
sS'UFC'
p2128
I1
sS'Suggestions'
p2129
I2
sS'className'
p2130
I10
sS'BusinessInsider'
p2131
I3
sS'batchPause'
p2132
I1
sS'8f0ce005e987'
p2133
I1
sS'actionDrawerEnabled'
p2134
I1
sS'cancelled'
p2135
I2
sS'Open'
p2136
I2
sS'b9bf'
p2137
I1
sS'slippers'
p2138
I5
sS'Basketball'
p2139
I9
sS'4000002500S00002X000'
p2140
I1
sS'ctrl'
p2141
I11
sS'589dea3d'
p2142
I1
sS'utils'
p2143
I3
sS'ff1cf5a59c0d'
p2144
I1
sS'e2dd0421d7b3'
p2145
I1
sS'63bcadef'
p2146
I1
sS'8d8120065102'
p2147
I1
sS'parse'
p2148
I6
sS'391f'
p2149
I1
sS'160000456'
p2150
I1
sS'30345868'
p2151
I7
sS'timezone'
p2152
I1
sS'ym'
p2153
I4
sS'3cd5'
p2154
I1
sS'LOGIN'
p2155
I1
sS'7a65'
p2156
I1
sS'Profile'
p2157
I1
sS'different'
p2158
I2
sS'missiles'
p2159
I2
sS'cc8'
p2160
I2
sS'media'
p2161
I58
sS'checkFocus'
p2162
I3
sS'attribute'
p2163
I18
sS'43130c3a'
p2164
I4
sS'992e'
p2165
I3
sS'configurable'
p2166
I2
sS'5d3c6231'
p2167
I1
sS'html'
p2168
I97
sS'38c0'
p2169
I4
sS'arguments'
p2170
I6
sS'When'
p2171
I1
sS'lite'
p2172
I3
sS'document'
p2173
I14
sS'3f7f'
p2174
I1
sS'breakingnews'
p2175
I4
sS'3f7d'
p2176
I3
sS'status'
p2177
I2
sS'UTC'
p2178
I1
sS'001000288'
p2179
I2
sS'wssidToken'
p2180
I1
sS'UTF'
p2181
I1
sS'1447771367'
p2182
I1
sS'io'
p2183
I8
sS'I'
p2184
I18
sS'IS'
p2185
I3
sS'bcnAutoOpen'
p2186
I2
sS'u00d3'
p2187
I1
sS'II'
p2188
I4
sS'allowFiF'
p2189
I1
sS'relevantads'
p2190
I4
sS'horizontalPadding'
p2191
I1
sS'386c'
p2192
I1
sS'1d7c55e0fafb'
p2193
I1
sS'wpg'
p2194
I2
sS'cr'
p2195
I3
sS'39b8'
p2196
I1
sS'NBATV'
p2197
I1
sS'Jindal'
p2198
I2
sS'supports'
p2199
I4
sS'673168'
p2200
I1
sS'38cc'
p2201
I1
sS'3f72'
p2202
I1
sS'Is'
p2203
I3
sS'replace'
p2204
I1
sS'It'
p2205
I10
sS'acfe'
p2206
I1
sS'c48450f4'
p2207
I1
sS'dffrontpage'
p2208
I7
sS'In'
p2209
I3
sS'rdcab5'
p2210
I10
sS'32ad3126'
p2211
I1
sS'frontpage'
p2212
I1
sS'7241469'
p2213
I2
sS'charged'
p2214
I2
sS'HBO'
p2215
I6
sS'Loading'
p2216
I2
sS'Richland'
p2217
I1
sS'cbe044fa'
p2218
I1
sS'resp'
p2219
I53
sS'115457531'
p2220
I4
sS'52d35723a650'
p2221
I1
sS'7f08855836ec'
p2222
I3
sS'u00dd'
p2223
I1
sS'livevent'
p2224
I10
sS'cambodia'
p2225
I1
sS'tools'
p2226
I4
sS'fntsyfb'
p2227
I1
sS'touch'
p2228
I1
sS'personals'
p2229
I1
sS'comboRoot'
p2230
I1
sS'Markets'
p2231
I1
sS'7f16'
p2232
I1
sS'a460'
p2233
I1
sS'comscore'
p2234
I3
sS'womans'
p2235
I1
sS'newWebGossipUrlEnable'
p2236
I1
sS'Barbie'
p2237
I5
sS'eea8'
p2238
I1
sS'subfooter'
p2239
I8
sS'desktop'
p2240
I16
sS'blog'
p2241
I1
sS'f8e03640711a'
p2242
I1
sS'4000002600S00002X000'
p2243
I1
sS'Getty'
p2244
I1
sS'4'
p2245
I68
sS'Although'
p2246
I1
sS'Scores'
p2247
I1
sS'sda2'
p2248
I1
sS'struck'
p2249
I1
sS'u00dc'
p2250
I1
sS'4000006900S00001X000'
p2251
I1
sS'useBrowserConsole'
p2252
I1
sS'careers'
p2253
I2
sS'c20bcc4a14bb'
p2254
I1
sS'Control'
p2255
I1
sS'30345786'
p2256
I7
sS'hover'
p2257
I5
sS'SECONDLABEL'
p2258
I1
sS'ultSpaceId'
p2259
I1
sS'35b1'
p2260
I1
sS'foxtrotalpha'
p2261
I2
sS'Starts'
p2262
I1
sS'Patagonia'
p2263
I5
sS'30345789'
p2264
I7
sS'dde2'
p2265
I3
sS'a714d5a0'
p2266
I1
sS'dark'
p2267
I1
sS'Tag'
p2268
I2
sS'simmons'
p2269
I4
sS'grid'
p2270
I1
sS'preference'
p2271
I1
sS'mom'
p2272
I3
sS'holly'
p2273
I1
sS'ENTITY'
p2274
I3
sS'world'
p2275
I5
sS'execution'
p2276
I1
sS'759a'
p2277
I1
sS'adprop'
p2278
I11
sS'mod'
p2279
I49
sS'Operations'
p2280
I1
sS'ns'
p2281
I43
sS'58eb668c'
p2282
I1
sS'pounds'
p2283
I1
sS'nt'
p2284
I1
sS'Selfie'
p2285
I1
sS'plane'
p2286
I2
sS'62'
p2287
I1
sS'oddly'
p2288
I1
sS'facing'
p2289
I1
sS'lockOrdering'
p2290
I1
sS'cometdUrl'
p2291
I1
sS'Something'
p2292
I2
sS'SUGGESTION'
p2293
I2
sS'appid'
p2294
I2
sS'64'
p2295
I2
sS'210204220'
p2296
I1
sS'9426'
p2297
I1
sS'98e3'
p2298
I4
sS'ef0b'
p2299
I1
sS'37ffef33'
p2300
I1
sS'46ec76832a7f'
p2301
I1
sS'3282'
p2302
I1
sS'Entertainment'
p2303
I2
sS'dilbert'
p2304
I5
sS'paramQuery'
p2305
I1
sS'67f3c986d420'
p2306
I1
sS'signedout'
p2307
I1
sS'\xe2\x80\x98Sam'
p2308
I1
sS'we'
p2309
I3
sS'glbl'
p2310
I6
sS'VFhJfb3h5u3zOmOd57w1YA'
p2311
I1
sS'images'
p2312
I72
sS'New'
p2313
I10
sS'f30c357a'
p2314
I1
sS'navlist'
p2315
I1
sS'c1H44vVsaH'
p2316
I1
sS'RSTART'
p2317
I1
sS'relished'
p2318
I1
sS'131b'
p2319
I1
sS'dedbfeef'
p2320
I1
sS'confirm'
p2321
I1
sS'NOENTITIESLIKE'
p2322
I1
sS'89c74f00'
p2323
I1
sS'Answers'
p2324
I2
sS'cv'
p2325
I1
sS'Southeast'
p2326
I1
sS'Surveys'
p2327
I2
sS'81f7'
p2328
I1
sS'smush'
p2329
I11
sS'stopped'
p2330
I1
sS'dda'
p2331
I7
sS'ac8'
p2332
I3
sS'Marilyn'
p2333
I1
sS'nuggets'
p2334
I1
sS'turkey'
p2335
I7
sS'tdh'
p2336
I5
sS'wJaQidje7hg'
p2337
I1
sS'Francemo'
p2338
I1
sS'yqlhost'
p2339
I1
sS'Comics'
p2340
I1
sS'dali'
p2341
I51
sS'Dynamic'
p2342
I2
sS'DISABLED'
p2343
I2
sS'15014391'
p2344
I7
sS'a750ac6f'
p2345
I2
sS'6bced71cfd07'
p2346
I1
sS'f66a5ec1'
p2347
I1
sS'fe12a72034c9'
p2348
I1
sS'serveTime'
p2349
I4
sS'b81819d1'
p2350
I1
sS'b73a'
p2351
I1
sS'9845'
p2352
I1
sS'src'
p2353
I89
sS'ol'
p2354
I8
sS'cb14f13a'
p2355
I1
sS'srst'
p2356
I1
sS'package'
p2357
I20
sS'pelicans'
p2358
I1
sS'3582130'
p2359
I2
sS'savedSign'
p2360
I1
sS'oc'
p2361
I1
sS'toUpperCase'
p2362
I1
sS'side'
p2363
I62
sS'a465'
p2364
I1
sS'srp'
p2365
I1
sS'4000002150S00002X000'
p2366
I1
sS'srv'
p2367
I3
sS'getElementsByClassName'
p2368
I2
sS'ov'
p2369
I52
sS'os'
p2370
I57
sS'op'
p2371
I4
sS'a80e'
p2372
I1
sS'Upgrade'
p2373
I1
sS'Ads'
p2374
I1
sS'No'
p2375
I3
sS'beacons'
p2376
I1
sS'redirwoei'
p2377
I1
sS'image'
p2378
I111
sS'Wetzel'
p2379
I2
sS'officially'
p2380
I2
sS'bb0f'
p2381
I1
sS'zenfs'
p2382
I15
sS'restoreStateMethod'
p2383
I1
sS'3363'
p2384
I1
sS'your'
p2385
I21
sS'loc'
p2386
I12
sS'NJ'
p2387
I1
sS'161351407'
p2388
I1
sS'Wed'
p2389
I1
sS'her'
p2390
I3
sS'NO'
p2391
I2
sS'4000006060S00001X000'
p2392
I1
sS'61cc'
p2393
I1
sS'lon'
p2394
I1
sS'NE'
p2395
I2
sS'sampling'
p2396
I2
sS'start'
p2397
I3
sS'searchAssistArrowEnabled'
p2398
I1
sS'4000017570S00017X000'
p2399
I1
sS'stars'
p2400
I1
sS'ipv6'
p2401
I1
sS'38de'
p2402
I1
sS'dmaWoeid'
p2403
I1
sS'valley'
p2404
I1
sS'iosTabletCrumb'
p2405
I1
sS'Obama'
p2406
I5
sS'jones'
p2407
I1
sS'4000005900S00001X000'
p2408
I1
sS'closeBtn'
p2409
I1
sS'Remember'
p2410
I1
sS'mourns'
p2411
I2
sS'enough'
p2412
I1
sS'Airport'
p2413
I2
sS'bacteria'
p2414
I3
sS'Experience'
p2415
I1
sS'001000012'
p2416
I3
sS'change'
p2417
I4
sS'0cdf'
p2418
I2
sS'UNDO'
p2419
I1
sS'3077'
p2420
I1
sS'Small'
p2421
I1
sS'yhoo'
p2422
I2
sS'detailUrl'
p2423
I42
sS'f0c6'
p2424
I4
sS'1027'
p2425
I1
sS'12f04bb340c2'
p2426
I1
sS'rotation'
p2427
I1
sS'fd58503f'
p2428
I1
sS'comics'
p2429
I20
sS'4000006570S00001X000'
p2430
I1
sS'cacheUse'
p2431
I1
sS'Sciences'
p2432
I1
sS'25ec8802c4ba'
p2433
I1
sS'Teenchar'
p2434
I1
sS'Society'
p2435
I4
sS'message'
p2436
I1
sS'ymail'
p2437
I1
sS'3582084'
p2438
I2
sS'Close'
p2439
I11
sS'embed'
p2440
I5
sS'Hebdo'
p2441
I2
sS'Retweet'
p2442
I2
sS'Special'
p2443
I1
sS'\xe2\x80\x98undetectable'
p2444
I1
sS'detailed'
p2445
I2
sS'username'
p2446
I2
sS'ac'
p2447
I1
sS'interval'
p2448
I3
sS'moveStart'
p2449
I1
sS'ad'
p2450
I34
sS'videos'
p2451
I8
sS'Space'
p2452
I1
sS'767ed674'
p2453
I1
sS'am'
p2454
I2
sS'sales'
p2455
I2
sS'an'
p2456
I3
sS'aq'
p2457
I1
sS'ap'
p2458
I13
sS'3690376004'
p2459
I2
sS'Hou'
p2460
I1
sS'Chickweed'
p2461
I1
sS'89fc'
p2462
I1
sS'politics'
p2463
I7
sS'7NDTtLJnKDDC9w'
p2464
I1
sS'syrian'
p2465
I1
sS'hpset'
p2466
I2
sS'635'
p2467
I6
sS'again'
p2468
I3
sS'hdln2'
p2469
I4
sS'4000005480S00002X000'
p2470
I1
sS'0a1a1016a100'
p2471
I1
sS'storage'
p2472
I6
sS'NBARapidReplay'
p2473
I1
sS'watchnow'
p2474
I1
sS'628AF397'
p2475
I1
sS'5'
p2476
I28
sS'Syrian'
p2477
I2
sS'addEventListener'
p2478
I5
sS'25021267'
p2479
I1
sS'you'
p2480
I27
sS'4000026590S00008X000'
p2481
I2
sS'25021262'
p2482
I1
sS'Rear'
p2483
I1
sS'Foxtrot'
p2484
I1
sS'opacity'
p2485
I2
sS'Stream'
p2486
I2
sS'223472dc7e4c'
p2487
I1
sS'PVID'
p2488
I1
sS'4000008270S00001X000'
p2489
I1
sS'offensive'
p2490
I2
sS'b102'
p2491
I1
sS'450'
p2492
I1
sS'89f4'
p2493
I1
sS'gifts'
p2494
I6
sS'a3'
p2495
I79
sS'a2'
p2496
I3
sS'8926a19910be'
p2497
I1
sS'a4'
p2498
I125
sS'489'
p2499
I1
sS'of\xe2\x80\xa6'
p2500
I1
sS'4000006510S00001X000'
p2501
I1
sS'assetcbottom'
p2502
I1
sS'legal'
p2503
I1
sS'31e2'
p2504
I3
sS'6em'
p2505
I1
sS'hsBczS9s5Sqg6iuckrAtAQ'
p2506
I1
sS'assets'
p2507
I1
sS'96d4'
p2508
I1
sS'bd20'
p2509
I1
sS'requires'
p2510
I28
sS'2fAIDS'
p2511
I2
sS'124215191'
p2512
I2
sS'3Fp'
p2513
I1
sS'mast'
p2514
I20
sS'u'
p2515
I194
sS'b84a'
p2516
I1
sS'68ca9316fba2'
p2517
I1
sS'foreclosed'
p2518
I3
sS'detachEvent'
p2519
I1
sS'Horgan'
p2520
I3
sS'sortBy'
p2521
I1
sS'all'
p2522
I16
sS'since'
p2523
I1
sS'Van'
p2524
I1
sS'Winter'
p2525
I5
sS'clipId'
p2526
I5
sS'9e88'
p2527
I1
sS'603525e905ab'
p2528
I1
sS'dollar'
p2529
I1
sS'124'
p2530
I2
sS'month'
p2531
I1
sS'YUI'
p2532
I13
sS'Capetta'
p2533
I1
sS'code'
p2534
I5
sS'DXImageTransform'
p2535
I1
sS'213846bde89d'
p2536
I1
sS'pty'
p2537
I6
sS'c2'
p2538
I2
sS'talks'
p2539
I1
sS'alt'
p2540
I66
sS'd611cef96994'
p2541
I1
sS'revealed'
p2542
I3
sS'adsLREC2'
p2543
I4
sS'tpcGifUrl'
p2544
I1
sS'synthetic'
p2545
I3
sS'strangers'
p2546
I1
sS'apartment'
p2547
I2
sS'8d51'
p2548
I1
sS'icons'
p2549
I4
sS'tv'
p2550
I6
sS'Cat\xe2\x80\x99'
p2551
I1
sS'tr'
p2552
I1
sS'ts'
p2553
I42
sS'tn'
p2554
I42
sS'3fea'
p2555
I1
sS'tl'
p2556
I6
sS'9867'
p2557
I1
sS'TAB'
p2558
I1
sS'ti'
p2559
I16
sS'tf'
p2560
I2
sS'001000714'
p2561
I3
sS'td'
p2562
I6
sS'4000015970S00008X000'
p2563
I1
sS'homepage'
p2564
I8
sS'TheRapto'
p2565
I1
sS'norm'
p2566
I2
sS'ta'
p2567
I61
sS'sdaRequestUrl'
p2568
I1
sS'a003'
p2569
I1
sS'woman'
p2570
I1
sS'attribution'
p2571
I22
sS'b0503e4f'
p2572
I1
sS'1324f2b3'
p2573
I1
sS'very'
p2574
I1
sS'S9Lw9rSfZWwHo8Y82FJwUA'
p2575
I1
sS'fav'
p2576
I2
sS'jsenabled'
p2577
I2
sS'keydown'
p2578
I1
sS'2b52e4ee54d6'
p2579
I4
sS'Report'
p2580
I1
sS'3e90'
p2581
I4
sS'fan'
p2582
I3
sS'newWidth'
p2583
I4
sS'got'
p2584
I1
sS'DJI'
p2585
I1
sS'fac'
p2586
I1
sS'48c3'
p2587
I1
sS'ticker'
p2588
I5
sS'disconnected'
p2589
I1
sS'tweeticon'
p2590
I1
sS'385e'
p2591
I6
sS'385b'
p2592
I1
sS'alma'
p2593
I1
sS'4000004730S00002X000'
p2594
I1
sS't6'
p2595
I1
sS'993b'
p2596
I5
sS'celebrity'
p2597
I2
sS't5'
p2598
I1
sS't2'
p2599
I208
sS't3'
p2600
I229
sS't1'
p2601
I209
sS'large'
p2602
I11
sS'0a4e07dc'
p2603
I1
sS'locationGhostText'
p2604
I1
sS'small'
p2605
I11
sS'001000705'
p2606
I5
sS'enableAppReordering'
p2607
I1
sS'defLoc'
p2608
I1
sS'origWidth'
p2609
I3
sS'900'
p2610
I1
sS'a2f8'
p2611
I2
sS'Saint'
p2612
I4
sS'ten'
p2613
I3
sS'142153204'
p2614
I1
sS'bb84'
p2615
I1
sS'DZhuasA'
p2616
I62
sS'assailants'
p2617
I2
sS'Denver'
p2618
I1
sS'192'
p2619
I2
sS'past'
p2620
I2
sS'Only'
p2621
I1
sS'intlLoc'
p2622
I1
sS'lawyer'
p2623
I1
sS'plugins'
p2624
I1
sS'3582105'
p2625
I2
sS'nba'
p2626
I24
sS'gm'
p2627
I2
sS'3674'
p2628
I1
sS'what'
p2629
I8
sS'Korea'
p2630
I14
sS'sub'
p2631
I14
sS'clock'
p2632
I1
sS'4000006500S00002X000'
p2633
I1
sS'section'
p2634
I3
sS'requestUrlLite'
p2635
I1
sS'9baf049d'
p2636
I1
sS'b7d1'
p2637
I1
sS'public'
p2638
I2
sS'30345661'
p2639
I4
sS'version'
p2640
I3
sS'3a19'
p2641
I1
sS'8f7d'
p2642
I1
sS'3d45'
p2643
I1
sS'hpCode'
p2644
I1
sS'4000018600S00008X000'
p2645
I1
sS'option2'
p2646
I4
sS'method'
p2647
I2
sS'3a11'
p2648
I5
sS'option1'
p2649
I4
sS'Yr9gmDFwLFNbSWPHWd6VsA'
p2650
I1
sS'minQueryLength'
p2651
I1
sS'friday'
p2652
I1
sS'Braves'
p2653
I2
sS'isApp'
p2654
I1
sS'Charlie'
p2655
I9
sS'31b4'
p2656
I1
sS'NFL'
p2657
I4
sS'ultBeaconHost'
p2658
I1
sS'answers'
p2659
I2
sS'999'
p2660
I1
sS'beacon'
p2661
I20
sS'2efb28f9be4b'
p2662
I1
sS'autoClose'
p2663
I1
sS'35cf'
p2664
I1
sS'removalMenuEnabled'
p2665
I1
sS'a3c1'
p2666
I1
sS'EMBED'
p2667
I1
sS'strong'
p2668
I2
sS'legend'
p2669
I3
sS'uzln9kcIORimZxsXnkFEpg'
p2670
I1
sS'search'
p2671
I120
sS'901'
p2672
I60
sS'videoPlayerPipEnable'
p2673
I1
sS'5b10'
p2674
I1
sS'ad8d'
p2675
I1
sS'322d209bf2e1'
p2676
I1
sS'margin'
p2677
I3
sS'3a1c'
p2678
I3
sS'YAHOO'
p2679
I1
sS'experience'
p2680
I4
sS'Q5c7KxTa'
p2681
I1
sS'INTLS'
p2682
I1
sS'getElementById'
p2683
I1
sS'advertising'
p2684
I1
sS'social'
p2685
I3
sS'action'
p2686
I97
sS'5128340d'
p2687
I1
sS'81e4'
p2688
I1
sS'336c'
p2689
I1
sS'5b2ad2dcb422'
p2690
I7
sS'pkgId'
p2691
I5
sS'rapidMarkup'
p2692
I1
sS'Style'
p2693
I3
sS'base64'
p2694
I5
sS'wearables'
p2695
I1
sS'vid'
p2696
I13
sS'4000019130S00008X000'
p2697
I1
sS'Tor'
p2698
I1
sS'3582022'
p2699
I2
sS'Top'
p2700
I6
sS'fzUOwed5MRtaSjYDQqKUHw'
p2701
I1
sS'href'
p2702
I353
sS'4000006260S00001X000'
p2703
I1
sS'c08a334a1d55'
p2704
I1
sS'toys'
p2705
I5
sS'8bff3d130af0'
p2706
I1
sS'Nigeria'
p2707
I2
sS'Mikel'
p2708
I1
sS'armed'
p2709
I2
sS'hdnav'
p2710
I1
sS'center'
p2711
I1
sS'Europe'
p2712
I1
sS'adLT'
p2713
I5
sS'cnRvjUjCWdi2BJKuwbPiWQ'
p2714
I1
sS'893b'
p2715
I1
sS'23237075623'
p2716
I1
sS'30345876'
p2717
I5
sS'two'
p2718
I4
sS'ec96'
p2719
I1
sS'154421767'
p2720
I3
sS'vh'
p2721
I25
sS'Turkish'
p2722
I4
sS'Baseball'
p2723
I1
sS'36a5'
p2724
I1
sS'6'
p2725
I19
sS'Russian'
p2726
I5
sS'3582114'
p2727
I4
sS'markets'
p2728
I2
sS'mtestid'
p2729
I1
sS'3582111'
p2730
I2
sS'more'
p2731
I39
sS'b1c1'
p2732
I1
sS'964acbb9'
p2733
I1
sS'almost'
p2734
I1
sS'interesttype'
p2735
I1
sS'3937'
p2736
I1
sS'fa47'
p2737
I1
sS'company'
p2738
I3
sS'livenationpromo'
p2739
I9
sS'refHandler'
p2740
I25
sS'91ffd1f7'
p2741
I1
sS'b22a'
p2742
I5
sS'Shockwave'
p2743
I1
sS'Not'
p2744
I1
sS'flag'
p2745
I3
sS'TRENDING'
p2746
I20
sS'Mass'
p2747
I1
sS'jsonp'
p2748
I15
sS'ks1XJdCaW'
p2749
I1
sS'yucs'
p2750
I1
sS'dislike'
p2751
I17
sS'e856c650bf2a'
p2752
I1
sS'KytcyYmvKqA6dEY6Bqvh3g'
p2753
I1
sS'Content'
p2754
I3
sS'none'
p2755
I3
sS'endpoint'
p2756
I1
sS'aeb1'
p2757
I1
sS'documentElement'
p2758
I4
sS'SS'
p2759
I2
sS'der'
p2760
I1
sS'Talia'
p2761
I3
sS'1402537233026922'
p2762
I3
sS'dev'
p2763
I1
sS'autocomplete'
p2764
I2
sS'3f8c'
p2765
I2
sS'Wood'
p2766
I1
sS'den'
p2767
I2
sS'v'
p2768
I33
sS'SB'
p2769
I1
sS'SA'
p2770
I4
sS'strFind'
p2771
I1
sS'Tomorrow'
p2772
I1
sS'deg'
p2773
I16
sS'safeframe'
p2774
I1
sS'prompt'
p2775
I3
sS'fa9d2a00'
p2776
I1
sS'brodrock'
p2777
I1
sS'galleries'
p2778
I11
sS'suggestions'
p2779
I5
sS'mLogin'
p2780
I1
sS'slotID'
p2781
I3
sS'89474ee1f7a1'
p2782
I1
sS'7176'
p2783
I1
sS'w620'
p2784
I1
sS'sense'
p2785
I1
sS'tabchange'
p2786
I1
sS'34e8'
p2787
I1
sS'a3bc79473f66'
p2788
I1
sS'39b2fc85'
p2789
I1
sS'information'
p2790
I1
sS'needs'
p2791
I3
sS'startscreen'
p2792
I1
sS'hdline'
p2793
I1
sS'Federation'
p2794
I3
sS'7e62b456'
p2795
I1
sS'666635198809944064'
p2796
I12
sS'videoPlayerAutoPlay'
p2797
I1
sS'csc'
p2798
I1
sS'Frances'
p2799
I1
sS'xxxl'
p2800
I1
sS'9ec2'
p2801
I1
sS'd0a'
p2802
I2
sS'33f9'
p2803
I1
sS'311b'
p2804
I1
sS'4000009580S00001X000'
p2805
I1
sS'css'
p2806
I219
sS'fp'
p2807
I143
sS'fr'
p2808
I34
sS'1447771359'
p2809
I1
sS'ft'
p2810
I51
sS'3c5c'
p2811
I1
sS'fw'
p2812
I44
sS'1664a82b'
p2813
I1
sS'Cosmic'
p2814
I1
sS'fz'
p2815
I221
sS'prlink'
p2816
I1
sS'4000007810S00001X000'
p2817
I1
sS'altKey'
p2818
I1
sS'france'
p2819
I1
sS'fb'
p2820
I1
sS'disable'
p2821
I1
sS'4000012640S00017X000'
p2822
I2
sS'4000006440S00001X000'
p2823
I1
sS'silence'
p2824
I4
sS'coming'
p2825
I4
sS'Ghostrider'
p2826
I2
sS'Syria'
p2827
I9
sS'ABCNewsVideos'
p2828
I1
sS'fl'
p2829
I45
sS'Dow'
p2830
I1
sS'Complete'
p2831
I1
sS'3d3e'
p2832
I1
sS'short'
p2833
I2
sS'76a5'
p2834
I1
sS'footer'
p2835
I25
sS'3117'
p2836
I1
sS'3a26'
p2837
I1
sS'3115'
p2838
I1
sS'32yearold'
p2839
I1
sS'b40f'
p2840
I1
sS'callback'
p2841
I2
sS'25021273'
p2842
I1
sS'25021272'
p2843
I1
sS'25021275'
p2844
I1
sS'shade'
p2845
I1
sS'pay'
p2846
I1
sS'25021279'
p2847
I1
sS'inline'
p2848
I6
sS'showAd'
p2849
I3
sS'4c96a4b4db0f'
p2850
I1
sS'dream'
p2851
I6
sS'playing'
p2852
I1
sS'uninstall'
p2853
I2
sS'Relationships'
p2854
I1
sS'4000008100S00001X000'
p2855
I1
sS'What'
p2856
I6
sS'itm'
p2857
I149
sS'Arial'
p2858
I2
sS'help'
p2859
I1
sS'Huge'
p2860
I2
sS'u00d4'
p2861
I1
sS'u00d5'
p2862
I1
sS'eludes'
p2863
I8
sS'u00d0'
p2864
I1
sS'itc'
p2865
I227
sS'u00d2'
p2866
I1
sS'9b5c'
p2867
I1
sS'disabled'
p2868
I3
sS'191319351'
p2869
I1
sS'Forces'
p2870
I6
sS'signs'
p2871
I1
sS'001000931'
p2872
I1
sS'eventId'
p2873
I3
sS'0b164fad'
p2874
I1
sS'4000006170S00001X000'
p2875
I1
sS'5f88'
p2876
I1
sS'24'
p2877
I11
sS'25'
p2878
I13
sS'style'
p2879
I126
sS'27'
p2880
I2
sS'20'
p2881
I14
sS'21'
p2882
I16
sS'22'
p2883
I9
sS'23'
p2884
I3
sS'e9e0cf4b3277'
p2885
I1
sS'formData'
p2886
I1
sS'28'
p2887
I13
sS'29'
p2888
I8
sS'MODULE'
p2889
I1
sS'actually'
p2890
I1
sS'posId'
p2891
I8
sS'minute'
p2892
I3
sS'b144a97f'
p2893
I1
sS'stephen'
p2894
I1
sS'3180'
p2895
I1
sS'33f6'
p2896
I1
sS'soccer'
p2897
I1
sS'Herper'
p2898
I1
sS'Packers'
p2899
I1
sS'yh'
p2900
I6
sS'1af9f3265218'
p2901
I1
sS'9c6afcc2966e'
p2902
I1
sS'return'
p2903
I5
sS'DISLIKEDCTA'
p2904
I1
sS'food'
p2905
I3
sS'hellip'
p2906
I1
sS'yc'
p2907
I10
sS'adsTL1'
p2908
I2
sS'L'
p2909
I1
sS'nRO3VakKyCTFyhKDp4ZH3qGDAeC'
p2910
I1
sS'Bay'
p2911
I2
sS'renderPath'
p2912
I1
sS'2F'
p2913
I23
sS'Parker'
p2914
I8
sS'73c1'
p2915
I1
sS'9931dcc5b07e'
p2916
I1
sS'foot'
p2917
I8
sS'u00de'
p2918
I1
sS'u00df'
p2919
I1
sS'viewtype'
p2920
I9
sS'u00da'
p2921
I1
sS'u00db'
p2922
I1
sS'2K'
p2923
I2
sS'offscreen'
p2924
I5
sS'4000006230S00001X000'
p2925
I1
sS'17ec53f5'
p2926
I1
sS'yM'
p2927
I1
sS'onFailure'
p2928
I1
sS'5c5702cee5d6'
p2929
I1
sS'wash'
p2930
I1
sS'always'
p2931
I1
sS'33ff'
p2932
I1
sS'settings'
p2933
I6
sS'2x'
p2934
I1
sS'151218010'
p2935
I1
sS'refresh'
p2936
I25
sS'Quotes'
p2937
I1
sS'467ba1fcc1a4'
p2938
I1
sS'526100'
p2939
I1
sS'pan'
p2940
I5
sS'uiplugins'
p2941
I68
sS'resizer'
p2942
I3
sS'130J'
p2943
I1
sS'myproperty'
p2944
I1
sS'heavy'
p2945
I1
sS'week'
p2946
I1
sS'passthru'
p2947
I1
sS'puppies340'
p2948
I1
sS'End'
p2949
I2
sS'954fa575'
p2950
I1
sS'Command\xe2\x80\x99s'
p2951
I1
sS'dynamicMax'
p2952
I1
sS'house'
p2953
I4
sS'4000009630S00001X000'
p2954
I1
sS'Saturday'
p2955
I1
sS'him'
p2956
I3
sS'Sports'
p2957
I11
sS'Mori'
p2958
I4
sS'srtid'
p2959
I1
sS'fewer'
p2960
I2
sS'Env'
p2961
I4
sS'061652871'
p2962
I1
sS'aKHaHmw'
p2963
I1
sS'45cc'
p2964
I1
sS'event'
p2965
I30
sS'trdnw'
p2966
I1
sS'More'
p2967
I30
sS'deals'
p2968
I4
sS'Collapse'
p2969
I3
sS'p'
p2970
I440
sS'postLoadConf'
p2971
I2
sS'surrounded'
p2972
I2
sS'unknown'
p2973
I3
sS'publish'
p2974
I5
sS'Germy'
p2975
I1
sS'001000713'
p2976
I3
sS'health'
p2977
I3
sS'7'
p2978
I16
sS'Vacation'
p2979
I1
sS'onfocus'
p2980
I1
sS'390a40c3'
p2981
I4
sS'3239250051'
p2982
I3
sS'35f40010'
p2983
I1
sS'8fca'
p2984
I1
sS'history\xe2\x80\x94sending'
p2985
I1
sS'matthewh'
p2986
I1
sS'assist'
p2987
I2
sS'statemgr'
p2988
I3
sS'you\xe2\x80\x99re'
p2989
I1
sS'6b167b22'
p2990
I1
sS'team'
p2991
I52
sS'story'
p2992
I8
sS'pub'
p2993
I1
sS'1de0a32405c3'
p2994
I1
sS'ff4e299a'
p2995
I1
sS'reason'
p2996
I22
sS'base'
p2997
I135
sS'cookie'
p2998
I10
sS'4000015740S00008X000'
p2999
I1
sS'ask'
p3000
I4
sS'setTimeout'
p3001
I4
sS'YXBwaWQ9eWhvbWVydW47cT04NTtzbT0xO3c9NTgwO2g9NDM1'
p3002
I1
sS'Delete'
p3003
I12
sS'idate'
p3004
I1
sS'4000009090S00001X000'
p3005
I1
sS'8cfbe9a5'
p3006
I1
sS'benefits'
p3007
I2
sS'People'
p3008
I1
sS'4000007979S00001X000'
p3009
I1
sS'970'
p3010
I2
sS'6e018d42'
p3011
I1
sS'1093278'
p3012
I48
sS'a13e'
p3013
I1
sS'undo'
p3014
I3
sS'3690'
p3015
I1
sS'64cc6071'
p3016
I1
sS'w'
p3017
I105
sS'd97fb42b'
p3018
I1
sS'syria'
p3019
I1
sS'Ew'
p3020
I1
sS'e58b6de6e24a'
p3021
I2
sS'raptors'
p3022
I1
sS'hasCustomAppOrder'
p3023
I1
sS'tabindex'
p3024
I17
sS'picker'
p3025
I6
sS'major'
p3026
I2
sS'3693'
p3027
I1
sS'635x250'
p3028
I6
sS'dont'
p3029
I1
sS'4000001500A100S00004X000'
p3030
I1
sS'feel'
p3031
I1
sS'number'
p3032
I2
sS'ELSE'
p3033
I1
sS'3695'
p3034
I1
sS'THANKYOU'
p3035
I3
sS'yMidorn9Qytpc9P'
p3036
I1
sS'done'
p3037
I14
sS'rails'
p3038
I1
sS'blank'
p3039
I1
sS'600'
p3040
I1
sS'gallinari'
p3041
I1
sS'maple'
p3042
I50
sS'06f3bd655565'
p3043
I1
sS'TL1'
p3044
I8
sS'php'
p3045
I4
sS'guest'
p3046
I1
sS'script'
p3047
I23
sS'divorce'
p3048
I2
sS'Screen'
p3049
I3
sS'userLocation'
p3050
I1
sS'ctr'
p3051
I1
sS'w1255'
p3052
I1
sS'least'
p3053
I1
sS'Jordan'
p3054
I5
sS'Autos'
p3055
I2
sS'a2e5'
p3056
I4
sS'48d7d5f204f8'
p3057
I1
sS'187'
p3058
I6
sS'3e42'
p3059
I1
sS'cokeTestId'
p3060
I1
sS'11e5'
p3061
I11
sS'11e4'
p3062
I3
sS'nigeria'
p3063
I1
sS'2Fsearch'
p3064
I2
sS'ultBeaconTimeout'
p3065
I1
sS'2116'
p3066
I1
sS'3e41'
p3067
I1
sS'tabFilter'
p3068
I1
sS'6c86'
p3069
I7
sS'option'
p3070
I4
sS'bookID'
p3071
I3
sS'505c3b95f36e'
p3072
I1
sS'3582035'
p3073
I2
sS'3iPpejeFyy0a2'
p3074
I1
sS'selector'
p3075
I12
sS'ad3f1eb4'
p3076
I2
sS'mailtranslations'
p3077
I1
sS'jordan'
p3078
I1
sS'4000006360S00002X000'
p3079
I1
sS'e6f98400656c'
p3080
I1
sS'Tongue'
p3081
I1
sS'3b27'
p3082
I1
sS'carnage'
p3083
I2
sS'obama'
p3084
I5
sS'5e9a'
p3085
I1
sS'king'
p3086
I1
sS'b'
p3087
I391
sS'decided'
p3088
I1
sS'ab17'
p3089
I1
sS'stl'
p3090
I30
sS'srcpvid'
p3091
I1
sS'37e6'
p3092
I1
sS'showBeacon'
p3093
I2
sS'867'
p3094
I1
sS'3200328433'
p3095
I2
sS'30345810'
p3096
I7
sS'3582108'
p3097
I2
sS'store'
p3098
I2
sS'str'
p3099
I1
sS'170937810'
p3100
I1
sS'Cancel'
p3101
I1
sS'sister'
p3102
I1
sS'6986e09b'
p3103
I1
sS'3582100'
p3104
I2
sS'Click'
p3105
I1
sS'3582102'
p3106
I1
sS'interactive'
p3107
I1
sS'F5w'
p3108
I1
sS'Defence'
p3109
I3
sS'Baller'
p3110
I2
sS'uncomfortable'
p3111
I1
sS'texans'
p3112
I1
sS'4000011120S00017X000'
p3113
I1
sS'well'
p3114
I2
sS'shpg'
p3115
I1
sS'9ff2c7436ca6'
p3116
I1
sS'4438ab7c'
p3117
I1
sS'8089'
p3118
I1
sS'garfield'
p3119
I3
sS'YXBwaWQ9eWhvbWVydW47Zmk9Y3JvcA'
p3120
I1
sS'contest'
p3121
I12
sS'f9acc3d7'
p3122
I1
sS'Rare'
p3123
I1
sS'Gov'
p3124
I2
sS'514d351e952b'
p3125
I1
sS'collapse'
p3126
I4
sS'7D'
p3127
I1
sS'lib'
p3128
I384
sS'output'
p3129
I2
sS'Food'
p3130
I1
sS'ff35'
p3131
I5
sS'Price'
p3132
I1
sS'ell'
p3133
I81
sS'212cc06a21e4'
p3134
I1
sS'vtestid'
p3135
I1
sS'hasExternal'
p3136
I3
sS'makers'
p3137
I1
sS'also'
p3138
I1
sS'liv'
p3139
I2
sS'beaconPath'
p3140
I1
sS'8d22'
p3141
I2
sS'build'
p3142
I6
sS'a5fe'
p3143
I1
sS'8920'
p3144
I1
sS'finding'
p3145
I1
sS'Alpha'
p3146
I1
sS'throttle'
p3147
I1
sS'fltr'
p3148
I50
sS'panel10'
p3149
I1
sS'toLowerCase'
p3150
I1
sS'Activities'
p3151
I1
sS'Recreation'
p3152
I4
sS'Attacks'
p3153
I2
sS'quote'
p3154
I1
sS'Thu'
p3155
I1
sS'yset'
p3156
I5
sS'M'
p3157
I1
sS'3d11'
p3158
I1
sS'1447833989305'
p3159
I2
sS'most'
p3160
I4
sS'75'
p3161
I23
sS'rOuiUtegPA'
p3162
I1
sS'8c3f'
p3163
I6
sS'posSize'
p3164
I3
sS'70'
p3165
I10
sS'bbef'
p3166
I1
sS'The'
p3167
I21
sS'14371'
p3168
I1
sS'extremely'
p3169
I1
sS'juliaoftoronto'
p3170
I2
sS'kc'
p3171
I9
sS'kb'
p3172
I4
sS'5f2dd9c4f316'
p3173
I1
sS'tpc'
p3174
I1
sS'hps'
p3175
I1
sS'120px'
p3176
I1
sS'Zee'
p3177
I1
sS'mobile'
p3178
I2
sS'fbauthstate'
p3179
I1
sS'LIKEDCTA'
p3180
I1
sS'init'
p3181
I3
sS'3f66'
p3182
I1
sS'parentNode'
p3183
I1
sS'Id'
p3184
I1
sS'ext'
p3185
I1
sS'exp'
p3186
I31
sS'Portfolio'
p3187
I1
sS'If'
p3188
I1
sS'e8ef'
p3189
I1
sS'searchIntl'
p3190
I1
sS'cdata'
p3191
I1
sS'bd417267b3b4'
p3192
I10
sS'4000006590S00002X000'
p3193
I1
sS'ugc'
p3194
I3
sS'1822871534'
p3195
I1
sS'c8da8a3d'
p3196
I1
sS'Tu'
p3197
I3
sS'Takepart'
p3198
I1
sS'yltInfoPage'
p3199
I2
sS'35e8'
p3200
I1
sS'0d4de0e8fbbd'
p3201
I1
sS'Ronda'
p3202
I7
sS'ctas'
p3203
I12
sS'ctrlKey'
p3204
I1
sS'u00ca'
p3205
I1
sS'u00cc'
p3206
I1
sS'Francois'
p3207
I4
sS'hornets'
p3208
I1
sS'u00cd'
p3209
I1
sS'u00cf'
p3210
I1
sS'Affordable'
p3211
I2
sS'36b9'
p3212
I1
sS'indicator'
p3213
I1
sS'85a3bc90'
p3214
I1
sS'northern'
p3215
I7
sS'4000004300S00002X000'
p3216
I1
sS'fPwh6YavLw5clvawL5pZMg'
p3217
I1
sS'heavily'
p3218
I2
sS'3127'
p3219
I1
sS'French'
p3220
I4
sS'4000009420S00001X000'
p3221
I1
sS'ba37'
p3222
I1
sS'3581826'
p3223
I2
sS'flights'
p3224
I8
sS'HTML'
p3225
I9
sS'd86b7222f3a1'
p3226
I1
sS'pretty'
p3227
I1
sS'76dd'
p3228
I1
sS'8'
p3229
I138
sS'u00c9'
p3230
I1
sS'u00c8'
p3231
I1
sS'his'
p3232
I9
sS'1447785523'
p3233
I2
sS'99142fc45269'
p3234
I7
sS'serveType'
p3235
I3
sS'u00c0'
p3236
I1
sS'u00c3'
p3237
I1
sS'u00c2'
p3238
I1
sS'Favorite'
p3239
I2
sS'Thanksgiving'
p3240
I4
sS'Lakers'
p3241
I7
sS'oJDIVpX0JjaV7E4S4'
p3242
I1
sS'pgnt'
p3243
I2
sS'pageloadValidAds'
p3244
I1
sS'While'
p3245
I2
sS'Medicare'
p3246
I2
sS'breast'
p3247
I6
sS'4000000720A100S00004X000'
p3248
I2
sS'international'
p3249
I1
sS'during'
p3250
I1
sS'YahooNews'
p3251
I1
sS'74gk8gOVyylRdu0oN9AeBQ'
p3252
I1
sS'bd09'
p3253
I1
sS'5593'
p3254
I1
sS'Help'
p3255
I1
sS'enableMyTeams'
p3256
I1
sS'8d94'
p3257
I1
sS'querystring'
p3258
I6
sS'retaliation'
p3259
I1
sS'remove'
p3260
I25
sS'1aa5480c'
p3261
I3
sS'Thinkstock'
p3262
I2
sS'35897d5a'
p3263
I1
sS'underlying'
p3264
I1
sS'gloves'
p3265
I5
sS'common'
p3266
I2
sS'e1a'
p3267
I2
sS'x'
p3268
I2
sS'animPlayBeacon'
p3269
I1
sS'set'
p3270
I12
sS'fpad2'
p3271
I1
sS'showdrawerhandle'
p3272
I2
sS'devils'
p3273
I1
sS'locale'
p3274
I2
sS'cssSAWindowSuggestionHeightIE6'
p3275
I1
sS'searchAutoHide'
p3276
I1
sS'beaconAkqaUrl'
p3277
I1
sS'315'
p3278
I2
sS'kylie'
p3279
I1
sS'manning'
p3280
I2
sS'see'
p3281
I4
sS'horoscopes'
p3282
I1
sS'sec'
p3283
I131
sS'sea'
p3284
I1
sS'close'
p3285
I33
sS'3f09'
p3286
I1
sS'retweet'
p3287
I2
sS'71db417c'
p3288
I1
sS'3a5167b6'
p3289
I1
sS'stringify'
p3290
I6
sS'threats'
p3291
I5
sS'059a'
p3292
I1
sS'disableUraBeacons'
p3293
I1
sS'movie'
p3294
I1
sS'MARKUP'
p3295
I1
sS'currently'
p3296
I1
sS'please'
p3297
I1
sS'Featured'
p3298
I1
sS'cavideo'
p3299
I1
sS'ups'
p3300
I1
sS'Rbozikhk8NgqGMDmKHw6w'
p3301
I1
sS'fans'
p3302
I3
sS'won'
p3303
I1
sS'89d5'
p3304
I1
sS'776a'
p3305
I1
sS'uibutton'
p3306
I2
sS'probably'
p3307
I1
sS'a0fb'
p3308
I1
sS'conditions'
p3309
I1
sS'btn120'
p3310
I1
sS'blurb'
p3311
I1
sS'available'
p3312
I2
sS'King'
p3313
I1
sS'3f0a'
p3314
I4
sS'seaside'
p3315
I1
sS'searchassist'
p3316
I2
sS'backfill'
p3317
I1
sS'complementary'
p3318
I1
sS'b9a8'
p3319
I1
sS'javascript'
p3320
I3
sS'I6zwIQ'
p3321
I1
sS'3582104'
p3322
I2
sS'incident'
p3323
I1
sS'srrt'
p3324
I1
sS'fpad'
p3325
I4
sS'sizeSiteAttr'
p3326
I1
sS'4000012020S00017X000'
p3327
I1
sS'Friends'
p3328
I1
sS'2c42'
p3329
I1
sS'HawaiianVirtualTours'
p3330
I1
sS'c'
p3331
I23
sS'last'
p3332
I4
sS'4000002250S00002X000'
p3333
I1
sS'4000020710S00008X000'
p3334
I1
sS'09d0'
p3335
I4
sS'a0f2'
p3336
I1
sS'tremblay'
p3337
I2
sS'4000012170S00008X000'
p3338
I1
sS'foreign'
p3339
I1
sS'YXBwaWQ9eWhvbWVydW47cT04NTtzbT0xO2ZpPWZpbGw7dz04MjtoPTgyO3B5b2ZmPTA'
p3340
I1
sS'3e1c'
p3341
I1
sS'connection'
p3342
I1
sS'LIKETEXT'
p3343
I1
sS'Backfire'
p3344
I2
sS'context'
p3345
I1
sS'buzz'
p3346
I1
sS'MapleTop'
p3347
I1
sS'3582103'
p3348
I1
sS'393d4665'
p3349
I1
sS'rodgers'
p3350
I4
sS'load'
p3351
I5
sS'31a1'
p3352
I1
sS'Friday'
p3353
I12
sS'AFTP'
p3354
I3
sS'3616'
p3355
I1
sS'drunk'
p3356
I6
sS'reasons'
p3357
I1
sS'336e7b63'
p3358
I1
sS'dffrontpagemore'
p3359
I1
sS'ddec'
p3360
I1
sS'header'
p3361
I17
sS'4000006580S00001X000'
p3362
I1
sS'simply'
p3363
I1
sS'shutdown'
p3364
I1
sS'contentpos'
p3365
I1
sS'Daesh'
p3366
I1
sS'd009'
p3367
I1
sS'scrapped'
p3368
I1
sS'searchScrollHide'
p3369
I1
sS'pr'
p3370
I20
sS'as\xc2\xa0an'
p3371
I1
sS'Updated'
p3372
I1
sS'RussiaPo'
p3373
I1
sS'pt'
p3374
I14
sS'81231ed1cde498eeed6d706b4ad292a1'
p3375
I1
sS'dynamicSectionEnabled'
p3376
I1
sS'341d'
p3377
I1
sS'3a39'
p3378
I1
sS'due'
p3379
I2
sS'Macy'
p3380
I5
sS'strategy'
p3381
I2
sS'pb'
p3382
I13
sS'Most'
p3383
I1
sS'dropping'
p3384
I1
sS'c0c94f6120a7'
p3385
I1
sS'a214'
p3386
I1
sS'93f0d4988674c3490410da3dfcf6ad76'
p3387
I1
sS'turnon'
p3388
I1
sS'860e'
p3389
I1
sS'8c38'
p3390
I6
sS'pl'
p3391
I43
sS'adc'
p3392
I3
sS'assetctop'
p3393
I1
sS'9fc39a343f1b'
p3394
I1
sS'2a27'
p3395
I1
sS'flight'
p3396
I5
sS'4000016219S00017X000'
p3397
I2
sS'searchwrapper'
p3398
I7
sS'CGltxzk4LjEP'
p3399
I2
sS'slideshow'
p3400
I4
sS'else'
p3401
I11
sS'57db670f'
p3402
I1
sS'hasOwnProperty'
p3403
I1
sS'ADS'
p3404
I1
sS'demand'
p3405
I1
sS'Associated'
p3406
I1
sS'towns'
p3407
I7
sS'7BsearchTerms'
p3408
I1
sS'positionSearchBarTopOnFocusEnabled'
p3409
I1
sS'XnCX1WW1CmDsMM02AEeA'
p3410
I1
sS'k2'
p3411
I1
sS'blueanimation'
p3412
I1
sS'ca56e457cef5e06b6dd0918730a3da4e'
p3413
I1
sS'30344913'
p3414
I2
sS'selfie'
p3415
I1
sS'lzbg'
p3416
I53
sS'211136954'
p3417
I1
sS'\xc2\xa0Sam'
p3418
I1
sS'8cd0'
p3419
I1
sS'eed1141aca25'
p3420
I7
sS'while'
p3421
I5
sS'sampleSize'
p3422
I1
sS'Done'
p3423
I5
sS'Change'
p3424
I2
sS'behavior'
p3425
I3
sS'error'
p3426
I9
sS'fun'
p3427
I1
sS'c1'
p3428
I2
sS'radio'
p3429
I4
sS'pack'
p3430
I6
sS'City'
p3431
I14
sS's1jaDfsXHgCeISdxlznQEw'
p3432
I1
sS'4000006350S00001X000'
p3433
I1
sS'safariSearchSetEnabled'
p3434
I2
sS'6785691dc541'
p3435
I1
sS'voh'
p3436
I88
sS'9748940'
p3437
I2
sS'jpg'
p3438
I73
sS'tID'
p3439
I1
sS'decoration'
p3440
I1
sS'vow'
p3441
I2
sS'frantic'
p3442
I1
sS'4000001470A100S00004X000'
p3443
I1
sS'rid'
p3444
I2
sS'163058076'
p3445
I4
sS'vox'
p3446
I7
sS'Teen'
p3447
I1
sS'queue'
p3448
I6
sS'null'
p3449
I11
sS'magnify'
p3450
I1
sS'iosTabletSearchSetEnabled'
p3451
I1
sS'sBdr'
p3452
I4
sS'4000000640A100S00004X000'
p3453
I1
sS'4000008420S00001X000'
p3454
I1
sS'Nation'
p3455
I1
sS'3582139'
p3456
I2
sS'3582138'
p3457
I2
sS'ADSDISLIKEOPTN2'
p3458
I1
sS'8b56'
p3459
I1
sS'Address'
p3460
I1
sS'9'
p3461
I51
sS'products'
p3462
I1
sS'5f1eb886'
p3463
I1
sS'3582132'
p3464
I2
sS'3582134'
p3465
I2
sS'3582137'
p3466
I2
sS'3582136'
p3467
I2
sS'About'
p3468
I2
sS'used'
p3469
I1
sS'14782488'
p3470
I1
sS'Card'
p3471
I2
sS'eb3cf408eb0f'
p3472
I1
sS'm6Cbs4z02aiWrz7u3pQkog'
p3473
I1
sS'keys'
p3474
I2
sS'utah'
p3475
I4
sS'gallery'
p3476
I4
sS'ultimate'
p3477
I1
sS'4000007380S00001X000'
p3478
I1
sS'attempted'
p3479
I1
sS'sfbrenderPath'
p3480
I1
sS'sys'
p3481
I2
sS'Movies'
p3482
I2
sS'moment'
p3483
I1
sS'b553'
p3484
I1
sS'1445042235'
p3485
I1
sS'user'
p3486
I6
sS'0ee3'
p3487
I1
sS'a3a0ee1d'
p3488
I6
sS'b8c4'
p3489
I1
sS'turkey340'
p3490
I1
sS'stack'
p3491
I9
sS'5f7cb46c57'
p3492
I1
sS'early'
p3493
I1
sS'302d'
p3494
I1
sS'videoPlayerStopBuffering'
p3495
I1
sS'gsw'
p3496
I2
sS'dailyfantasy'
p3497
I27
sS'Technology'
p3498
I1
sS'libRoot'
p3499
I1
sS'autocompleteUrl'
p3500
I1
sS'cb9a'
p3501
I1
sS'38f6'
p3502
I1
sS'b53e74f4dbd9'
p3503
I1
sS'210831'
p3504
I1
sS'324792d137ec'
p3505
I1
sS'850da6e1c81c'
p3506
I6
sS'y'
p3507
I89
sS'ac923cac'
p3508
I1
sS'flashplayer'
p3509
I1
sS'autoHideEnabled'
p3510
I1
sS'9a22'
p3511
I1
sS'know'
p3512
I3
sS'hdln'
p3513
I28
sS'hjs'
p3514
I2
sS'2fc9aea0'
p3515
I1
sS'wikiid'
p3516
I2
sS'fe07'
p3517
I1
sS'be22'
p3518
I1
sS'4000010470S00017X000'
p3519
I1
sS'0eeHg'
p3520
I1
sS'distracting'
p3521
I1
sS'inactive'
p3522
I10
sS'eyebrowpromo'
p3523
I9
sS'2bf75a05fa4c'
p3524
I1
sS'amp'
p3525
I1
sS'4000012110S00017X000'
p3526
I1
sS'3040'
p3527
I1
sS'Occupational'
p3528
I1
sS'b05bf3b81eb4'
p3529
I1
sS'5395'
p3530
I1
sS'6ed7'
p3531
I1
sS'3532268'
p3532
I1
sS'errurl'
p3533
I1
sS'loading'
p3534
I5
sS'helping'
p3535
I1
sS'HDLN2'
p3536
I4
sS'4000025580S00008X000'
p3537
I1
sS'majority'
p3538
I1
sS'workers'
p3539
I1
sS'Football'
p3540
I3
sS'923a8a5b'
p3541
I1
sS'bc635867'
p3542
I1
sS'Holidays'
p3543
I2
sS'source'
p3544
I24
sS'cue'
p3545
I1
sS'39e8'
p3546
I1
sS'location'
p3547
I12
sS'c311111e4e17'
p3548
I1
sS'input'
p3549
I37
sS'ace8'
p3550
I7
sS'bin'
p3551
I2
sS'Ronan'
p3552
I1
sS'Ufpu4rHgxjAxY9Xe26elcA'
p3553
I1
sS'b944'
p3554
I1
sS'victims'
p3555
I7
sS'loss'
p3556
I3
sS'4000017900S00017X000'
p3557
I9
sS'big'
p3558
I3
sS'bid'
p3559
I3
sS'closeEnabled'
p3560
I1
sS'72a8'
p3561
I1
sS'3bb0'
p3562
I1
sS'socialEnabled'
p3563
I1
sS'Air'
p3564
I4
sS'thedailybeast'
p3565
I2
sS'game'
p3566
I10
sS'dt151118'
p3567
I2
sS'cbsboston'
p3568
I1
sS'abound'
p3569
I1
sS'e8f45e520eb4'
p3570
I1
sS'pageEndHTML'
p3571
I1
sS'preloadSRP'
p3572
I1
sS'3802'
p3573
I10
sS'crumbErrorHtml'
p3574
I1
sS'Gunfire'
p3575
I2
sS'MXIL9LCdWlxuTfO3at63g'
p3576
I1
sS'ON'
p3577
I1
sS'40b60859bc12'
p3578
I3
sS'ITEM'
p3579
I4
sS'Cincinnati'
p3580
I1
sS'd'
p3581
I365
sS'submission'
p3582
I1
sS'DTeJTcA'
p3583
I1
sS'With'
p3584
I1
sS'OE'
p3585
I2
sS'Show'
p3586
I4
sS'deferredRes'
p3587
I1
sS'Bradley'
p3588
I5
sS'0em'
p3589
I1
sS'4000023360S00008X000'
p3590
I1
sS'4000012600S00008X000'
p3591
I1
sS'contentId'
p3592
I42
sS'popular'
p3593
I2
sS'stylish'
p3594
I1
sS'9b85'
p3595
I1
sS'Find'
p3596
I5
sS'normalizationRules'
p3597
I1
sS'moduleid'
p3598
I13
sS'Happens'
p3599
I1
sS'a02d'
p3600
I1
sS'Little'
p3601
I2
sS'Management'
p3602
I3
sS'orl3'
p3603
I1
sS'yola'
p3604
I1
sS'111715'
p3605
I6
sS'lights340'
p3606
I1
sS'ad576808'
p3607
I4
sS'Brazilian'
p3608
I1
sS'b6e7'
p3609
I4
sS'back'
p3610
I3
sS'dd03'
p3611
I1
sS'Fahrenheit'
p3612
I4
sS'streaming'
p3613
I1
sS'4000005980S00001X000'
p3614
I1
sS'Messenger'
p3615
I1
sS'b1'
p3616
I1
sS'erupts'
p3617
I2
sS'395c'
p3618
I1
sS'4000002170S00002X000'
p3619
I1
sS'Wembley'
p3620
I1
sS'server'
p3621
I1
sS'DISLIKETEXT'
p3622
I1
sS'60be3c0e'
p3623
I1
sS'RBm0VblTnnRUWOAu'
p3624
I1
sS'073f'
p3625
I1
sS'scale'
p3626
I4
sS'Seoul'
p3627
I1
sS'prov'
p3628
I20
sS'locId'
p3629
I1
sS'4000009590S00001X000'
p3630
I1
sS'9c0a'
p3631
I1
sS'trendingnowcarousel'
p3632
I18
sS'setJSCookie'
p3633
I5
sS'33d9'
p3634
I1
sS'20100602'
p3635
I3
sS'enableMyPhotos'
p3636
I1
sS'5538945479'
p3637
I2
sS'\xc2\xa0'
p3638
I3
sS'visit'
p3639
I1
sS'AssociatedPress'
p3640
I1
sS'spending\xe2\x80\xa6'
p3641
I1
sS'bd'
p3642
I98
sS'f884'
p3643
I4
sS'bg'
p3644
I5
sS'Look'
p3645
I1
sS'bc'
p3646
I7
sS'bl'
p3647
I2
sS'reach'
p3648
I1
sS'u011flu'
p3649
I1
sS'3EC21CoTopzw'
p3650
I1
sS'Logic'
p3651
I2
sS'O'
p3652
I2
sS'refused'
p3653
I1
sS'cgy'
p3654
I3
sS'bv'
p3655
I3
sS'725c94135451'
p3656
I2
sS'br'
p3657
I2
sS'bs'
p3658
I7
sS'refuses'
p3659
I1
sS'selectiveRendering'
p3660
I1
sS'Russia'
p3661
I9
sS'bz'
p3662
I10
sS'1bb0112f'
p3663
I4
sS'shine'
p3664
I2
sS'001000395'
p3665
I3
sS'anything'
p3666
I1
sS'76'
p3667
I2
sS'json'
p3668
I7
sS'4000009260S00001X000'
p3669
I1
sS'Chief'
p3670
I1
sS'HOODCONTENT'
p3671
I2
sS'33de'
p3672
I1
sS'installDateFmt'
p3673
I1
sS'4000000610S00008X000'
p3674
I1
sS'range'
p3675
I2
sS'74'
p3676
I1
sS'pageview'
p3677
I2
sS'f35'
p3678
I4
sS'modal'
p3679
I6
sS'together'
p3680
I1
sS'8b998b55'
p3681
I1
sS'93f7'
p3682
I1
sS'ylk'
p3683
I250
sS'fpogpGZdsH9T2A'
p3684
I1
sS'Katie'
p3685
I3
sS'seeing'
p3686
I1
sS'etonline'
p3687
I1
sS'4000011350S00008X000'
p3688
I1
sS'windowshade'
p3689
I14
sS'1800000'
p3690
I1
sS'al'
p3691
I3
sS'intl'
p3692
I90
sS'defaultPanelCounter'
p3693
I1
sS'within'
p3694
I1
sS'ENABLED'
p3695
I1
sS'3582173'
p3696
I2
sS'8884bb166833'
p3697
I1
sS'lightbg'
p3698
I1
sS'splerror'
p3699
I1
sS'b721e170'
p3700
I1
sS'TORatGSW'
p3701
I1
sS'trendingnow'
p3702
I24
sS'50x50w'
p3703
I15
sS'Login'
p3704
I2
sS'katie'
p3705
I1
sS'mkg'
p3706
I1
sS'b655a9e1607a'
p3707
I1
sS'span'
p3708
I523
sS'cookieIndex'
p3709
I3
sS'arcade'
p3710
I4
sS'suid'
p3711
I21
sS'Composite'
p3712
I1
sS'mpos'
p3713
I1
sS'e87656c46f20'
p3714
I1
sS'b1b80b7e'
p3715
I1
sS'live'
p3716
I10
sS'submit'
p3717
I5
sS'Nick\xe2\x80\x99s'
p3718
I1
sS'writeMixerActions'
p3719
I1
sS'3d1d'
p3720
I1
sS'RUY7nQ8EnfbCAovFmwfZzg'
p3721
I1
sS'RESULTSLIST'
p3722
I1
sS'Payback'
p3723
I2
sS'4000008970S00001X000'
p3724
I1
sS'translate'
p3725
I1
sS'removeCtaRemoveBtn'
p3726
I1
sS'151340047'
p3727
I1
sS'4000003240S00002X000'
p3728
I1
sS'himself'
p3729
I1
sS'322c58c0'
p3730
I1
sS'russias'
p3731
I1
sS'33765211fff2'
p3732
I1
sS'b619e8e8'
p3733
I1
sS'great'
p3734
I1
sS'collapsed'
p3735
I43
sS'001000560'
p3736
I2
sS'3413'
p3737
I1
sS'71f6c43b'
p3738
I1
sS'Filter'
p3739
I1
sS'serif'
p3740
I2
sS'3394d5512168'
p3741
I1
sS'link'
p3742
I45
sS'sda'
p3743
I8
sS'f0285e457e81'
p3744
I1
sS'delta'
p3745
I2
sS'Searchterm'
p3746
I1
sS'8d2b'
p3747
I1
sS'Brandon'
p3748
I3
sS'34c4'
p3749
I1
sS'info'
p3750
I11
sS'tumblr'
p3751
I1
sS'30345988'
p3752
I7
sS'30345989'
p3753
I7
sS'003256592'
p3754
I8
sS'330553db'
p3755
I1
sS'reflexiveads'
p3756
I3
sS'cid'
p3757
I8
sS'3a48'
p3758
I1
sS'30345980'
p3759
I4
sS'dom'
p3760
I12
sS'30345986'
p3761
I7
sS'30345987'
p3762
I7
sS'us'
p3763
I152
sS'utm'
p3764
I4
sS'4000006240S00001X000'
p3765
I1
sS'ul'
p3766
I112
sS'350K'
p3767
I2
sS'ui'
p3768
I10
sS'uh'
p3769
I3
sS'subscribeMaxTries'
p3770
I1
sS'z'
p3771
I15
sS'83eb'
p3772
I1
sS'Editor'
p3773
I1
sS'a1aaa8b7'
p3774
I1
sS'a18e'
p3775
I1
sS'sedgeRoot'
p3776
I1
sS'4000008280S00001X000'
p3777
I1
sS'cin'
p3778
I3
sS'Wefinall'
p3779
I1
sS'Mars'
p3780
I1
sS'DISLIKED'
p3781
I1
sS'Lane'
p3782
I1
sS'changepercent'
p3783
I3
sS'YahooTrafficServer'
p3784
I2
sS'To'
p3785
I2
sS'Attack'
p3786
I1
sS'846a'
p3787
I3
sS'HollyHol'
p3788
I1
sS'8d0a'
p3789
I1
sS'10001806365479'
p3790
I1
sS'7aee'
p3791
I1
sS'044115313'
p3792
I1
sS'9ToLB4quk'
p3793
I1
sS'1035'
p3794
I1
sS'TV'
p3795
I2
sS'119'
p3796
I2
sS'entity'
p3797
I10
sS'8977bd645362'
p3798
I1
sS'Single'
p3799
I1
sS'dimmed'
p3800
I8
sS'2784129d'
p3801
I1
sS'3e62'
p3802
I1
sS'TO'
p3803
I3
sS'b6f2'
p3804
I1
sS'QB'
p3805
I1
sS'nav'
p3806
I215
sS'TH'
p3807
I2
sS'0481'
p3808
I1
sS'jmTVQDk4LjHHbFsHU5jMkgKkMTAuNwAAAACljpkK'
p3809
I3
sS'4000000750A100S00004X000'
p3810
I1
sS'ygames'
p3811
I2
sS'6179ff1b25ed'
p3812
I1
sS'maxWidth'
p3813
I2
sS'9865b194'
p3814
I1
sS'happens'
p3815
I5
sS'AC'
p3816
I2
sS'dropdownFilter'
p3817
I1
sS'63802'
p3818
I5
sS'clean'
p3819
I4
sS'accidental'
p3820
I1
sS'Pounds'
p3821
I1
sS'8a34'
p3822
I1
sS'3f7bae50'
p3823
I1
sS'61b63d32c7'
p3824
I1
sS'AM'
p3825
I4
sS'3f2d'
p3826
I2
sS'Marcelo'
p3827
I6
sS'AP'
p3828
I8
sS'65cb'
p3829
I1
sS'visibleItems'
p3830
I1
sS'iframeshim'
p3831
I6
sS'bodily'
p3832
I1
sS'44815'
p3833
I1
sS'actress'
p3834
I1
sS'ago'
p3835
I10
sS'CONTENT'
p3836
I1
sS'yahoofrontpage'
p3837
I22
sS'3582125'
p3838
I2
sS'e'
p3839
I15
sS'Ad'
p3840
I5
sS'Af'
p3841
I4
sS'complicating'
p3842
I8
sS'3422'
p3843
I1
sS'b2df98e0'
p3844
I5
sS'unlocked'
p3845
I1
sS'consoles'
p3846
I1
sS'svc'
p3847
I5
sS'An'
p3848
I3
sS'Balsam'
p3849
I3
sS'3582175'
p3850
I2
sS'As'
p3851
I1
sS'b17e'
p3852
I1
sS'2008'
p3853
I1
sS'Splash'
p3854
I1
sS'scroll'
p3855
I3
sS'oop'
p3856
I3
sS'gt'
p3857
I1
sS'ab2daaad7bb7'
p3858
I1
sS'gq'
p3859
I4
sS'issued'
p3860
I1
sS'b055'
p3861
I1
sS'results'
p3862
I6
sS'4000003610S00002X000'
p3863
I1
sS'3ca8'
p3864
I1
sS'toggle'
p3865
I1
sS'4000017820S00017X000'
p3866
I2
sS'015'
p3867
I1
sS'ga'
p3868
I93
sS'go'
p3869
I1
sS'query'
p3870
I8
sS'Surfs'
p3871
I1
sS'95c3'
p3872
I1
sS'a3ed'
p3873
I7
sS'compact'
p3874
I4
sS'invalid'
p3875
I1
sS'Non'
p3876
I1
sS'de48ddf5ca60'
p3877
I1
sS'moneyballAdEnabled'
p3878
I1
sS'Business'
p3879
I5
sS'animHtml'
p3880
I1
sS'searchAssistTabletEnabled'
p3881
I1
sS'aria'
p3882
I35
sS'01ab9be47bed'
p3883
I1
sS'send'
p3884
I1
sS'3558'
p3885
I1
sS'dynamicEnabled'
p3886
I1
sS'attackers'
p3887
I1
sS'weather'
p3888
I26
sS'prev'
p3889
I1
sS'Nov'
p3890
I3
sS'Now'
p3891
I1
sS'6a51'
p3892
I1
sS'friendly'
p3893
I1
sS'resources'
p3894
I1
sS'SOMETHING'
p3895
I1
sS'uploaded'
p3896
I1
sS'GVFHuNbvUH5ok3bSxmCdg'
p3897
I1
sS'probe'
p3898
I8
sS'randomPromo'
p3899
I2
sS'forceSethp'
p3900
I1
sS'676be4ee'
p3901
I1
sS'portfolios'
p3902
I2
sS'Celebrity'
p3903
I3
sS'servicePath'
p3904
I1
sS'Candy'
p3905
I2
sS'8294'
p3906
I1
sS'farm1'
p3907
I2
sS'P'
p3908
I1
sS'farm3'
p3909
I1
sS'farm2'
p3910
I1
sS'farm4'
p3911
I3
sS'farm6'
p3912
I2
sS'farm8'
p3913
I1
sS'22M3'
p3914
I1
sS'ModulePlatform'
p3915
I1
sS'350b'
p3916
I1
sS'4000010990S00017X000'
p3917
I1
sS'Charlotte'
p3918
I1
sS'abcnewsplus'
p3919
I1
sS'9545'
p3920
I1
sS'positions'
p3921
I4
sS'button'
p3922
I184
sS'imgstretch'
p3923
I15
sS'e4df'
p3924
I1
sS'try'
p3925
I3
sS'race'
p3926
I1
sS'css3'
p3927
I3
sS'Why'
p3928
I5
sS'cssSAWindowMaxHeightIE6'
p3929
I1
sS'challenge'
p3930
I1
sS'bernie'
p3931
I5
sS'Turkey'
p3932
I11
sS'preload'
p3933
I1
sS'32c3'
p3934
I2
sS'cfg'
p3935
I25
sS'scrollsize'
p3936
I1
sS'6acd2b5f'
p3937
I1
sS'crop'
p3938
I1
sS'modified'
p3939
I1
sS'9flu'
p3940
I2
sS'lethal'
p3941
I1
sS'State'
p3942
I8
sS'video'
p3943
I48
sS'zz'
p3944
I10
sS'3149'
p3945
I1
sS'3A'
p3946
I13
sS'3c01'
p3947
I1
sS'news'
p3948
I61
sS'click'
p3949
I24
sS'3D'
p3950
I1
sS'3386'
p3951
I1
sS'6f23'
p3952
I1
sS'font'
p3953
I10
sS'4000001350A100S00004X000'
p3954
I1
sS'Jessica'
p3955
I7
sS'fce71ee0ff02'
p3956
I1
sS'u00ce'
p3957
I1
sS'97efd9308f4e'
p3958
I1
sS'1bae57a5b5f6'
p3959
I1
sS'Indust\xe2\x80\xa6'
p3960
I1
sS'4f294cb1'
p3961
I1
sS'f600ba5d'
p3962
I1
sS'3Ddss'
p3963
I1
sS'Orl'
p3964
I1
sS'proxyUrl'
p3965
I1
sS'Unrest'
p3966
I2
sS'bdr'
p3967
I2
sS'must\xc2\xa0check'
p3968
I1
sS'd0aa'
p3969
I1
sS'a6c9'
p3970
I1
sS'Might'
p3971
I1
sS'body'
p3972
I55
sS'err404'
p3973
I1
sS'314c'
p3974
I1
sS'chinas'
p3975
I1
sS'slingstone'
p3976
I4
sS'Light'
p3977
I2
sS'Professor'
p3978
I1
sS'446'
p3979
I1
sS'onBeforePosMsg'
p3980
I1
sS'srcElement'
p3981
I1
sS'108e'
p3982
I2
sS'Send'
p3983
I1
sS'moneyballAdPkgId'
p3984
I1
sS'b662'
p3985
I7
sS'TVLine'
p3986
I2
sS'db23774e'
p3987
I1
sS'rtTop'
p3988
I1
sS'swipeEnabled'
p3989
I1
sS'39'
p3990
I59
sS'38'
p3991
I4
sS'5bj6M2riD6A'
p3992
I1
sS'metro'
p3993
I402
sS'10d2'
p3994
I1
sS'33'
p3995
I8
sS'32'
p3996
I16
sS'31'
p3997
I6
sS'30'
p3998
I50
sS'37'
p3999
I2
sS'Back'
p4000
I2
sS'later'
p4001
I2
sS'3092'
p4002
I1
sS'3093'
p4003
I1
sS'lrec'
p4004
I4
sS'1242'
p4005
I1
sS'helpers'
p4006
I3
sS'cta'
p4007
I27
sS'oldValue'
p4008
I2
sS'markAsReadEnabled'
p4009
I1
sS'bucketSAEnabled'
p4010
I1
sS'Brand'
p4011
I1
sS'FP'
p4012
I8
sS'hpOverlay'
p4013
I1
sS'a4a3'
p4014
I1
sS'Muslim'
p4015
I2
sS'firefox'
p4016
I4
sS'39c1'
p4017
I1
sS'win'
p4018
I1
sS'app'
p4019
I257
sS'577396f2'
p4020
I1
sS'baskets'
p4021
I5
sS'defense'
p4022
I1
sS'api'
p4023
I47
sS'adID'
p4024
I3
sS'sgl'
p4025
I10
sS'FILTERBY'
p4026
I1
sS'sgn'
p4027
I2
sS'Conditions'
p4028
I2
sS'nVisit'
p4029
I1
sS'videoPlayerSec'
p4030
I1
sS'cha'
p4031
I3
sS'use'
p4032
I4
sS'from'
p4033
I8
sS'tar'
p4034
I22
sS'zip'
p4035
I1
sS'fea'
p4036
I12
sS'LESS'
p4037
I1
sS'Gunships'
p4038
I1
sS'LIVE'
p4039
I3
sS'next'
p4040
I5
sS'chr'
p4041
I3
sS'Disputes'
p4042
I1
sS'FOR'
p4043
I1
sS'usr'
p4044
I1
sS'ftrimgstretch'
p4045
I3
sS'9d73'
p4046
I1
sS'means'
p4047
I2
sS'brdr'
p4048
I2
sS'sort'
p4049
I20
sS'todaycontainer'
p4050
I14
sS'secretions'
p4051
I1
sS'1b0376d0'
p4052
I1
sS'Undo'
p4053
I2
sS'saytEnabled'
p4054
I1
sS'0feb6211'
p4055
I1
sS'sg3'
p4056
I1
sS'wizardofid'
p4057
I3
sS'Wednesday'
p4058
I1
sS'visibility'
p4059
I1
sS'120507'
p4060
I1
sS'28Russia'
p4061
I2
sS'baby'
p4062
I1
sS'53d33ab1'
p4063
I1
sS'testifies'
p4064
I1
sS'blurInput'
p4065
I3
sS'resize'
p4066
I5
sS'hints'
p4067
I2
sS'25372728133'
p4068
I3
sS'Feedback'
p4069
I1
sS'5000'
p4070
I2
sS'f'
p4071
I10
sS'ActiveXObject'
p4072
I1
sS'tease'
p4073
I6
sS'bf08'
p4074
I1
sS'85c5'
p4075
I1
sS'TODAY'
p4076
I1
sS'3757'
p4077
I1
sS'Mansons'
p4078
I2
sS'a37a'
p4079
I1
sS'restoreStateExpire'
p4080
I1
sS'meet'
p4081
I4
sS'4000018150S00008X000'
p4082
I1
sS'ca88'
p4083
I1
sS'fetch'
p4084
I3
sS'STRUCTURE'
p4085
I1
sS'6A0A8AC9'
p4086
I1
sS'point'
p4087
I1
sS'Searches'
p4088
I2
sS'Northern'
p4089
I4
sS'3639'
p4090
I4
sS'process'
p4091
I1
sS'favorite'
p4092
I4
sS'3634'
p4093
I1
sS'ww'
p4094
I4
sS'dl'
p4095
I2
sS'ac30'
p4096
I1
sS'high'
p4097
I1
sS'af89'
p4098
I1
sS'2Fwww'
p4099
I12
sS'REMOVE'
p4100
I5
sS'tab'
p4101
I44
sS'isFlickrUser'
p4102
I1
sS'OFF'
p4103
I1
sS'Struck'
p4104
I1
sS'3582151'
p4105
I2
sS'expandable'
p4106
I1
sS'native'
p4107
I3
sS'pkgid'
p4108
I6
sS'mix'
p4109
I1
sS'ojuS1dQ'
p4110
I1
sS'30345998'
p4111
I8
sS'HIV'
p4112
I6
sS'SETTINGS'
p4113
I1
sS'30345995'
p4114
I1
sS'NHL'
p4115
I2
sS'30345997'
p4116
I7
sS'30345624'
p4117
I4
sS'namespace'
p4118
I3
sS'acq'
p4119
I1
sS'30cb'
p4120
I7
sS'rmxp'
p4121
I2
sS'Beast'
p4122
I1
sS'u00c1'
p4123
I1
sS'forest'
p4124
I1
sS'sid'
p4125
I1
sS'curAd'
p4126
I3
sS'interestFiltersBroadcast'
p4127
I1
sS'comedy'
p4128
I1
sS'panic'
p4129
I1
sS'stock'
p4130
I1
sS'darlaID'
p4131
I1
sS'ABC'
p4132
I1
sS'blocks'
p4133
I1
sS'b502'
p4134
I1
sS'd402655608fa'
p4135
I1
sS'Greece'
p4136
I1
sS'29842f11d5dc'
p4137
I1
sS'Disease'
p4138
I2
sS'crsl'
p4139
I20
sS'u00c4'
p4140
I1
sS'Q'
p4141
I1
sS'alertdialog'
p4142
I3
sS'1X1'
p4143
I1
sS'1743122173'
p4144
I1
sS'u00c7'
p4145
I1
sS'1447684114'
p4146
I1
sS'msgPath'
p4147
I1
sS'npv'
p4148
I1
sS'363b'
p4149
I1
sS'SEARCH'
p4150
I1
sS'solidarity'
p4151
I1
sS'bcf4'
p4152
I1
sS'ba54'
p4153
I4
sS'bombers'
p4154
I1
sS'navrail'
p4155
I18
sS'93cd'
p4156
I3
sS'searchHiddeniconEnabled'
p4157
I1
sS'videoPlayerPipPosition'
p4158
I1
sS'counter'
p4159
I1
sS'robot'
p4160
I11
sS'interestFiltersEnabled'
p4161
I1
sS'One'
p4162
I3
sS'3d0a'
p4163
I8
sS'2ae5'
p4164
I1
sS'4000001150A100S00004X000'
p4165
I1
sS'Weather'
p4166
I7
sS'Denis'
p4167
I4
sS'player'
p4168
I2
sS'allow'
p4169
I1
sS'SPORTS'
p4170
I1
sS'762ec3ab'
p4171
I1
sS'Politics'
p4172
I2
sS'fallback'
p4173
I13
sS'30c7'
p4174
I1
sS'lrec2'
p4175
I6
sS'3a58'
p4176
I1
sS'7a0162b94f4d'
p4177
I1
sS'bd00'
p4178
I1
sS'producer'
p4179
I1
sS'YPROP'
p4180
I6
sS'a906'
p4181
I10
sS'Smith'
p4182
I1
sS'Minnesota'
p4183
I1
sS'30345990'
p4184
I5
sS'71f77b3c'
p4185
I1
sS'130'
p4186
I2
sS'including'
p4187
I1
sS'looks'
p4188
I1
sS'000315927'
p4189
I1
sS'cruise'
p4190
I1
sS'dd39cfc8'
p4191
I1
sS'9a91fc73'
p4192
I1
sS'WITH'
p4193
I1
sS'Final'
p4194
I4
sS'do'
p4195
I1
sS'bunch'
p4196
I2
sS'78bc89a3be7e4fcef556e8e4b4480882'
p4197
I1
sS'delay'
p4198
I2
sS'4000018770S00017X000'
p4199
I2
sS'3582150'
p4200
I2
sS'3582157'
p4201
I2
sS'Emergency'
p4202
I2
sS'3582154'
p4203
I2
sS'ln'
p4204
I10
sS'lo'
p4205
I1
sS'3582159'
p4206
I2
sS'882e2b4d9cb6'
p4207
I1
sS'lh'
p4208
I33
sS'li'
p4209
I515
sS'lw'
p4210
I32
sS'lt'
p4211
I2
sS'lu'
p4212
I1
sS'Blackjack'
p4213
I2
sS'ac1a'
p4214
I1
sS'd0035adb'
p4215
I1
sS'2015'
p4216
I16
sS'2014'
p4217
I4
sS'promoimg'
p4218
I1
sS'2016'
p4219
I5
sS'4000002240S00002X000'
p4220
I1
sS'flex'
p4221
I3
sS'ETonline'
p4222
I2
sS'1bfb211b'
p4223
I1
sS'Ashley'
p4224
I2
sS'smallbusiness'
p4225
I1
sS'3582101'
p4226
I2
sS'auto'
p4227
I12
sS'37f7'
p4228
I1
sS'innermost'
p4229
I1
sS'auth'
p4230
I1
sS'Cat'
p4231
I1
sS'Nickelodeon'
p4232
I1
sS'eople'
p4233
I1
sS'courtroom'
p4234
I2
sS'4c23'
p4235
I1
sS'forsearchers'
p4236
I2
sS'transparent'
p4237
I48
sS'presidential'
p4238
I1
sS'grpt'
p4239
I22
sS'84e7'
p4240
I1
sS'articles'
p4241
I1
sS'mods'
p4242
I9
sS'TEXTAREA'
p4243
I1
sS'Sam'
p4244
I1
sS'edit'
p4245
I4
sS'afp'
p4246
I1
sS'Pro'
p4247
I2
sS'nfl'
p4248
I13
sS'Kylie'
p4249
I6
sS'cscLogCSCHost'
p4250
I1
sS'Celsius'
p4251
I4
sS'mode'
p4252
I2
sS'truth'
p4253
I1
sS'RESULTS'
p4254
I1
sS'ursa'
p4255
I1
sS'FLAGTEXT'
p4256
I1
sS'u0KwSyszg'
p4257
I1
sS'Previous'
p4258
I2
sS'9119'
p4259
I1
sS'Arts'
p4260
I1
sS'activate'
p4261
I1
sS'25ee'
p4262
I1
sS'3de91c4b7498'
p4263
I1
sS'Medical'
p4264
I2
sS'Original'
p4265
I2
sS'1cUjhw0wbXmwTkb3C4o3bRVmRMWB6Fql6KZ2xdhJ0c'
p4266
I1
sS'4000025140S00008X000'
p4267
I1
sS'related'
p4268
I2
sS'Next'
p4269
I3
sS'f3a1f00a'
p4270
I1
sS'meta'
p4271
I6
sS'static'
p4272
I5
sS'658f'
p4273
I4
sS'82'
p4274
I30
sS'our'
p4275
I2
sS'China\xe2\x80\x99s'
p4276
I1
sS'36dc'
p4277
I1
sS'special'
p4278
I4
sS'out'
p4279
I3
sS'4000010490S00001X000'
p4280
I2
sS'res'
p4281
I69
sS'054418401'
p4282
I1
sS'rev'
p4283
I1
sS'bad'
p4284
I1
sS'e3cba0c41336'
p4285
I5
sS'review'
p4286
I2
sS'cb4a2a018efc44e11ed4d0a9fe1eaf97f9cc56b6'
p4287
I1
sS'e14e'
p4288
I1
sS'messenger'
p4289
I1
sS'PKG'
p4290
I1
sS'rel'
p4291
I16
sS'Baby'
p4292
I1
sS'rec'
p4293
I1
sS'creativeID'
p4294
I3
sS'cause'
p4295
I1
sS'red'
p4296
I1
sS'3pjftg'
p4297
I1
sS'YNewTab'
p4298
I1
sS'jessica'
p4299
I1
sS'3215'
p4300
I1
sS'ltxt'
p4301
I25
sS'darlaCtx'
p4302
I1
sS'CSC'
p4303
I1
sS'templ'
p4304
I1
sS'MENU'
p4305
I1
sS'a1fe'
p4306
I1
sS'completely'
p4307
I1
sS'8469'
p4308
I1
sS'YXBwaWQ9eWhvbWVydW47cT04NTtzbT0xO3c9MzgwO2g9Mzgw'
p4309
I1
sS'7a50447c'
p4310
I1
sS'YXBwaWQ9eWhvbWVydW47cT04NTtzbT0xO3c9NTgwO2g9NDUy'
p4311
I1
sS'8f4baa0e4ae0'
p4312
I1
sS'0fjpd1db4occ5'
p4313
I3
sS'1298'
p4314
I1
sS'ltr'
p4315
I2
sS'4000009240S00001X000'
p4316
I1
sS'df0640fd'
p4317
I1
sS'bcb6'
p4318
I1
sS'g'
p4319
I498
sS'a097f3434d'
p4320
I1
sS'via'
p4321
I3
sS'deprecated'
p4322
I3
sS'could'
p4323
I3
sS'Celebrities'
p4324
I5
sS'yltClickSuggestion'
p4325
I2
sS'keep'
p4326
I1
sS'YycLYt0WBssJTOpN'
p4327
I1
sS'pvid'
p4328
I1
sS'length'
p4329
I5
sS'abc7'
p4330
I1
sS'a567'
p4331
I1
sS'tpbURI'
p4332
I1
sS'retail'
p4333
I1
sS'ad68'
p4334
I1
sS'week\xe2\x80\x99s'
p4335
I1
sS'Pause'
p4336
I2
sS'e36e'
p4337
I1
sS'f7f7'
p4338
I1
sS'BUCKET'
p4339
I1
sS'isInitialized'
p4340
I1
sS'videoPlayerMute'
p4341
I1
sS'alleged'
p4342
I1
sS'142px'
p4343
I2
sS'32fb'
p4344
I1
sS'362a'
p4345
I1
sS'Local'
p4346
I2
sS'Careers'
p4347
I2
sS'mouseover'
p4348
I1
sS'inlineLightboxEnabled'
p4349
I2
sS'wthr'
p4350
I1
sS'YXBwaWQ9eWhvbWVydW47cT04NTtzbT0xO3c9NDA7aD00MA'
p4351
I3
sS'nomination'
p4352
I2
sS'4000002190S00002X000'
p4353
I1
sS'accent'
p4354
I10
sS'system'
p4355
I1
sS'wrapper'
p4356
I64
sS'fahrenheit'
p4357
I4
sS'313'
p4358
I2
sS'attack'
p4359
I12
sS'MAST'
p4360
I12
sS'ad63'
p4361
I1
sS'b625'
p4362
I1
sS'man'
p4363
I5
sS'final'
p4364
I4
sS'Association'
p4365
I8
sS'interests'
p4366
I4
sS'414071b35ab8'
p4367
I1
sS'Success'
p4368
I1
sS'39e0439060b4'
p4369
I5
sS'4000008310S00001X000'
p4370
I1
sS'matches'
p4371
I1
sS'duration'
p4372
I3
sS'nobody'
p4373
I1
sS'This'
p4374
I3
sS'3aef'
p4375
I1
sS'sBdrFocusClass'
p4376
I2
sS'biggest'
p4377
I3
sS'rsz'
p4378
I11
sS'4000013050S00008X000'
p4379
I1
sS'France'
p4380
I11
sS'haven'
p4381
I1
sS'dependent'
p4382
I1
sS'isRecognizedState'
p4383
I1
sS'9871fd02'
p4384
I1
sS'OMG'
p4385
I1
sS'10img'
p4386
I11
sS'analytics'
p4387
I1
sS'playIconHoverEnabled'
p4388
I1
sS'166'
p4389
I1
sS'b3a1'
p4390
I1
sS'KR'
p4391
I6
sS'5G9Ijr8xbQ'
p4392
I1
sS'injured'
p4393
I1
sS'4000007220S00001X000'
p4394
I1
sS'frontrunner'
p4395
I1
sS'151117'
p4396
I4
sS'referral'
p4397
I1
sS'showdate'
p4398
I1
sS'false'
p4399
I96
sS'richview'
p4400
I1
sS'tabs'
p4401
I7
sS'Pay'
p4402
I1
sS'b0c91e9348'
p4403
I1
sS'Results'
p4404
I1
sS'8af9'
p4405
I1
sS'4000010510S00001X000'
p4406
I1
sS'defending'
p4407
I1
sS'have'
p4408
I4
sS'Reply'
p4409
I2
sS'Interview'
p4410
I2
sS'usePE'
p4411
I1
sS'Soccer'
p4412
I2
sS'border'
p4413
I3
sS'Kremlin'
p4414
I1
sS'viewed'
p4415
I1
sS'trackInitComet'
p4416
I1
sS'instrumentation'
p4417
I3
sS'bucketid'
p4418
I1
sS'min'
p4419
I8
sS'COMICS'
p4420
I1
sS'den2'
p4421
I1
sS'After'
p4422
I1
sS'85b7'
p4423
I1
sS'si'
p4424
I3
sS'5242'
p4425
I1
sS'makeover'
p4426
I2
sS'instance'
p4427
I26
sS'Tennessee'
p4428
I1
sS'read'
p4429
I1
sS'1f40'
p4430
I1
sS'which'
p4431
I3
sS'4000000000S00016X000'
p4432
I1
sS'3e79'
p4433
I2
sS'YXBwaWQ9eWhvbWVydW47cT04NTtzbT0xO3c9MTgwO2g9MTM1'
p4434
I3
sS'Wpg'
p4435
I1
sS'mit'
p4436
I49
sS'22fd90b35170'
p4437
I1
sS'b91ad96ba826'
p4438
I1
sS'a302'
p4439
I1
sS'modulesec'
p4440
I12
sS'expires'
p4441
I1
sS'3625'
p4442
I1
sS'00'
p4443
I16
sS'parenting'
p4444
I6
sS'4000005800S00001X000'
p4445
I1
sS'Games'
p4446
I4
sS'pym'
p4447
I1
sS'Enter'
p4448
I6
sS'device'
p4449
I1
sS'masthead'
p4450
I21
sS'strategic\xe2\x80\xa6'
p4451
I1
sS'DESCRIPTION'
p4452
I1
sS'class'
p4453
I1705
sS'fa787a7e'
p4454
I1
sS'i13nReason'
p4455
I1
sS'50ec4f0d30e6'
p4456
I1
sS'30345610'
p4457
I8
sS'gma'
p4458
I2
sS'ura'
p4459
I1
sS'fb7130644538'
p4460
I1
sS'url'
p4461
I132
sS'pulled'
p4462
I1
sS'b354f165'
p4463
I1
sS'gather'
p4464
I1
sS'Some'
p4465
I1
sS'uri'
p4466
I3
sS'r2H2eXI7uYTL99iZIygODQ'
p4467
I1
sS'High'
p4468
I4
sS'3582082'
p4469
I2
sS'moneyball'
p4470
I2
sS'SILICONALLEY'
p4471
I3
sS'pictures'
p4472
I1
sS'constrain'
p4473
I3
sS'Islam'
p4474
I1
sS'ae54'
p4475
I1
sS'08'
p4476
I6
sS'38f1ca0baacd'
p4477
I1
sS'FPAD'
p4478
I3
sS'340a'
p4479
I1
sS'121210'
p4480
I4
sS'3a86'
p4481
I1
sS'340e'
p4482
I1
sS'Den'
p4483
I1
sS'af73'
p4484
I1
sS'Paris'
p4485
I27
sS'text'
p4486
I29
sS'Lake'
p4487
I2
sS'spanking'
p4488
I1
sS'rotationDelay'
p4489
I1
sS'Rangers'
p4490
I1
sS'BGR'
p4491
I1
sS'1189'
p4492
I1
sS'parked'
p4493
I2
sS'a91a'
p4494
I1
sS'portfolio'
p4495
I1
sS'tsrc'
p4496
I2
sS'024516304'
p4497
I1
sS'Public'
p4498
I1
sS'Math'
p4499
I4
sS'partners'
p4500
I1
sS'3pas'
p4501
I1
sS'631e'
p4502
I1
sS'4efa72237dec'
p4503
I1
sS'HTML5'
p4504
I1
sS'9202'
p4505
I1
sS'team1'
p4506
I16
sS'team2'
p4507
I16
sS'Surfer'
p4508
I1
sS'buttons'
p4509
I22
sS'b362'
p4510
I1
sS'game4'
p4511
I2
sS'York'
p4512
I6
sS'5px'
p4513
I2
sS'combo'
p4514
I11
sS'origHeight'
p4515
I3
sS'ninechickweedlane'
p4516
I3
sS'uncompressed'
p4517
I1
sS'local'
p4518
I4
sS'jac'
p4519
I2
sS'93e6'
p4520
I1
sS'Homes'
p4521
I1
sS'hellogiggles'
p4522
I2
sS'hack'
p4523
I1
sS'handle'
p4524
I3
sS'harmed'
p4525
I1
sS'familiar'
p4526
I2
sS'63826'
p4527
I1
sS'ecfd8cc5'
p4528
I1
sS'beap'
p4529
I3
sS'vehicles'
p4530
I2
sS'120'
p4531
I3
sS'couric'
p4532
I1
sS'043823292'
p4533
I1
sS'hjsal'
p4534
I1
sS'Stories'
p4535
I3
sS'3cda'
p4536
I1
sS'127'
p4537
I1
sS'timing'
p4538
I1
sS'129'
p4539
I2
sS'moduleList'
p4540
I3
sS'bL7WFyDOfTusCtRycPaksUqFXnyvsVtoToOYS2OE7w2m5d2aT'
p4541
I1
sS'endless'
p4542
I1
sS'4000018080S00002X000'
p4543
I2
sS'Because'
p4544
I1
sS'5c35'
p4545
I2
sS'Ten'
p4546
I1
sS'3582146'
p4547
I2
sS'3582147'
p4548
I2
sS'Views'
p4549
I1
sS'h'
p4550
I74
sS'7cc15a03f0c3'
p4551
I1
sS'forceIpLocation'
p4552
I2
sS'4000024900S00008X000'
p4553
I1
sS'teams'
p4554
I49
sS'TheDailyBeast'
p4555
I1
sS'default'
p4556
I348
sS'myservice'
p4557
I1
sS'stuff'
p4558
I1
sS'NzDxHbrbiIVljo0EZJh0Ow'
p4559
I1
sS'grad'
p4560
I6
sS'keyCode'
p4561
I1
sS'ylogin'
p4562
I5
sS'view'
p4563
I104
sS'withstand'
p4564
I1
sS'HelloGiggles'
p4565
I2
sS'3323991a'
p4566
I1
sS'2d25d4e4'
p4567
I1
sS'rsch'
p4568
I1
sS'bucket'
p4569
I3
sS'national'
p4570
I2
sS'lazy'
p4571
I3
sS'module'
p4572
I36
sS'10e0'
p4573
I1
sS'5a93ee3d'
p4574
I6
sS'intensity'
p4575
I1
sS'243b'
p4576
I1
sS'violet'
p4577
I2
sS'9658'
p4578
I1
sS'btn'
p4579
I64
sS'Sisterhood'
p4580
I1
sS'apiMigrationMode'
p4581
I1
sS'tl1'
p4582
I5
sS'8c7e'
p4583
I1
sS'recognizedState'
p4584
I3
sS'1b9662c2260d'
p4585
I1
sS'bkt901'
p4586
I1
sS'Ariane'
p4587
I1
sS'5093'
p4588
I1
sS'82358dc2'
p4589
I1
sS'c36554efb37b7526c4d0c7a7ed37db93'
p4590
I1
sS'discounts'
p4591
I1
sS'state'
p4592
I54
sS'2ac84f25'
p4593
I1
sS'gKfaDuu'
p4594
I1
sS'flickr'
p4595
I41
sS'email'
p4596
I2
sS'a7c9'
p4597
I1
sS'ends'
p4598
I2
sS'1347682962'
p4599
I2
sS'TOOLTIP'
p4600
I1
sS'9616a9e2'
p4601
I1
sS'4000006100S00001X000'
p4602
I1
sS'ld'
p4603
I3
sS'73bed58557fb'
p4604
I1
sS'the\xe2\x80\xa6'
p4605
I1
sS'S'
p4606
I7
sS'3582099'
p4607
I2
sS'key'
p4608
I2
sS'4e0f'
p4609
I1
sS'Raid'
p4610
I1
sS'adcamp'
p4611
I11
sS'modules'
p4612
I2
sS'4000006180S00002X000'
p4613
I1
sS'Anchor'
p4614
I1
sS'Gaushpy'
p4615
I1
sS'observable'
p4616
I6
sS'645339415663'
p4617
I2
sS'Firefox'
p4618
I1
sS'plugin'
p4619
I3
sS'career'
p4620
I1
sS'la'
p4621
I4
sS'tabpanels'
p4622
I2
sS'Pathogenic'
p4623
I3
sS'cf3ac2c88e986a99181a81f554a870f5'
p4624
I1
sS'f97b41ec'
p4625
I1
sS'Tiny'
p4626
I2
sS'3szOZmu25R'
p4627
I1
sS'clientPagination'
p4628
I1
sS'murder'
p4629
I1
sS'queryDelay'
p4630
I1
sS'safely'
p4631
I1
sS'll'
p4632
I7
sS'OMt8dkt4N3fp2fhaNaEf0w'
p4633
I1
sS'onFinishPosRender'
p4634
I1
sS'cj'
p4635
I1
sS'relevant'
p4636
I2
sS'co'
p4637
I2
sS'cn'
p4638
I2
sS'Her'
p4639
I1
sS'cl'
p4640
I21
sS'logOutMsgDly'
p4641
I1
sS'3582096'
p4642
I2
sS'74a57b6f5623'
p4643
I1
sS'panel2'
p4644
I1
sS'66472fea98e9'
p4645
I1
sS'cf'
p4646
I110
sS'cd'
p4647
I3
sS'Los'
p4648
I5
sS'fbAcctLinked'
p4649
I1
sS'offlead'
p4650
I10
sS'Music'
p4651
I2
sS'Low'
p4652
I4
sS'INPUT'
p4653
I1
sS'cs'
p4654
I11
sS'respect'
p4655
I1
sS'Holiday'
p4656
I2
sS'cw'
p4657
I1
sS'rpl'
p4658
I1
sS'bdc5'
p4659
I1
sS'ct'
p4660
I241
sS'2000'
p4661
I2
sS'0fb21a8f'
p4662
I1
sS'b742'
p4663
I1
sS'1425'
p4664
I1
sS'quip'
p4665
I1
sS'Get'
p4666
I4
sS'like\xe2\x80\xa6'
p4667
I1
sS'purbtn'
p4668
I2
sS'6aa4'
p4669
I1
sS'af'
p4670
I17
sS'Yahoo'
p4671
I41
sS'IE6'
p4672
I4
sS'4Dff76upGLj8PqHw0AzNaQ'
p4673
I1
sS'Brooklyn'
p4674
I1
sS'4000006460S00001X000'
p4675
I1
sS'Stephen'
p4676
I7
sS'Colorado'
p4677
I2
sS'triggerCustomTiming'
p4678
I1
sS'Toronto'
p4679
I1
sS'lgn'
p4680
I10
sS'Of'
p4681
I4
sS'a107'
p4682
I4
sS'lq'
p4683
I1
sS'bc7a'
p4684
I5
sS'WIKIID'
p4685
I107
sS'c209'
p4686
I1
sS'roasting'
p4687
I5
sS'coordinated'
p4688
I1
sS'4000006560S00001X000'
p4689
I1
sS'adop'
p4690
I11
sS'BrandNew'
p4691
I1
sS'Navigation'
p4692
I1
sS'aefb'
p4693
I1
sS'locales'
p4694
I1
sS'c4'
p4695
I4
sS'77b9930cef98'
p4696
I6
sS'homes'
p4697
I6
sS'V9CcRGE9G7HJxPtpGDUE6Ot'
p4698
I1
sS'Force'
p4699
I1
sS'4000013300S00008X000'
p4700
I1
sS'removeCta'
p4701
I1
sS'bb80'
p4702
I1
sS'ysb'
p4703
I1
sS'align'
p4704
I5
sS'9c253e5e3ac7'
p4705
I1
sS'Espa\xc3\xb1ol'
p4706
I1
sS'Number'
p4707
I2
sS'value'
p4708
I21
sS'cvn'
p4709
I1
sS'bookends'
p4710
I2
sS'20T01'
p4711
I1
sS'intro'
p4712
I3
sS'encountered'
p4713
I3
sS'TEMPLATE'
p4714
I5
sS'6a6bd422'
p4715
I7
sS'Keesssss'
p4716
I1
sS'Bomber'
p4717
I1
sS'7be3a48e3134'
p4718
I1
sS'SIDE'
p4719
I1
sS'wave3badge'
p4720
I1
sS'archie'
p4721
I1
sS'va'
p4722
I102
sS'group'
p4723
I3
sS've'
p4724
I5
sS'helper'
p4725
I3
sS'resident'
p4726
I1
sS'navigationtime'
p4727
I1
sS'site'
p4728
I1
sS'hw6'
p4729
I1
sS'removeCtaCancelBtn'
p4730
I1
sS'vs'
p4731
I1
sS'cometd'
p4732
I3
sS'Mathematics'
p4733
I3
sS'd1183807'
p4734
I1
sS'Vero'
p4735
I1
sS'You'
p4736
I5
sS'9d5c'
p4737
I1
sS'Beach'
p4738
I1
sS'9f3f'
p4739
I1
sS'halt'
p4740
I14
sS'jenner'
p4741
I1
sS'4000003650S00002X000'
p4742
I1
sS'education'
p4743
I3
sS'magpromote'
p4744
I9
sS'jQhurS9RkNqsOs1v9PItow'
p4745
I1
sS'woeid'
p4746
I31
sS'6ce03d89'
p4747
I1
sS'4000008450S00001X000'
p4748
I1
sS'fpctx'
p4749
I8
sS'cross'
p4750
I1
sS'Bear'
p4751
I2
sS'highlighted'
p4752
I1
sS'6dcf'
p4753
I1
sS'pkgt'
p4754
I58
sS'Tupolev'
p4755
I1
sS'c07ecd6c'
p4756
I1
sS'saveEnabled'
p4757
I1
sS'9f05'
p4758
I1
sS'AdChoices'
p4759
I3
sS'utos'
p4760
I1
sS'difficult'
p4761
I1
sS'843dec01'
p4762
I6
sS'http'
p4763
I224
sS'fdf8'
p4764
I1
sS'70ea81bb'
p4765
I1
sS'Ride'
p4766
I1
sS'filterRestoreEnabled'
p4767
I1
sS'yjsonp'
p4768
I2
sS'messagesEnabled'
p4769
I1
sS'v1'
p4770
I2
sS'v2'
p4771
I1
sS'BUTTON'
p4772
I2
sS'c32ae19662ec'
p4773
I1
sS'cmnt'
p4774
I7
sS'8539cdcc9051'
p4775
I1
sS'TwoFores'
p4776
I1
sS'30345818'
p4777
I5
sS'Houston'
p4778
I1
sS'off'
p4779
I13
sS'adsMAST'
p4780
I2
sS'b43ba3abd65e'
p4781
I1
sS'i'
p4782
I358
sS'SouthKorea'
p4783
I4
sS'u00c6'
p4784
I1
sS'adsfallback'
p4785
I14
sS'11619513824'
p4786
I2
sS'resourcemgr'
p4787
I3
sS'Makers'
p4788
I1
sS'Fantasy'
p4789
I4
sS'9885'
p4790
I1
sS'Horoscopes'
p4791
I4
sS'3988'
p4792
I7
sS'oops'
p4793
I12
sS'cssFontSizeSAYT'
p4794
I1
sS'Need'
p4795
I1
sS'position'
p4796
I19
sS'Total'
p4797
I1
sS'9e20'
p4798
I1
sS'Bkn'
p4799
I1
sS'latest'
p4800
I1
sS'Jenner'
p4801
I11
sS'44cee4cc86d5'
p4802
I1
sS'bottom'
p4803
I4
sS'4b3969ce'
p4804
I1
sS'848e5891ef'
p4805
I1
sS'001000031'
p4806
I5
sS'percent'
p4807
I2
sS'executive'
p4808
I1
sS'Trigger'
p4809
I1
sS'3a9f'
p4810
I1
sS'select'
p4811
I2
sS'van2'
p4812
I1
sS'40'
p4813
I27
sS'DEAR'
p4814
I1
sS'f6da8a64'
p4815
I1
sS'589e51d9'
p4816
I4
sS'8c8b2f7a4d75'
p4817
I1
sS'adv'
p4818
I3
sS'web'
p4819
I5
sS'wea'
p4820
I14
sS'rapid'
p4821
I81
sS'qjYvA'
p4822
I1
sS'ads'
p4823
I53
sS'36f4'
p4824
I1
sS'b44e37c8'
p4825
I1
sS'NiyVBGdjaDvNAkb7jvKouA'
p4826
I1
sS'30345979'
p4827
I1
sS'30345978'
p4828
I7
sS'YouTube'
p4829
I1
sS'142x37'
p4830
I1
sS'locdrop'
p4831
I4
sS'spinner'
p4832
I2
sS'simple'
p4833
I6
sS'add'
p4834
I3
sS'combine'
p4835
I2
sS'attractive'
p4836
I1
sS'Deeply'
p4837
I1
sS'videoPlayerStopRelated'
p4838
I1
sS'pkgIds'
p4839
I1
sS'FIRST'
p4840
I1
sS'noclick'
p4841
I52
sS'By'
p4842
I1
sS'match'
p4843
I10
sS'4000017580S00008X000'
p4844
I2
sS'css2'
p4845
I3
sS'3a92'
p4846
I1
sS'KvsgQH7'
p4847
I1
sS'government'
p4848
I1
sS'dest'
p4849
I4
sS'reqList'
p4850
I1
sS'ca565d5a'
p4851
I1
sS'86a8'
p4852
I1
sS'jvmajed5yygwv1'
p4853
I1
sS'aba3'
p4854
I1
sS'260'
p4855
I1
sS'4000023860S00017X000'
p4856
I2
sS'whatever'
p4857
I1
sS'31ceb3c7'
p4858
I2
sS'press'
p4859
I1
sS'loader'
p4860
I9
sS'ff432618d130'
p4861
I1
sS'89e8'
p4862
I1
sS'adPosition'
p4863
I1
sS'zzGxOLlsB68EEwIHaicFOm3dl5oSFbRGq'
p4864
I1
sS'Fashion'
p4865
I2
sS'England'
p4866
I1
sS'like'
p4867
I36
sS'lost'
p4868
I1
sS'Lights'
p4869
I4
sS'11px'
p4870
I2
sS'future'
p4871
I3
sS'candy'
p4872
I1
sS'd7035462'
p4873
I4
sS'jacob340'
p4874
I1
sS'recentFiltersEnabled'
p4875
I1
sS'be7f58af'
p4876
I1
sS'enableSettingspane'
p4877
I1
sS'4000004800S00008X000'
p4878
I1
sS'become'
p4879
I6
sS'works'
p4880
I1
sS'refugees'
p4881
I6
sS'page'
p4882
I3
sS'suddenly'
p4883
I1
sS'sdaRefreshEnabled'
p4884
I1
sS'6e5f'
p4885
I1
sS'unable'
p4886
I1
sS'12px'
p4887
I1
sS'classical'
p4888
I22
sS'njd'
p4889
I3
sS'twitter'
p4890
I7
sS'986'
p4891
I1
sS'Great'
p4892
I1
sS'4000005960S00002X000'
p4893
I1
sS'115'
p4894
I23
sS'requestId'
p4895
I1
sS'001b784d35e1'
p4896
I1
sS'552c'
p4897
I1
sS'111'
p4898
I1
sS'110'
p4899
I2
sS'posItem'
p4900
I7
sS'home'
p4901
I7
sS'Newly'
p4902
I1
sS'animPausedState'
p4903
I1
sS'99ea'
p4904
I1
sS'7879'
p4905
I1
sS'transport'
p4906
I9
sS'tmp'
p4907
I1
sS'3582179'
p4908
I2
sS'Billabong'
p4909
I2
sS'lead'
p4910
I1
sS'overlay'
p4911
I30
sS'ucomics'
p4912
I1
sS'3582176'
p4913
I2
sS'3582171'
p4914
I2
sS'3582170'
p4915
I2
sS'tooltip'
p4916
I7
sS'War'
p4917
I3
sS'0bf72108067e'
p4918
I1
sS'does'
p4919
I7
sS'passion'
p4920
I1
sS'587910c9602a'
p4921
I1
sS'gettheapp'
p4922
I1
sS'51225ce442fc'
p4923
I1
sS'topvideos'
p4924
I19
sS'leader'
p4925
I2
sS'8919dbc2aaf5'
p4926
I1
sS'dcn'
p4927
I1
sS'GSPC'
p4928
I1
sS'3582194'
p4929
I2
sS'99e9'
p4930
I1
sS'3582191'
p4931
I4
sS'indexOf'
p4932
I3
sS'SCIENCE'
p4933
I1
sS'Hobbies'
p4934
I1
sS'Up'
p4935
I2
sS'YCT'
p4936
I71
sS'CharlieS'
p4937
I1
sS'host'
p4938
I5
sS'30f0'
p4939
I1
sS'containing'
p4940
I1
sS'addthis'
p4941
I1
sS'MASTHEAD'
p4942
I3
sS'32ce'
p4943
I1
sS'slug'
p4944
I1
sS'scorecardresearch'
p4945
I1
sS'panel'
p4946
I20
sS'Kendall'
p4947
I6
sS'a1'
p4948
I1
sS'about'
p4949
I10
sS'4000002390A100S00004X000'
p4950
I1
sS'chromecolor'
p4951
I41
sS'webRichPanelUrl'
p4952
I1
sS'Jordy'
p4953
I1
sS'promoCode'
p4954
I1
sS'222436209'
p4955
I2
sS'US'
p4956
I18
sS'important'
p4957
I4
sS'topheadlines'
p4958
I15
sS'lazyScriptList'
p4959
I2
sS'UE'
p4960
I2
sS'puppies'
p4961
I6
sS'tongue'
p4962
I1
sS'160434745'
p4963
I1
sS'AmyCapetta'
p4964
I1
sS'4000007580S00001X000'
p4965
I1
sS'TakePart'
p4966
I2
sS'b65573abdd35'
p4967
I1
sS'keeps'
p4968
I1
sS'h2'
p4969
I30
sS'h3'
p4970
I100
sS'booed'
p4971
I1
sS'h1'
p4972
I2
sS'c045'
p4973
I1
sS'Two'
p4974
I1
sS'h4'
p4975
I20
sS'dmaName'
p4976
I1
sS'guard'
p4977
I2
sS'gtaa'
p4978
I1
sS'crwiz'
p4979
I1
sS'3dfa'
p4980
I1
sS'registration'
p4981
I1
sS'Calgary'
p4982
I1
sS'bannerid'
p4983
I1
sS'showdrawer'
p4984
I2
sS'4000008970S00002X000'
p4985
I1
sS'van'
p4986
I3
sS'Finance'
p4987
I7
sS'0773'
p4988
I1
sS'friends'
p4989
I2
sS'Qb668gWIHQpPVh1ft2mMYQ'
p4990
I1
sS'Amy'
p4991
I1
sS'8823'
p4992
I1
sS'pa'
p4993
I5
sS'inner'
p4994
I2
sS'var'
p4995
I26
sS'November'
p4996
I3
sS'HISTORY'
p4997
I1
sS'3fd3'
p4998
I1
sS'3abd'
p4999
I6
sS'pg'
p5000
I34
sS'function'
p5001
I27
sS'35a5c2a0'
p5002
I7
sS'buy'
p5003
I1
sS'north'
p5004
I2
sS'interest'
p5005
I103
sS'cookieValue'
p5006
I4
sS'hr'
p5007
I2
sS'Science'
p5008
I1
sS'hp'
p5009
I4
sS'pe'
p5010
I1
sS'Well'
p5011
I1
sS'84450bfce78d'
p5012
I1
sS'46d8bc7e763b'
p5013
I1
sS'NASDAQ'
p5014
I1
sS'hl'
p5015
I2
sS'subscribeTimeout'
p5016
I1
sS'overflow'
p5017
I1
sS'b93f'
p5018
I1
sS'hd'
p5019
I20
sS'he'
p5020
I7
sS'count'
p5021
I62
sS'981df436'
p5022
I1
sS'c12b1cf46caf'
p5023
I1
sS'Luann'
p5024
I1
sS'8c6e'
p5025
I7
sS'temp'
p5026
I12
sS'cscPath'
p5027
I1
sS'j'
p5028
I20
sS'currentBucket'
p5029
I2
sS'4e88c023'
p5030
I1
sS'Walt'
p5031
I1
sS'4000017450S00017X000'
p5032
I2
sS'newsearch'
p5033
I2
sS'stories'
p5034
I10
sS'empty'
p5035
I11
sS'saData'
p5036
I1
sS'3c37'
p5037
I4
sS'9961'
p5038
I6
sS'problem'
p5039
I3
sS'b380'
p5040
I1
sS'minutes'
p5041
I2
sS'display'
p5042
I2
sS'c3b3761ccb01'
p5043
I1
sS'\xc2\xbb'
p5044
I1
sS'block'
p5045
I3
sS'2e24ecee'
p5046
I1
sS'8174'
p5047
I1
sS'links'
p5048
I1
sS'sanders'
p5049
I5
sS'af10a3075685'
p5050
I1
sS'settingsUrl'
p5051
I2
sS'universal'
p5052
I5
sS'smartphones'
p5053
I1
sS'myt'
p5054
I1
sS'shoppers'
p5055
I1
sS'persistent'
p5056
I1
sS'1447833989'
p5057
I2
sS'346c'
p5058
I1
sS'Vancouver'
p5059
I1
sS'30b6'
p5060
I1
sS'3a45'
p5061
I1
sS'MSG'
p5062
I1
sS'NEWS'
p5063
I1
sS'slcfltr'
p5064
I50
sS'ADSTART'
p5065
I1
sS'36de'
p5066
I1
sS'Or'
p5067
I1
sS'ccode'
p5068
I102
sS'keepLocation'
p5069
I1
sS'001000427'
p5070
I3
sS'3582181'
p5071
I2
sS'Landes'
p5072
I1
sS'48'
p5073
I2
sS'49'
p5074
I10
sS'46'
p5075
I3
sS'47'
p5076
I3
sS'44'
p5077
I8
sS'Million'
p5078
I1
sS'42'
p5079
I6
sS'43'
p5080
I2
sS'Wells'
p5081
I2
sS'noncntr'
p5082
I1
sS'Islamic'
p5083
I6
sS'f23b80fabb'
p5084
I1
sS'gossip'
p5085
I4
sS'bc9'
p5086
I3
sS'hpc'
p5087
I1
sS'htmlparser'
p5088
I6
sS'Story'
p5089
I1
sS'yahoofrontpageapp'
p5090
I4
sS'Jacksonville'
p5091
I1
sS'VzT'
p5092
I1
sS'Loss'
p5093
I1
sS'4000008090S00001X000'
p5094
I1
sS'repeat'
p5095
I2
sS'star'
p5096
I5
sS'Like'
p5097
I1
sS'insertBefore'
p5098
I1
sS'cscHTML'
p5099
I3
sS'Remove'
p5100
I46
sS'stay'
p5101
I1
sS'06ea9a2a'
p5102
I1
sS'ba'
p5103
I25
sS'U'
p5104
I7
sS'a5pefpNPoLGZFQK7y3eQ1Q'
p5105
I1
sS'\xe2\x80\xa6'
p5106
I3
sS'N'
p5107
I2
sS'mastermind'
p5108
I2
sS'needed'
p5109
I1
sS'South'
p5110
I14
sS'channelNodeId'
p5111
I5
sS'markup'
p5112
I1
sS'\xe2\x80\x94'
p5113
I1
sS'4t'
p5114
I1
sS'47ad50753f67'
p5115
I1
sS'\xe2\x80\x9d'
p5116
I1
sS'lasted'
p5117
I1
sS'maxHeight'
p5118
I2
sS'hintswitch'
p5119
I1
sS'3195'
p5120
I1
sS'extras'
p5121
I3
sS'5267cd30'
p5122
I1
sS'Cambodian'
p5123
I3
sS'sst'
p5124
I1
sS'sasb'
p5125
I2
sS'tnmod'
p5126
I5
sS'defend'
p5127
I1
s.