(dp0
S'scorecardresearch'
p1
I1
sS'Friday'
p2
I2
sS'f4d505e4366be73ad7bf22e7a036a934'
p3
I1
sS'DZhuasBVZKgvQV2YbmrA'
p4
I1
sS'dynamic'
p5
I1
sS'NYJ'
p6
I1
sS'164'
p7
I2
sS'prefix'
p8
I1
sS'bcookie'
p9
I4
sS'Olympics'
p10
I6
sS'playpause'
p11
I1
sS'Decorations'
p12
I1
sS'inpt'
p13
I11
sS'37bb'
p14
I1
sS'mdsfb'
p15
I82
sS'err'
p16
I4
sS'feeding'
p17
I2
sS'165121874'
p18
I1
sS'a08a'
p19
I1
sS'aa38'
p20
I1
sS'YahooPremiumPart'
p21
I1
sS'5e777b51d5e5'
p22
I1
sS'Honda'
p23
I2
sS'30345807'
p24
I5
sS'df221c09dc05fa35f79675def43ca559'
p25
I1
sS'9bc0'
p26
I1
sS'340'
p27
I1
sS'under'
p28
I3
sS'339e'
p29
I1
sS'BMW'
p30
I4
sS'6188205ab9f4'
p31
I6
sS'328e'
p32
I1
sS'XnCX1WW1CmDsMM02AEeA'
p33
I1
sS'6d67e342'
p34
I1
sS'b827'
p35
I1
sS'fieldset'
p36
I3
sS'rescue'
p37
I2
sS'37b4'
p38
I1
sS'interestFiltersEnabled'
p39
I1
sS'void'
p40
I1
sS'rise'
p41
I1
sS'13838465'
p42
I23
sS'GB'
p43
I1
sS'u00d3'
p44
I1
sS'rtJSLoad'
p45
I1
sS'special'
p46
I1
sS'four'
p47
I3
sS'school'
p48
I3
sS'1f2f'
p49
I3
sS'30345940'
p50
I5
sS'privateCometHost'
p51
I1
sS'Internet'
p52
I1
sS'supports'
p53
I4
sS'bcbd'
p54
I1
sS'14580105'
p55
I1
sS'upc'
p56
I20
sS'b285'
p57
I1
sS'3d19'
p58
I1
sS'0d077712'
p59
I1
sS'Chrissy'
p60
I3
sS'667fe876'
p61
I1
sS'globalfinance'
p62
I3
sS'to\xc2\xa0go'
p63
I1
sS'BGRNews'
p64
I1
sS'Go'
p65
I3
sS'301e'
p66
I1
sS'cms'
p67
I2
sS'heading'
p68
I26
sS'crbc'
p69
I1
sS'BTAeFV4'
p70
I1
sS'Turkish'
p71
I1
sS'lzbg'
p72
I54
sS'ef80f393'
p73
I1
sS'ce1e21298d80'
p74
I1
sS'1402544433026'
p75
I3
sS'92b7'
p76
I1
sS'3EKMgFTmnTFMXnF7E0kPcA'
p77
I1
sS'Christie'
p78
I2
sS'xdVW6vOT54lrh6nWfefWYw'
p79
I1
sS'batch'
p80
I2
sS'5a10a837c103'
p81
I1
sS'searchGreyiconEnabled'
p82
I1
sS'ac185b10'
p83
I1
sS'4520'
p84
I1
sS'ce7c'
p85
I1
sS'bootstrap'
p86
I1
sS'blue'
p87
I41
sS'3b3c'
p88
I1
sS'resultLen'
p89
I3
sS'hide'
p90
I5
sS'304P1RWX1C0qC'
p91
I1
sS'91295977'
p92
I1
sS'DZhuasBV9UkoQV2YbmrA'
p93
I1
sS'260'
p94
I1
sS'selected'
p95
I22
sS'spoke'
p96
I1
sS'efe43c2d'
p97
I1
sS'NYG'
p98
I1
sS'This'
p99
I3
sS'sda2'
p100
I1
sS'animPauseBeacon'
p101
I1
sS'blur'
p102
I3
sS'new'
p103
I17
sS'net'
p104
I3
sS'ever'
p105
I2
sS'e100'
p106
I1
sS'bQ2eDhx7272LgnACWQorGA'
p107
I1
sS'22870543724'
p108
I2
sS'med'
p109
I5
sS'widget'
p110
I56
sS'hero'
p111
I4
sS'9525'
p112
I1
sS'sugg'
p113
I2
sS'never'
p114
I4
sS'requestUrl'
p115
I1
sS'here'
p116
I2
sS'Swimsuit'
p117
I1
sS'ae02'
p118
I1
sS'reported'
p119
I1
sS'541e56a1'
p120
I1
sS'109'
p121
I2
sS'ADSDISLIKE'
p122
I2
sS'3cfd'
p123
I1
sS'102'
p124
I2
sS'path'
p125
I47
sS'100'
p126
I23
sS'120x48'
p127
I5
sS'placeholder'
p128
I3
sS'sethpPromoShare'
p129
I2
sS'deferredResDelay'
p130
I1
sS'77b921ef7aa9'
p131
I1
sS'metrologger'
p132
I4
sS'paramLocation'
p133
I1
sS'Rafia'
p134
I2
sS'Record'
p135
I1
sS'2afe'
p136
I1
sS'items'
p137
I2
sS'k'
p138
I9
sS'96e5'
p139
I1
sS'RESULTSITEM'
p140
I1
sS'reports'
p141
I1
sS'40dbf69b16a36a36890f6a7067003a85'
p142
I1
sS'videoPlayerSafariHtml5'
p143
I1
sS'69b5'
p144
I1
sS'3b37'
p145
I1
sS'pane'
p146
I2
sS'Home'
p147
I2
sS'aka'
p148
I1
sS'teamWrapper'
p149
I16
sS'6e24'
p150
I1
sS'PewDiePie'
p151
I2
sS'deef34b99e50'
p152
I1
sS'b52308d9'
p153
I7
sS'LREC'
p154
I8
sS'f503cde9'
p155
I1
sS'trackingid'
p156
I1
sS'campaign'
p157
I1
sS'306095'
p158
I2
sS'Watch'
p159
I1
sS'1ed3c5ae'
p160
I1
sS'ts'
p161
I43
sS'bro'
p162
I4
sS'substr'
p163
I1
sS'Book'
p164
I2
sS'Health'
p165
I2
sS'autohide'
p166
I4
sS'jackets'
p167
I5
sS'quits'
p168
I1
sS'aee8'
p169
I1
sS'Syrians'
p170
I1
sS'txt'
p171
I8
sS'forums'
p172
I1
sS'Security'
p173
I3
sS'promoapp'
p174
I3
sS'3519'
p175
I1
sS'8942'
p176
I1
sS'Sagittarius'
p177
I1
sS'emptyNavURL'
p178
I4
sS'ywaProjectId'
p179
I1
sS'30345848'
p180
I7
sS'fstream'
p181
I14
sS'yJpwftUBOkgV6PzW6azuXw'
p182
I1
sS'retaliatory'
p183
I1
sS'init'
p184
I3
sS'3514'
p185
I1
sS'a4fa'
p186
I1
sS'ltime'
p187
I9
sS'a798'
p188
I1
sS'music'
p189
I8
sS'dnr'
p190
I1
sS'8f6a5774'
p191
I1
sS'Masthead'
p192
I3
sS'a2d9'
p193
I1
sS'f27a16c1b0d0'
p194
I1
sS'type'
p195
I292
sS'until'
p196
I1
sS'd21c76d7'
p197
I1
sS'Recent'
p198
I1
sS'e8ba6fffbf66'
p199
I1
sS'9d964922'
p200
I1
sS'35fd'
p201
I1
sS'8K'
p202
I2
sS'successful'
p203
I1
sS'notif'
p204
I1
sS'yahoo'
p205
I399
sS'jada'
p206
I1
sS'Teams'
p207
I1
sS'99'
p208
I1
sS'showAd'
p209
I3
sS'warm'
p210
I1
sS'REMOVE'
p211
I5
sS'Muslimne'
p212
I1
sS'continual'
p213
I1
sS'92'
p214
I3
sS'95'
p215
I1
sS'b8dc'
p216
I1
sS'97'
p217
I5
sS'003zkCMcd3bYktPKlcfzEQ1DYk'
p218
I1
sS'shoot'
p219
I4
sS'Crazy'
p220
I1
sS'enjoying'
p221
I1
sS'join'
p222
I1
sS'wore'
p223
I1
sS'mc'
p224
I18
sS'mb'
p225
I26
sS'ml'
p226
I2
sS'work'
p227
I1
sS'mh'
p228
I2
sS'worn'
p229
I1
sS'worth'
p230
I2
sS'mu'
p231
I15
sS'mt'
p232
I35
sS'f8e672e25d2a'
p233
I1
sS'CharlieS'
p234
I1
sS'mr'
p235
I14
sS'9182'
p236
I1
sS'3584279'
p237
I2
sS'b3f0'
p238
I1
sS'my'
p239
I10
sS'could'
p240
I2
sS'351d'
p241
I1
sS'defer'
p242
I42
sS'07e6a67ff3'
p243
I1
sS'foodie'
p244
I1
sS'io'
p245
I8
sS'chgsgn'
p246
I1
sS'UDcNP3SteHsXBzMoNsvMYw'
p247
I1
sS'Wizard'
p248
I1
sS'b665'
p249
I1
sS'3ac4'
p250
I1
sS'7803597cbfc6f0b76bd934103392907b'
p251
I1
sS'3ac3'
p252
I1
sS'animate'
p253
I1
sS'fptrough'
p254
I1
sS'bc50'
p255
I1
sS'keep'
p256
I1
sS'H3getYDRed2'
p257
I1
sS'sportsSearch'
p258
I1
sS'absolute'
p259
I1
sS'FOR'
p260
I1
sS'Tumblr'
p261
I1
sS'deeca00d'
p262
I4
sS'hswitch'
p263
I1
sS'end'
p264
I9
sS'Phoenix'
p265
I1
sS'quot'
p266
I30
sS'2ebb5703c17a'
p267
I7
sS'Neue'
p268
I2
sS'travel'
p269
I3
sS'Massacre'
p270
I1
sS'97a7'
p271
I1
sS'feature'
p272
I1
sS'Tell'
p273
I4
sS'Couric'
p274
I3
sS'me'
p275
I3
sS'hou'
p276
I3
sS'hor'
p277
I6
sS'Jack'
p278
I1
sS'f3c7c208b343'
p279
I1
sS'significance'
p280
I1
sS'interview'
p281
I4
sS'positionSearchBarTopOnFocusEnabled'
p282
I1
sS'config'
p283
I24
sS'searchBoxEnabled'
p284
I1
sS'A'
p285
I7
sS'gaming'
p286
I4
sS'description'
p287
I2
sS'beauty'
p288
I3
sS'horoscope'
p289
I28
sS'9434b542c5'
p290
I1
sS'after'
p291
I3
sS'8RDUWRjp0SpzI5uXatMaYA'
p292
I1
sS'shores'
p293
I1
sS'thankyou'
p294
I1
sS'wrong'
p295
I1
sS'asked'
p296
I1
sS'adid'
p297
I11
sS'lat'
p298
I1
sS'president'
p299
I1
sS'YXBwaWQ9eWhvbWVydW47cT04NTtzbT0xO3c9NTgwO2g9MzI2'
p300
I3
sS'YXBwaWQ9eWhvbWVydW47cT00NTtzbT0xO2ZpPWZpbGw7dz0xNjQ7aD0xNjQ7cHlvZmY9MA'
p301
I15
sS'3584175'
p302
I4
sS'Fierce'
p303
I1
sS'GUmKRZJufcQ'
p304
I1
sS'yql'
p305
I13
sS'All'
p306
I2
sS'e94cfd98ed84'
p307
I9
sS'hostFile'
p308
I1
sS'1280'
p309
I1
sS'shoppingPartner'
p310
I1
sS'073817657'
p311
I1
sS'Disclosing'
p312
I1
sS'life'
p313
I1
sS'loader'
p314
I9
sS'3e90'
p315
I1
sS'15ir45r6b'
p316
I3
sS'strm'
p317
I160
sS'modErrorHtml'
p318
I1
sS'DZhuasBVmplrQV2YbmrA'
p319
I1
sS'FALLBACK'
p320
I25
sS'first'
p321
I3
sS'athletes'
p322
I2
sS'f5ae'
p323
I1
sS'nonsequitur'
p324
I3
sS'postLoad'
p325
I2
sS'Blue'
p326
I1
sS'Even'
p327
I2
sS'executed'
p328
I1
sS'Eye'
p329
I1
sS'feedback'
p330
I4
sS'office'
p331
I1
sS'8388'
p332
I1
sS'plcmt'
p333
I2
sS'over'
p334
I5
sS'adsfallbackData'
p335
I1
sS'YAFT'
p336
I3
sS'TOGGLE'
p337
I2
sS'suspend'
p338
I1
sS'tempUnit'
p339
I1
sS'nets'
p340
I1
sS'financePortfolioUrl'
p341
I1
sS'before'
p342
I3
sS'yimg'
p343
I334
sS'EyE'
p344
I1
sS'uuid'
p345
I26
sS'img'
p346
I268
sS'somewhere'
p347
I1
sS'54d7'
p348
I7
sS'trying'
p349
I3
sS'SECONDINPUT'
p350
I1
sS'2a3ba1d2'
p351
I1
sS'christie'
p352
I1
sS'a654'
p353
I1
sS'better'
p354
I1
sS'SOURCE'
p355
I1
sS'Kelsea'
p356
I2
sS'403'
p357
I1
sS'fade'
p358
I1
sS'400'
p359
I1
sS'Judge'
p360
I1
sS'6237ffce59cd'
p361
I1
sS'hidden'
p362
I17
sS'fin'
p363
I14
sS'c912'
p364
I1
sS'3834'
p365
I1
sS'frcode'
p366
I1
sS'them'
p367
I3
sS'anim'
p368
I12
sS'8b53'
p369
I1
sS'ZIP'
p370
I1
sS'createTextRange'
p371
I2
sS'Mobile'
p372
I1
sS'8bff'
p373
I1
sS'Address'
p374
I1
sS'trackShutdown'
p375
I1
sS'7b009507'
p376
I1
sS'break'
p377
I2
sS'df1ec175'
p378
I1
sS'sdarla'
p379
I4
sS'e954'
p380
I1
sS'filtered'
p381
I1
sS'rapidnofollow'
p382
I73
sS'xe'
p383
I1
sS'moneyball'
p384
I2
sS'formerSP'
p385
I1
sS'appMgmtDialog'
p386
I1
sS'8807851'
p387
I1
sS'3584267'
p388
I2
sS'001000780'
p389
I8
sS'50ba'
p390
I1
sS'f87696c136c6'
p391
I5
sS'3d8d'
p392
I1
sS'30345835'
p393
I5
sS'strFind'
p394
I1
sS'l'
p395
I158
sS'30345830'
p396
I9
sS'124'
p397
I2
sS'1x1'
p398
I3
sS'setlineup'
p399
I6
sS'3eb8'
p400
I3
sS'arrow'
p401
I7
sS'each'
p402
I4
sS'debug'
p403
I1
sS'feeds'
p404
I1
sS'6b225bea0f91'
p405
I1
sS't4'
p406
I8
sS'lasting'
p407
I1
sS'9D1H8sSxUpxHWQ1tuq35vg'
p408
I1
sS'adobe'
p409
I1
sS'mdm'
p410
I2
sS'list'
p411
I62
sS'render'
p412
I1
sS'Aside'
p413
I1
sS'kingsroad'
p414
I2
sS'imgstretch'
p415
I16
sS'sears'
p416
I1
sS'STRUCTURE'
p417
I1
sS'395'
p418
I1
sS'xs'
p419
I128
sS'logo'
p420
I11
sS'b8ea8f12'
p421
I1
sS'bcnDrawerClose'
p422
I2
sS'a8f5f55a40b98636890f6a706700104c'
p423
I1
sS'3584265'
p424
I2
sS'rt'
p425
I1
sS'37e9'
p426
I1
sS'knitting'
p427
I1
sS'trending'
p428
I11
sS'rq'
p429
I8
sS'1122ed4b'
p430
I2
sS'xservicePath'
p431
I1
sS'3584128'
p432
I2
sS'f03dc576ef9e'
p433
I1
sS'rx'
p434
I2
sS'dss'
p435
I2
sS'rz'
p436
I1
sS'imgGossipUrl'
p437
I1
sS'content'
p438
I25
sS're'
p439
I3
sS'3szOZmu25R'
p440
I1
sS'9c44'
p441
I1
sS'8cb8'
p442
I6
sS'83ab'
p443
I1
sS'rc'
p444
I6
sS'rm'
p445
I13
sS'u2019s'
p446
I1
sS'3584044'
p447
I2
sS'1c7fc82dd571'
p448
I1
sS'usproxy3'
p449
I1
sS'delegate'
p450
I7
sS'bbf1'
p451
I1
sS'476ac50ecae3'
p452
I3
sS'44e2'
p453
I1
sS'clearfix'
p454
I3
sS'rail'
p455
I4
sS'linkout'
p456
I1
sS'651cec7f'
p457
I1
sS'err404'
p458
I1
sS'isRecognizedState'
p459
I1
sS'cscLogEnabled'
p460
I1
sS'5fc3'
p461
I1
sS'setSelectionRange'
p462
I2
sS'favs'
p463
I1
sS'knit'
p464
I5
sS'410c8dbc4e26'
p465
I1
sS'placementID'
p466
I3
sS'141209'
p467
I1
sS'a966da5'
p468
I1
sS'083414309'
p469
I2
sS'onStartPosRender'
p470
I1
sS'Photo'
p471
I1
sS'National'
p472
I6
sS'1c044e0a379b'
p473
I1
sS'modules'
p474
I2
sS'DEFAULT'
p475
I1
sS'30345710'
p476
I5
sS'filter'
p477
I111
sS'bcnOnOff'
p478
I2
sS'prefetch'
p479
I1
sS'positionMeta'
p480
I1
sS'signature'
p481
I25
sS'can\xe2\x80\x99t'
p482
I1
sS'2aa2'
p483
I1
sS'Apples'
p484
I1
sS'politicization'
p485
I1
sS'XDbRjy'
p486
I1
sS'already'
p487
I1
sS'023715038'
p488
I1
sS'Palestinian'
p489
I1
sS'nhl'
p490
I6
sS'a69b44e5bab8'
p491
I1
sS'Please'
p492
I2
sS'35e7'
p493
I1
sS'fantasy'
p494
I1
sS'featured'
p495
I7
sS'radioContainer'
p496
I1
sS'customization'
p497
I1
sS'10500'
p498
I1
sS'35c5'
p499
I1
sS'navigator'
p500
I1
sS'plastic'
p501
I2
sS'elmt'
p502
I198
sS'hood'
p503
I2
sS'170'
p504
I3
sS'toy'
p505
I2
sS'DZhuasBVJ55uQV2YbmrA'
p506
I1
sS'service'
p507
I92
sS'98f1b137'
p508
I1
sS'top'
p509
I21
sS'3774'
p510
I1
sS'CRISIS'
p511
I1
sS'needed'
p512
I1
sS'iosDefaultSearchSetEnabled'
p513
I1
sS'9405'
p514
I1
sS'Press'
p515
I3
sS'F7vxZzgBD7LlZWV1Q'
p516
I1
sS'Selena'
p517
I2
sS'dogs'
p518
I1
sS'LIFESTYLES'
p519
I1
sS'userinfo'
p520
I3
sS'publicCometHost'
p521
I1
sS'Search'
p522
I17
sS'B'
p523
I1
sS'3D501'
p524
I1
sS'39f7'
p525
I1
sS'centered'
p526
I1
sS'f66ac98e4e73'
p527
I1
sS'signup'
p528
I2
sS'typing'
p529
I1
sS'took'
p530
I1
sS'searchsubmit'
p531
I1
sS'YAHOO'
p532
I1
sS'Shocked'
p533
I1
sS'cdata'
p534
I1
sS'LABEL'
p535
I2
sS'Post'
p536
I2
sS'dummyYLT'
p537
I1
sS'M2011'
p538
I1
sS'Iraq'
p539
I5
sS'17K'
p540
I2
sS'target'
p541
I16
sS'95db'
p542
I1
sS'qtTGtw3J7ATCYA'
p543
I1
sS'console'
p544
I1
sS'16f6'
p545
I1
sS'kni'
p546
I1
sS'enabled'
p547
I33
sS'a4ae15a5'
p548
I1
sS'shower'
p549
I2
sS'Abbraccio'
p550
I1
sS'See'
p551
I2
sS'srenderPath'
p552
I1
sS'Sea'
p553
I2
sS'charlie'
p554
I1
sS'c2eb'
p555
I1
sS'56de'
p556
I1
sS'\xe2\x80\x93'
p557
I1
sS'failing'
p558
I1
sS'335a'
p559
I1
sS'navigate'
p560
I1
sS'0f16'
p561
I1
sS'mind'
p562
I1
sS'ef0379959be7'
p563
I5
sS'HuffingtonPost'
p564
I1
sS'locDetectEnabled'
p565
I1
sS'showOnlySetHP'
p566
I2
sS'3bc3d361'
p567
I1
sS'2Ffood'
p568
I1
sS'mins'
p569
I1
sS'b482'
p570
I1
sS'8614dc7ca7ad'
p571
I1
sS'22867878823'
p572
I2
sS'secure'
p573
I1
sS'3998'
p574
I1
sS'eac974dbf17f'
p575
I1
sS'surfing'
p576
I1
sS'1c825f26'
p577
I1
sS'interestsData'
p578
I1
sS'yui3'
p579
I7
sS'Parenting'
p580
I1
sS'recommended'
p581
I3
sS'65876915409a'
p582
I1
sS'luxury'
p583
I1
sS'doubleclick'
p584
I2
sS'219e1df01d6b'
p585
I1
sS'bc45'
p586
I1
sS'even'
p587
I1
sS'cases340'
p588
I1
sS'useBrowserConsole'
p589
I1
sS'searchform'
p590
I1
sS'c404'
p591
I1
sS'ADSDISLIKEOPTN3'
p592
I1
sS'ADSDISLIKEOPTN2'
p593
I1
sS'ADSDISLIKEOPTN1'
p594
I1
sS'Shooter'
p595
I1
sS'OIJc8uHxJgHeA'
p596
I1
sS'3dd3'
p597
I7
sS'ADSDISLIKEOPTN4'
p598
I1
sS'Luce'
p599
I1
sS'Columnist'
p600
I1
sS'letter'
p601
I1
sS'loadingMessage'
p602
I1
sS'Partly'
p603
I4
sS'Login'
p604
I2
sS'karine'
p605
I1
sS'154525444'
p606
I1
sS'passthru'
p607
I1
sS'padding'
p608
I1
sS'4058b867ad56'
p609
I1
sS'4f56'
p610
I1
sS'don'
p611
I8
sS'083111486'
p612
I1
sS'marijkemooy'
p613
I1
sS'14816902'
p614
I2
sS'0f70'
p615
I1
sS'camp'
p616
I2
sS'm'
p617
I190
sS'3ffe'
p618
I1
sS'Garfield'
p619
I1
sS'5893'
p620
I1
sS'tech'
p621
I6
sS'1313445610946614'
p622
I1
sS'323e'
p623
I5
sS'reserve'
p624
I14
sS'writeMixerActions'
p625
I1
sS'bottomright'
p626
I1
sS'a64b'
p627
I1
sS'presentation'
p628
I5
sS'OBJECT'
p629
I1
sS'Helvetica'
p630
I4
sS'SYM8oxpBJ0TZanug'
p631
I1
sS'Camouflage'
p632
I5
sS'13303551'
p633
I3
sS'384bfbb24295'
p634
I1
sS'radio'
p635
I4
sS'pkg'
p636
I1
sS'Sequitur'
p637
I1
sS'range'
p638
I1
sS'clientPagination'
p639
I1
sS'clock'
p640
I1
sS'Thank'
p641
I3
sS'toast'
p642
I1
sS'tabid'
p643
I13
sS'layout'
p644
I4
sS'4faa761d5e0c'
p645
I1
sS'a504'
p646
I1
sS'async'
p647
I4
sS'headline'
p648
I13
sS'menu'
p649
I27
sS'Photography'
p650
I1
sS'001000963'
p651
I2
sS'3c0853458911'
p652
I1
sS'cpgnv1'
p653
I2
sS'theme'
p654
I9
sS'version'
p655
I3
sS'FILTERS'
p656
I1
sS'announce'
p657
I1
sS'34f8'
p658
I1
sS'DZhuasBVa'
p659
I1
sS'16384'
p660
I1
sS'Searches'
p661
I2
sS'innerborder'
p662
I1
sS'tiles'
p663
I2
sS'avvihqtb62m35'
p664
I3
sS'dk'
p665
I4
sS'dh'
p666
I12
sS'di'
p667
I1
sS'df'
p668
I17
sS'a02b5580'
p669
I1
sS'dd'
p670
I19
sS'stop'
p671
I3
sS'dc'
p672
I4
sS'2026363133'
p673
I1
sS'shutting'
p674
I1
sS'yfp'
p675
I3
sS'fablife'
p676
I6
sS'aa3b'
p677
I1
sS'report'
p678
I2
sS'X'
p679
I1
sS'dt'
p680
I7
sS'DZhuasBVA522QF2YbmrA'
p681
I1
sS'dr'
p682
I1
sS'ds'
p683
I2
sS'31c0'
p684
I1
sS'webGossipUrl'
p685
I1
sS'b46e'
p686
I9
sS'bar'
p687
I3
sS'TEXTAREA'
p688
I1
sS'adsRemoveEnable'
p689
I1
sS'622aea9f02b2'
p690
I1
sS'MYyImKujO2xYkM4BamQHsE'
p691
I1
sS'Washington'
p692
I1
sS'option3'
p693
I4
sS'isLrec2Failure'
p694
I3
sS'db6a'
p695
I1
sS'shots'
p696
I2
sS'206380'
p697
I1
sS'sethomepage'
p698
I3
sS'fbb1'
p699
I1
sS'DZhuasBVQaeFQV2YbmrA'
p700
I1
sS'ad5e5a79'
p701
I1
sS'2372a5812a9a'
p702
I1
sS'Partners'
p703
I1
sS'308f'
p704
I1
sS'3821'
p705
I1
sS'bcnScroll'
p706
I2
sS'minQueryLength'
p707
I1
sS'Levant'
p708
I5
sS'03T154525Z'
p709
I1
sS'bd8f'
p710
I1
sS'Schumer'
p711
I2
sS'num'
p712
I36
sS'STATIC'
p713
I1
sS'result'
p714
I6
sS'weird'
p715
I6
sS'srpx'
p716
I1
sS'closeAd'
p717
I3
sS'021020020'
p718
I4
sS'02'
p719
I1
sS'03'
p720
I15
sS'30345823'
p721
I7
sS'01'
p722
I2
sS'06'
p723
I1
sS'ddmenu'
p724
I7
sS'clipId'
p725
I5
sS'30345826'
p726
I15
sS'08'
p727
I6
sS'09'
p728
I4
sS'021913526'
p729
I1
sS'9f3b2be8a3c5'
p730
I1
sS'broadcastDynamicEnabled'
p731
I1
sS'stamps'
p732
I1
sS'score'
p733
I8
sS'game3'
p734
I2
sS'game2'
p735
I2
sS'game1'
p736
I2
sS'props'
p737
I45
sS'Consumable'
p738
I2
sS'zindexClass'
p739
I1
sS'001000001'
p740
I3
sS'C'
p741
I7
sS'5ad160caef14'
p742
I1
sS'terms'
p743
I1
sS'69f84b96'
p744
I1
sS'Settings'
p745
I1
sS'confusion'
p746
I1
sS'Pimentel'
p747
I1
sS'onkeydown'
p748
I1
sS'ww'
p749
I4
sS'3b1d1b9c8618'
p750
I1
sS'sportacular'
p751
I14
sS'Cloudy'
p752
I6
sS'Carothers'
p753
I1
sS'expIfr'
p754
I2
sS'news'
p755
I59
sS'150340934'
p756
I1
sS'9523'
p757
I1
sS'12d5'
p758
I1
sS'improve'
p759
I1
sS'cop'
p760
I1
sS'protect'
p761
I1
sS'ilc'
p762
I5
sS'geocoder'
p763
I3
sS'met'
p764
I4
sS'McDonald'
p765
I2
sS'country'
p766
I2
sS'navigatorAvail'
p767
I1
sS'b93b'
p768
I4
sS'against'
p769
I2
sS'a789'
p770
I1
sS'games'
p771
I27
sS'chappelle'
p772
I2
sS'filterRestoreEnabled'
p773
I1
sS'adlocs'
p774
I6
sS'uni'
p775
I2
sS'login'
p776
I62
sS'com'
p777
I813
sS'col'
p778
I13
sS'Cassie'
p779
I1
sS'b2b5'
p780
I1
sS'yahoofinance'
p781
I1
sS'b9b8'
p782
I1
sS'Additional'
p783
I1
sS'had'
p784
I3
sS'aa84'
p785
I1
sS'ae6e'
p786
I1
sS'3757'
p787
I1
sS'height'
p788
I67
sS'252'
p789
I1
sS'loaded'
p790
I1
sS'250'
p791
I9
sS'Dating'
p792
I1
sS'Fianc\xc3\xa9e'
p793
I1
sS'smith'
p794
I1
sS'bb6978e44db5'
p795
I1
sS'cpos'
p796
I124
sS'561f06f51296'
p797
I1
sS'pregame'
p798
I4
sS'chrome'
p799
I25
sS'lazyScriptList'
p800
I2
sS'impID'
p801
I3
sS'claiming'
p802
I1
sS'cue'
p803
I1
sS'been'
p804
I3
sS'tragedy'
p805
I1
sS'da311d83'
p806
I1
sS'greyhounds'
p807
I4
sS'enableRQInlineEdit'
p808
I1
sS'e03ff8e139b1'
p809
I1
sS'Groups'
p810
I2
sS'C3'
p811
I1
sS'ae4e9edc6812'
p812
I1
sS'entered'
p813
I3
sS'prefs'
p814
I17
sS'offnetwork'
p815
I4
sS'a0a2'
p816
I1
sS'canucks'
p817
I1
sS'xxs'
p818
I82
sS'onblur'
p819
I1
sS'6c6721d8'
p820
I1
sS'bmPE5Mw'
p821
I1
sS'sprite'
p822
I161
sS'f55b'
p823
I1
sS'sag'
p824
I1
sS'contentinfo'
p825
I2
sS'900'
p826
I1
sS'26391799'
p827
I7
sS'Sites'
p828
I1
sS'ae69'
p829
I1
sS'dave'
p830
I2
sS'animPlayBeacon'
p831
I1
sS'spid'
p832
I1
sS'catch'
p833
I2
sS'daughter'
p834
I1
sS'worked'
p835
I1
sS'sf1'
p836
I1
sS'001001060'
p837
I3
sS'162'
p838
I1
sS'001001062'
p839
I3
sS'videosearch'
p840
I1
sS'has'
p841
I30
sS'queryfirst'
p842
I1
sS'ks1XJdCaW'
p843
I1
sS'4527'
p844
I1
sS'enableBucketedGames'
p845
I1
sS'850166'
p846
I1
sS'onSuccess'
p847
I1
sS'3685'
p848
I1
sS'n'
p849
I217
sS'gnb'
p850
I3
sS'fr2'
p851
I30
sS'near'
p852
I6
sS'74039ee4'
p853
I1
sS'Harrison'
p854
I4
sS'slk'
p855
I46
sS'u00c6'
p856
I1
sS'aid'
p857
I30
sS'animPausedState'
p858
I1
sS'leaves'
p859
I2
sS'a21'
p860
I4
sS'desktopCrumb'
p861
I1
sS'rotationTimingDisabled'
p862
I1
sS'mexico'
p863
I1
sS'best'
p864
I1
sS'nextgen'
p865
I1
sS'f5f12c43dbdd'
p866
I1
sS'0000000'
p867
I1
sS'accessories'
p868
I5
sS'spaceid'
p869
I5
sS'lookupTime'
p870
I1
sS'3530'
p871
I1
sS'enableAnimation'
p872
I1
sS'Here\xe2\x80\x99s'
p873
I1
sS'experience'
p874
I1
sS'conf'
p875
I2
sS'7a9e51e9d32f'
p876
I1
sS'ib'
p877
I282
sS'id'
p878
I395
sS'trusted'
p879
I28
sS'D'
p880
I7
sS'fbe3731e'
p881
I5
sS'Refinery'
p882
I2
sS'containing'
p883
I1
sS'refHandler'
p884
I25
sS'30345810'
p885
I7
sS'12711df5d995'
p886
I1
sS'6076'
p887
I1
sS'4b89e847371c'
p888
I1
sS'katiecouric'
p889
I4
sS'amount'
p890
I2
sS'debuted'
p891
I3
sS'linked'
p892
I1
sS'7ac8'
p893
I1
sS'complex'
p894
I6
sS'1696'
p895
I1
sS'96'
p896
I1
sS'President'
p897
I4
sS'DROPDOWN'
p898
I1
sS'several'
p899
I1
sS'NAVIGATION'
p900
I1
sS'yahoofrontpageapprecommended'
p901
I3
sS'a7ba'
p902
I1
sS'i8'
p903
I6
sS'053920864'
p904
I1
sS'Activities'
p905
I1
sS'csc'
p906
I1
sS'8633'
p907
I6
sS'Marijke'
p908
I1
sS'gameWrapper'
p909
I8
sS'Adam'
p910
I3
sS'undo'
p911
I3
sS'Angeles'
p912
I1
sS'YXBwaWQ9eWhvbWVydW47cT04NTtzbT0xO3c9NTA7aD01MA'
p913
I16
sS'9765'
p914
I1
sS'Y'
p915
I19
sS'bad3'
p916
I3
sS'darla'
p917
I11
sS'ef3c'
p918
I1
sS'Decorative'
p919
I5
sS'Burberry'
p920
I5
sS'cscURI'
p921
I3
sS'kept'
p922
I1
sS'useShow'
p923
I1
sS'yahoofrontpageappmoregames'
p924
I1
sS'dallas'
p925
I1
sS'1972'
p926
I5
sS'inherit'
p927
I6
sS'sportssearch'
p928
I1
sS'xqFpXz1ElDU'
p929
I1
sS'34657fe7'
p930
I1
sS'mother'
p931
I4
sS'thg'
p932
I20
sS'Portland'
p933
I1
sS'59d39c76cac0'
p934
I1
sS'hjserror'
p935
I1
sS'ddec'
p936
I1
sS'left'
p937
I39
sS'Sarah'
p938
I2
sS'a59c'
p939
I1
sS'locOverride'
p940
I1
sS'DZhuasBVKxpIQV2YbmrA'
p941
I1
sS'background'
p942
I64
sS'just'
p943
I2
sS'useYAC'
p944
I1
sS'photo'
p945
I2
sS'wednesday'
p946
I1
sS'b47bfa58'
p947
I1
sS'd5775854'
p948
I1
sS'quotes'
p949
I9
sS'via'
p950
I1
sS'meta'
p951
I6
sS'LREC2'
p952
I4
sS'CONF'
p953
I8
sS'facts'
p954
I2
sS'yep'
p955
I11
sS'bd8d'
p956
I4
sS'somethingq'
p957
I1
sS'preloadSRP'
p958
I1
sS'25021282'
p959
I1
sS'previous'
p960
I1
sS'noscript'
p961
I8
sS'onload'
p962
I1
sS'4533f4475051'
p963
I1
sS'family'
p964
I20
sS'ell'
p965
I81
sS'elm'
p966
I219
sS'photographer'
p967
I1
sS'5w'
p968
I1
sS'Privacy'
p969
I1
sS'character'
p970
I1
sS'occupants'
p971
I1
sS'heard'
p972
I2
sS'fxjsonp'
p973
I1
sS'PVID'
p974
I1
sS'001000616'
p975
I2
sS'3584250'
p976
I2
sS'News'
p977
I17
sS'save'
p978
I3
sS'fantasysports'
p979
I1
sS'4aa6'
p980
I1
sS'97ce'
p981
I1
sS'which'
p982
I2
sS'woeId'
p983
I2
sS'Colour'
p984
I1
sS'Roberto'
p985
I1
sS'DZhuasBVM7OgQV2YbmrA'
p986
I1
sS'DZhuasBVQ2UvQV2YbmrA'
p987
I1
sS'haspopup'
p988
I3
sS'3ff0845a3dda'
p989
I1
sS'judge'
p990
I2
sS'4d31'
p991
I1
sS'shadow'
p992
I1
sS'progresses'
p993
I1
sS'3dce'
p994
I4
sS'advanced'
p995
I3
sS'Gas'
p996
I3
sS'919accbe'
p997
I1
sS'59'
p998
I2
sS'58'
p999
I7
sS'gift'
p1000
I32
sS'55'
p1001
I9
sS'57'
p1002
I2
sS'3037'
p1003
I1
sS'50'
p1004
I36
sS'53'
p1005
I3
sS'52'
p1006
I5
sS'536'
p1007
I2
sS'festivities'
p1008
I1
sS'metaKey'
p1009
I1
sS'3bad9b181b2b'
p1010
I1
sS'officer'
p1011
I4
sS'ywa'
p1012
I13
sS'DZhuasBVaEUTQV2YbmrA'
p1013
I1
sS'4e37'
p1014
I2
sS'a620'
p1015
I1
sS'b612'
p1016
I1
sS'www'
p1017
I153
sS'right'
p1018
I5
sS'old'
p1019
I3
sS'env'
p1020
I2
sS'people'
p1021
I5
sS'whiteListedAds'
p1022
I2
sS'dead'
p1023
I1
sS'sizingMethod'
p1024
I1
sS'07070b24'
p1025
I1
sS'36'
p1026
I3
sS'tabbar'
p1027
I15
sS'openAnimDuration'
p1028
I1
sS'billboard'
p1029
I2
sS'f63c'
p1030
I1
sS'contests'
p1031
I2
sS'paginationtype'
p1032
I1
sS'lastDetectedLocExp'
p1033
I1
sS'userLocation'
p1034
I1
sS'total'
p1035
I1
sS'ico'
p1036
I1
sS'icn'
p1037
I17
sS'bottom'
p1038
I4
sS'purple'
p1039
I6
sS'175730920'
p1040
I1
sS'Package'
p1041
I1
sS'killing'
p1042
I1
sS'everything'
p1043
I3
sS'Dave'
p1044
I6
sS'Facebook'
p1045
I2
sS'unit'
p1046
I12
sS'Chris'
p1047
I3
sS'22861190854'
p1048
I2
sS'beaconFired'
p1049
I5
sS'foo'
p1050
I1
sS'AE'
p1051
I2
sS'Are'
p1052
I1
sS'holiday'
p1053
I3
sS'expires'
p1054
I1
sS'3543'
p1055
I1
sS'999a'
p1056
I1
sS'Daily'
p1057
I1
sS'8bde'
p1058
I6
sS'76fcab3f'
p1059
I1
sS'4a23'
p1060
I1
sS'huffingtonpost'
p1061
I3
sS'3584318'
p1062
I2
sS'd231'
p1063
I3
sS'4d6087487767'
p1064
I1
sS'scarves'
p1065
I5
sS'015720226'
p1066
I1
sS'0px'
p1067
I2
sS'pli'
p1068
I3
sS'First'
p1069
I2
sS'Eileen'
p1070
I2
sS'3e289916'
p1071
I1
sS'lightbox'
p1072
I11
sS'qlQFgEGwpwg44F7HNQrMfA'
p1073
I1
sS'20151204'
p1074
I3
sS'Image'
p1075
I1
sS'months'
p1076
I1
sS'Oneofthe'
p1077
I1
sS'o'
p1078
I7
sS'8d88'
p1079
I1
sS'BUTTON'
p1080
I2
sS'4147d0f9'
p1081
I5
sS'gingerbread'
p1082
I2
sS'dali'
p1083
I51
sS'moduleid'
p1084
I13
sS'11de'
p1085
I1
sS'pym'
p1086
I1
sS'4b7ce230'
p1087
I2
sS'Use'
p1088
I2
sS'rails'
p1089
I1
sS'Dallas'
p1090
I1
sS'Make'
p1091
I4
sS'son'
p1092
I2
sS'down'
p1093
I10
sS'Insider'
p1094
I15
sS'srtid'
p1095
I1
sS'wikiids'
p1096
I26
sS'17986569'
p1097
I1
sS'wrap'
p1098
I83
sS'subo'
p1099
I6
sS'a533'
p1100
I1
sS'soon'
p1101
I1
sS'chunked'
p1102
I1
sS'wal'
p1103
I1
sS'205400317'
p1104
I1
sS'FDgw1tMzRXXuBoETJemihQ'
p1105
I1
sS'dropdownHover'
p1106
I1
sS'initial'
p1107
I1
sS'5d6f5b0e05a3'
p1108
I1
sS'gallery'
p1109
I4
sS'panel8'
p1110
I1
sS'gif'
p1111
I22
sS'gid'
p1112
I3
sS'way'
p1113
I3
sS'221d'
p1114
I1
sS'panel0'
p1115
I1
sS'panel1'
p1116
I1
sS'NBA'
p1117
I8
sS'panel3'
p1118
I1
sS'panel4'
p1119
I1
sS'panel5'
p1120
I1
sS'panel6'
p1121
I1
sS'select'
p1122
I2
sS'head'
p1123
I2
sS'medium'
p1124
I2
sS'REND'
p1125
I1
sS'form'
p1126
I13
sS'Coming'
p1127
I1
sS'414889fa'
p1128
I1
sS'ford'
p1129
I2
sS'Russian'
p1130
I3
sS'DZhuasBVlvxLQV2YbmrA'
p1131
I1
sS'profile'
p1132
I1
sS'searchlabel'
p1133
I1
sS'9acd'
p1134
I1
sS'icmp'
p1135
I11
sS'true'
p1136
I107
sS'GMT'
p1137
I1
sS'reset'
p1138
I1
sS'aad2'
p1139
I1
sS'8b6a'
p1140
I1
sS'preview'
p1141
I4
sS'Phenomenon'
p1142
I2
sS'83c4'
p1143
I1
sS'urgent'
p1144
I1
sS'supp'
p1145
I3
sS'posItem'
p1146
I7
sS'inside'
p1147
I2
sS'ADSDISLIKEDCTA'
p1148
I1
sS'stores'
p1149
I1
sS'CEBE26F8'
p1150
I1
sS'c5a14543'
p1151
I1
sS'signOutTooltipEnabled'
p1152
I1
sS'f60f0664'
p1153
I1
sS'13923486'
p1154
I7
sS'FLAGGEDCTA'
p1155
I1
sS'2023538075'
p1156
I10
sS'Surgery'
p1157
I1
sS'Vox'
p1158
I2
sS'average'
p1159
I1
sS'np1wE'
p1160
I1
sS'delete'
p1161
I1
sS'84ca'
p1162
I1
sS'centerStory'
p1163
I1
sS'later'
p1164
I3
sS'bfa1'
p1165
I1
sS'nresults'
p1166
I1
sS'Ballerini'
p1167
I2
sS'countryCode'
p1168
I1
sS'278074e4'
p1169
I1
sS'30ae'
p1170
I1
sS'c74f'
p1171
I1
sS'sticky'
p1172
I6
sS'proves'
p1173
I1
sS'1449273600000'
p1174
I1
sS'ACTIONDRAWER'
p1175
I13
sS'timezone'
p1176
I1
sS'LOGIN'
p1177
I1
sS'face'
p1178
I1
sS'check'
p1179
I21
sS'4220c27c0506'
p1180
I1
sS'moreClickEnabled'
p1181
I1
sS'pipe'
p1182
I3
sS'onFinishPosRender'
p1183
I1
sS'Francisco'
p1184
I3
sS'1197716352'
p1185
I1
sS'nn'
p1186
I393
sS'130122'
p1187
I1
sS'1449220197'
p1188
I1
sS'when'
p1189
I3
sS'jQhurS9RkNqsOs1v9PItow'
p1190
I1
sS'build'
p1191
I6
sS'role'
p1192
I48
sS'30346008'
p1193
I7
sS'test'
p1194
I4
sS'nq'
p1195
I1
sS'Sat'
p1196
I1
sS'30346002'
p1197
I1
sS'30346003'
p1198
I7
sS'30346000'
p1199
I7
sS'30346001'
p1200
I1
sS'node'
p1201
I30
sS'3ed5'
p1202
I1
sS'mozilla'
p1203
I1
sS'E'
p1204
I2
sS'locDetectWriteEnabled'
p1205
I1
sS'SHOW'
p1206
I1
sS'dies'
p1207
I3
sS'062afdf7'
p1208
I1
sS'center'
p1209
I2
sS'polite'
p1210
I1
sS'adServer'
p1211
I1
sS'329a'
p1212
I1
sS'9191'
p1213
I1
sS'DZhuasBVpi55QV2YbmrA'
p1214
I1
sS'afa921af'
p1215
I1
sS'interestId'
p1216
I2
sS'scores'
p1217
I3
sS'enableAppReorderingLoggedOut'
p1218
I1
sS'ac78'
p1219
I1
sS'e3139033'
p1220
I1
sS'7030dad1f308'
p1221
I1
sS'3c1c'
p1222
I9
sS'c617'
p1223
I1
sS'billion'
p1224
I4
sS'hpOverlay'
p1225
I1
sS'26fr'
p1226
I1
sS'happening'
p1227
I2
sS'cacheUse'
p1228
I1
sS'3f4c'
p1229
I1
sS'3b4a'
p1230
I1
sS'interval'
p1231
I3
sS'uicontrib'
p1232
I35
sS'flag'
p1233
I3
sS'daily'
p1234
I2
sS'4154984551'
p1235
I3
sS'u00d9'
p1236
I1
sS'0e27'
p1237
I1
sS'time'
p1238
I17
sS'push'
p1239
I12
sS'serious'
p1240
I1
sS'6em'
p1241
I1
sS'decision'
p1242
I1
sS'PluID'
p1243
I1
sS'23424868'
p1244
I38
sS'Js0wMJe36fL5ku7sdlWNMg'
p1245
I1
sS'global'
p1246
I1
sS'focus'
p1247
I9
sS'videoPlayerTwoControls'
p1248
I1
sS'WIDTH'
p1249
I1
sS'manager'
p1250
I7
sS'f7998edfe3aa'
p1251
I1
sS'skin'
p1252
I7
sS'Indiana'
p1253
I1
sS'127'
p1254
I1
sS'HOODCONTENT'
p1255
I2
sS'Today'
p1256
I4
sS'row'
p1257
I7
sS'7302'
p1258
I1
sS'ver'
p1259
I2
sS'filming'
p1260
I2
sS'Dal'
p1261
I1
sS'metaSize'
p1262
I3
sS'flash'
p1263
I5
sS'be603f267939'
p1264
I1
sS'disgusting'
p1265
I1
sS'attachEvent'
p1266
I5
sS'94'
p1267
I1
sS'countdown'
p1268
I2
sS'0'
p1269
I854
sS'214605726'
p1270
I1
sS'kgo'
p1271
I1
sS'terror'
p1272
I3
sS'adNode'
p1273
I5
sS'471b'
p1274
I1
sS'788157a373b694dcf6adcc2f1ea35441'
p1275
I1
sS'underwood340'
p1276
I1
sS'8ab2a35174cc667c9ed429af44daa636'
p1277
I1
sS'KytcyYmvKqA6dEY6Bqvh3g'
p1278
I1
sS'FULL'
p1279
I1
sS'FIT'
p1280
I1
sS'6d2c'
p1281
I1
sS'c8326bdf'
p1282
I1
sS'controls'
p1283
I7
sS'lrm'
p1284
I12
sS'Tech'
p1285
I9
sS'whether'
p1286
I1
sS'1095'
p1287
I1
sS'25021298'
p1288
I1
sS'25021296'
p1289
I1
sS'3338'
p1290
I1
sS'Premium'
p1291
I1
sS'cooks'
p1292
I4
sS'hour'
p1293
I1
sS'Just'
p1294
I1
sS'081309'
p1295
I1
sS'turns'
p1296
I1
sS'Global'
p1297
I1
sS'accidentally'
p1298
I2
sS'b609'
p1299
I1
sS'886f'
p1300
I1
sS'item'
p1301
I98
sS'historystate'
p1302
I1
sS'diy'
p1303
I1
sS'defaults'
p1304
I1
sS'espanol'
p1305
I1
sS'f7ed2c84b387'
p1306
I1
sS'div'
p1307
I920
sS'91a6'
p1308
I1
sS'ERROR'
p1309
I2
sS'George'
p1310
I1
sS'dir'
p1311
I1
sS'abb2'
p1312
I1
sS'1b51'
p1313
I1
sS'YExtPostInstallSummary'
p1314
I1
sS'3584140'
p1315
I2
sS'sayt'
p1316
I6
sS'says'
p1317
I4
sS'regret'
p1318
I1
sS'core'
p1319
I15
sS'trend'
p1320
I1
sS'b536'
p1321
I6
sS'hack'
p1322
I1
sS'8604'
p1323
I1
sS'sign'
p1324
I7
sS'95d6'
p1325
I1
sS'3811'
p1326
I1
sS'9d8e'
p1327
I1
sS'imagesOn'
p1328
I8
sS'14ddafcd4983'
p1329
I1
sS'313'
p1330
I2
sS'sBdrClasses'
p1331
I2
sS'b1a5'
p1332
I3
sS'substitute'
p1333
I3
sS'3169'
p1334
I1
sS'comictag'
p1335
I7
sS'addr'
p1336
I2
sS'movies'
p1337
I3
sS'3024'
p1338
I1
sS'DZhuasBVQ'
p1339
I1
sS'shares'
p1340
I3
sS'Ford'
p1341
I4
sS'current'
p1342
I3
sS'300'
p1343
I4
sS'Explore'
p1344
I1
sS'Hear'
p1345
I1
sS'Math'
p1346
I4
sS'falling'
p1347
I1
sS'sweaters'
p1348
I3
sS'make'
p1349
I1
sS'OKs'
p1350
I2
sS'unsure'
p1351
I1
sS'DISLIKEDCTA'
p1352
I1
sS'animPause'
p1353
I1
sS'dropdown'
p1354
I3
sS'learn'
p1355
I2
sS'f256'
p1356
I1
sS'MINIASSIST'
p1357
I1
sS'FLAG'
p1358
I1
sS'upgrade'
p1359
I2
sS'baseball'
p1360
I1
sS'groups'
p1361
I3
sS'Mr'
p1362
I2
sS'Times'
p1363
I2
sS'My'
p1364
I4
sS'teacher'
p1365
I3
sS'toolbar'
p1366
I13
sS'topnews'
p1367
I5
sS'box'
p1368
I1
sS'rings'
p1369
I1
sS'thirdday'
p1370
I2
sS'getElementsByName'
p1371
I1
sS'transition'
p1372
I5
sS'lazy'
p1373
I3
sS'root'
p1374
I3
sS'f0fd68c1da56'
p1375
I1
sS'bos'
p1376
I3
sS'tooltipsEnabled'
p1377
I1
sS'36bd'
p1378
I1
sS'add9'
p1379
I1
sS'Your'
p1380
I1
sS'bpos'
p1381
I80
sS'pgmode'
p1382
I1
sS'24803755'
p1383
I7
sS'DZhuasBVtz'
p1384
I1
sS'rslt'
p1385
I21
sS'tablist'
p1386
I13
sS'a56c'
p1387
I5
sS'navigation'
p1388
I3
sS'4c6a71f7746d'
p1389
I1
sS'2Ftv'
p1390
I1
sS'settings'
p1391
I6
sS'pause'
p1392
I1
sS'trackclk'
p1393
I1
sS'useful'
p1394
I6
sS'Justice'
p1395
I1
sS'Theendof'
p1396
I1
sS'Visit'
p1397
I3
sS'aff2'
p1398
I1
sS'marked'
p1399
I1
sS'999'
p1400
I1
sS'0ede0cb5'
p1401
I1
sS'safeframe'
p1402
I1
sS'3186'
p1403
I1
sS'tabpanel'
p1404
I9
sS'ipt'
p1405
I1
sS'1st'
p1406
I7
sS'bd7b6934'
p1407
I1
sS'MQV2YbmrA'
p1408
I1
sS'cssSAWindowMaxHeightIE6'
p1409
I1
sS'FALLBCK'
p1410
I40
sS'Davidson'
p1411
I2
sS'prevg'
p1412
I1
sS'c241'
p1413
I1
sS'perf'
p1414
I3
sS'working'
p1415
I3
sS'DZhuasBVN9BCQV2YbmrA'
p1416
I1
sS'appscontainer'
p1417
I14
sS'filters'
p1418
I1
sS'pref'
p1419
I2
sS'mss'
p1420
I1
sS'5b135d44'
p1421
I1
sS'sports'
p1422
I57
sS'pers'
p1423
I1
sS'videoPlayerQosRate'
p1424
I1
sS'live'
p1425
I8
sS'handler'
p1426
I25
sS'iphone'
p1427
I1
sS'https'
p1428
I531
sS'flaunting'
p1429
I1
sS'msg'
p1430
I21
sS'ae8e'
p1431
I1
sS'prev'
p1432
I1
sS'90df'
p1433
I1
sS'today'
p1434
I8
sS'b63d'
p1435
I1
sS'October'
p1436
I1
sS'10001806365479'
p1437
I1
sS'F'
p1438
I12
sS'share'
p1439
I3
sS'srch'
p1440
I15
sS'pipeline'
p1441
I1
sS'001000069'
p1442
I9
sS'0bKEIBhmJFgA'
p1443
I1
sS'37px'
p1444
I2
sS'downing'
p1445
I1
sS'oop'
p1446
I3
sS'Time'
p1447
I4
sS'cases'
p1448
I4
sS'b48e'
p1449
I1
sS'3d93'
p1450
I5
sS'3d90'
p1451
I1
sS'3d91'
p1452
I1
sS'lazyLoad'
p1453
I1
sS'animation'
p1454
I1
sS'Celebrations'
p1455
I2
sS'ylp'
p1456
I1
sS'Family'
p1457
I3
sS'car'
p1458
I6
sS'01a18c1c'
p1459
I1
sS'b60c'
p1460
I1
sS'31bf'
p1461
I1
sS'93109'
p1462
I6
sS'ult'
p1463
I2
sS'cat'
p1464
I82
sS'flagship'
p1465
I1
sS'001000661'
p1466
I2
sS'flk'
p1467
I14
sS'93b8e21fe55c'
p1468
I6
sS'dbf4d2db97d1'
p1469
I1
sS'iframe'
p1470
I5
sS'151202'
p1471
I4
sS'following'
p1472
I1
sS'texted'
p1473
I7
sS'u00da'
p1474
I1
sS'3066'
p1475
I1
sS'2946'
p1476
I1
sS'9eb28672'
p1477
I1
sS'stream'
p1478
I39
sS'autoc'
p1479
I1
sS'Federal'
p1480
I3
sS'attribute'
p1481
I18
sS'Mic'
p1482
I2
sS'cookieName'
p1483
I4
sS'topic'
p1484
I23
sS'drawer'
p1485
I10
sS'celsius'
p1486
I4
sS'ae4b'
p1487
I1
sS'webfeeds'
p1488
I2
sS'okmagazine'
p1489
I2
sS'spo'
p1490
I55
sS'pageloadListId'
p1491
I1
sS'clothing'
p1492
I5
sS'breaking'
p1493
I2
sS'dynamicMax'
p1494
I1
sS'Putin'
p1495
I4
sS'Terms'
p1496
I1
sS'a374'
p1497
I2
sS'2Ftech'
p1498
I1
sS'iosDefaultSearchSetFreq'
p1499
I1
sS'enableAppManagement'
p1500
I6
sS'a8e2'
p1501
I3
sS'assetcollector'
p1502
I8
sS'Underwood'
p1503
I4
sS'JdQV2YbmrA'
p1504
I1
sS'YXBwaWQ9eWhvbWVydW4'
p1505
I1
sS'rspns'
p1506
I189
sS'1'
p1507
I696
sS'fpt'
p1508
I1
sS'fe82'
p1509
I1
sS'e0b6'
p1510
I1
sS'pure'
p1511
I1
sS'sst'
p1512
I1
sS'Conflicts'
p1513
I2
sS'u00dc'
p1514
I1
sS'60a8cc8e6b3d'
p1515
I1
sS'divider'
p1516
I3
sS'nyg'
p1517
I3
sS'a179'
p1518
I1
sS'c4653df4'
p1519
I1
sS'8740'
p1520
I1
sS'map'
p1521
I1
sS'142'
p1522
I2
sS'143'
p1523
I2
sS'140'
p1524
I4
sS'19b1'
p1525
I1
sS'may'
p1526
I1
sS'max'
p1527
I1
sS'qJvYJEHUnPp8pRFa0yod4Q'
p1528
I1
sS'3348'
p1529
I1
sS'13872472'
p1530
I22
sS'explored'
p1531
I1
sS'slotData'
p1532
I3
sS'reverseHighlight'
p1533
I1
sS'STR'
p1534
I44
sS'date'
p1535
I6
sS'neg'
p1536
I1
sS'DZhuasBVpi4kQV2YbmrA'
p1537
I1
sS'data'
p1538
I652
sS'View'
p1539
I4
sS'enableGroupByStatus'
p1540
I1
sS'Exclusive'
p1541
I1
sS'Gomez'
p1542
I2
sS'builds'
p1543
I2
sS'a17a'
p1544
I1
sS'autos'
p1545
I5
sS'enableUpdateButton'
p1546
I1
sS'entity'
p1547
I10
sS'sp'
p1548
I14
sS'SanBerna'
p1549
I1
sS'REMOVETEXT'
p1550
I1
sS'st'
p1551
I3
sS'q'
p1552
I13
sS'30346010'
p1553
I1
sS'30346013'
p1554
I5
sS'so'
p1555
I3
sS'30346014'
p1556
I7
sS'sc'
p1557
I1
sS'sb'
p1558
I4
sS'sa'
p1559
I9
sS'72fb73a6ce97'
p1560
I1
sS'sf'
p1561
I4
sS'sd'
p1562
I2
sS'exclusive'
p1563
I1
sS'serving'
p1564
I1
sS'3a8b'
p1565
I1
sS'flbk'
p1566
I2
sS'tts'
p1567
I30
sS'970b'
p1568
I1
sS'Breaking'
p1569
I3
sS'SEARCHTERMS'
p1570
I1
sS'KingsRoad'
p1571
I2
sS'Jan'
p1572
I5
sS'colo'
p1573
I1
sS'lst'
p1574
I17
sS'e7b6'
p1575
I1
sS'nbsp'
p1576
I17
sS'c1c7b7da2d25'
p1577
I1
sS'163444429'
p1578
I4
sS'White'
p1579
I13
sS'115b3b1d'
p1580
I1
sS'pointer'
p1581
I3
sS'Sheen'
p1582
I7
sS'gta'
p1583
I2
sS'Accord'
p1584
I2
sS'HAS'
p1585
I1
sS'group'
p1586
I2
sS'thumb'
p1587
I32
sS'the\xe2\x80\xa6'
p1588
I1
sS'ADSDISLIKETEXT'
p1589
I1
sS'comic'
p1590
I16
sS'Assist'
p1591
I3
sS'TNMOD'
p1592
I2
sS'd869'
p1593
I1
sS'63794'
p1594
I8
sS'norquay'
p1595
I1
sS'window'
p1596
I19
sS'cookieSignKey'
p1597
I1
sS'66aa3aa10773'
p1598
I1
sS'firstitem'
p1599
I1
sS'c3f108ff'
p1600
I1
sS'tweets'
p1601
I3
sS'mail'
p1602
I20
sS'main'
p1603
I29
sS'324f'
p1604
I6
sS'Stuns'
p1605
I1
sS'pluginhost'
p1606
I13
sS'898d'
p1607
I1
sS'non'
p1608
I3
sS'finance'
p1609
I39
sS'views'
p1610
I2
sS'ENABLED'
p1611
I1
sS'removeEventListener'
p1612
I1
sS'c4cbc687'
p1613
I1
sS'instance'
p1614
I26
sS'nation'
p1615
I2
sS'encountered'
p1616
I3
sS'records'
p1617
I1
sS'Show\xe2\x80\x99'
p1618
I4
sS'She'
p1619
I2
sS'qmEHokCBiqiBH7liZLFoOw'
p1620
I1
sS'36e5'
p1621
I1
sS'now'
p1622
I17
sS'killed'
p1623
I1
sS'89ed'
p1624
I1
sS'3584290'
p1625
I2
sS'beaconsDisabled'
p1626
I1
sS'RETAIN'
p1627
I1
sS'name'
p1628
I88
sS'7298'
p1629
I1
sS'mcode'
p1630
I1
sS'errorDetails'
p1631
I1
sS'drop'
p1632
I4
sS'38c5'
p1633
I1
sS'95e71e1a'
p1634
I1
sS'adsLREC'
p1635
I2
sS'focusInput'
p1636
I3
sS'3Filc'
p1637
I2
sS'animPlay'
p1638
I1
sS'95c97ab148cd'
p1639
I3
sS'8e18'
p1640
I1
sS'em'
p1641
I4
sS'ovr'
p1642
I5
sS'domain'
p1643
I2
sS'en'
p1644
I29
sS'ei'
p1645
I1
sS'Contest'
p1646
I4
sS'ed'
p1647
I43
sS'6f5b1f6c'
p1648
I1
sS'R5lPtuJowvuxag'
p1649
I1
sS'QV2YbmrA'
p1650
I2
sS'Barack'
p1651
I8
sS'Live'
p1652
I3
sS'ae2afc8cc600fd74ae1c9ec8b4c54747'
p1653
I1
sS'ex'
p1654
I1
sS'v12'
p1655
I1
sS'sexually'
p1656
I1
sS'up\xe2\x80\xa6'
p1657
I1
sS'ew'
p1658
I1
sS'c694'
p1659
I1
sS'ep'
p1660
I1
sS'surprise'
p1661
I1
sS'origWidth'
p1662
I3
sS'troll'
p1663
I1
sS'billions'
p1664
I1
sS'container'
p1665
I12
sS'3rd'
p1666
I1
sS'jokes'
p1667
I1
sS'b45e'
p1668
I1
sS'enableSettingspane'
p1669
I1
sS'locationPickerEnabled'
p1670
I1
sS'tablite'
p1671
I6
sS'increase'
p1672
I4
sS'videoPlayerJs'
p1673
I1
sS'2b14'
p1674
I1
sS'searchTracking'
p1675
I1
sS'staticflickr'
p1676
I10
sS'createElement'
p1677
I1
sS'bkn'
p1678
I1
sS'shows'
p1679
I1
sS'inevitably'
p1680
I1
sS'Stone'
p1681
I2
sS'15969ed2a1d0'
p1682
I1
sS'G'
p1683
I1
sS'Pregnant'
p1684
I1
sS'crossfade'
p1685
I1
sS'RAIL'
p1686
I1
sS'330a'
p1687
I1
sS'629e842e'
p1688
I1
sS'uFj0TgSGx4FipilETrWmkQ'
p1689
I1
sS'didachus67'
p1690
I1
sS'california'
p1691
I1
sS'Chappelle'
p1692
I6
sS'23501464285'
p1693
I2
sS'org'
p1694
I12
sS'ord'
p1695
I2
sS'b11b'
p1696
I1
sS'care'
p1697
I2
sS'Will'
p1698
I5
sS'Videos'
p1699
I1
sS'Battery'
p1700
I1
sS'App'
p1701
I3
sS'Tournament'
p1702
I4
sS'swipeFilterEnabled'
p1703
I1
sS'nofollow'
p1704
I6
sS'Sign'
p1705
I11
sS'yui'
p1706
I125
sS'25021335'
p1707
I1
sS'192807213'
p1708
I1
sS'fc'
p1709
I3
sS'separator'
p1710
I8
sS'40x40'
p1711
I3
sS'a293'
p1712
I1
sS'charleston'
p1713
I1
sS'promotion'
p1714
I2
sS'think'
p1715
I1
sS'1000'
p1716
I2
sS'623'
p1717
I1
sS'intuition'
p1718
I1
sS'620'
p1719
I1
sS'MA'
p1720
I1
sS'xl'
p1721
I17
sS'autosuggest'
p1722
I3
sS'Royal'
p1723
I3
sS'90e1'
p1724
I1
sS'Asia'
p1725
I1
sS'one'
p1726
I3
sS'Black'
p1727
I1
sS'long'
p1728
I3
sS'15000'
p1729
I3
sS'9d9a'
p1730
I1
sS'1K'
p1731
I2
sS'Flickr'
p1732
I4
sS'tomorrow'
p1733
I2
sS'size'
p1734
I7
sS'city'
p1735
I4
sS'little'
p1736
I1
sS'31d8'
p1737
I1
sS'FINANCE'
p1738
I1
sS'district'
p1739
I1
sS'width'
p1740
I67
sS'sCNhRpfR2ArbGFgCA'
p1741
I1
sS'3584278'
p1742
I4
sS'f86'
p1743
I8
sS'e8f227b5f6bc'
p1744
I1
sS'shortTitle'
p1745
I41
sS'response'
p1746
I1
sS'FBJSC'
p1747
I1
sS'FR1'
p1748
I1
sS'2'
p1749
I129
sS'params'
p1750
I1
sS'Lifestyles'
p1751
I1
sS'carousel'
p1752
I12
sS'3D500'
p1753
I1
sS'Date'
p1754
I2
sS'white'
p1755
I3
sS'3aae'
p1756
I1
sS'sheen'
p1757
I1
sS'User'
p1758
I2
sS'3878'
p1759
I1
sS'searchBackToTopEnabled'
p1760
I1
sS'8d76'
p1761
I1
sS'0018b3893e3b'
p1762
I1
sS'cookieErrorHtml'
p1763
I1
sS'season'
p1764
I1
sS'69d12d35afd7'
p1765
I1
sS'circulated'
p1766
I1
sS'9d95'
p1767
I1
sS'broadcast'
p1768
I1
sS'hw47'
p1769
I1
sS'ModulePlatform'
p1770
I1
sS'textindent'
p1771
I2
sS'd96972348e15'
p1772
I1
sS'x2'
p1773
I1
sS'x3'
p1774
I6
sS'30345871'
p1775
I7
sS'holder'
p1776
I11
sS'than'
p1777
I2
sS'png'
p1778
I58
sS'11'
p1779
I7
sS'10'
p1780
I25
sS'13'
p1781
I18
sS'12'
p1782
I39
sS'15'
p1783
I15
sS'14'
p1784
I12
sS'17'
p1785
I10
sS'16'
p1786
I13
sS'19'
p1787
I19
sS'18'
p1788
I15
sS'3118'
p1789
I1
sS'LIST'
p1790
I2
sS'typography'
p1791
I3
sS'halls'
p1792
I1
sS'Sears'
p1793
I8
sS'b1f65eb34961'
p1794
I1
sS'r'
p1795
I151
sS'apples'
p1796
I1
sS'JadaPink'
p1797
I1
sS'were'
p1798
I2
sS'Advertise'
p1799
I1
sS'outcome'
p1800
I56
sS'russia'
p1801
I2
sS'browser'
p1802
I3
sS'f82d222c3657'
p1803
I1
sS'33a2'
p1804
I1
sS'san'
p1805
I10
sS'sam'
p1806
I1
sS'sac'
p1807
I3
sS'b9ee'
p1808
I1
sS'topics'
p1809
I1
sS'f148'
p1810
I1
sS'3908'
p1811
I1
sS'ani'
p1812
I1
sS'32d1'
p1813
I1
sS'say'
p1814
I2
sS'd97ef030'
p1815
I1
sS'Mail'
p1816
I6
sS'Main'
p1817
I1
sS'any'
p1818
I4
sS'ADS'
p1819
I1
sS'd6e8'
p1820
I1
sS'rcnt'
p1821
I2
sS'Pho'
p1822
I1
sS'98e6'
p1823
I1
sS'homerun'
p1824
I7
sS'3f45'
p1825
I1
sS'ideas'
p1826
I2
sS'3f41'
p1827
I1
sS'9f7d1b4a43a7'
p1828
I1
sS'e832ff150b86'
p1829
I1
sS'JIy17qtx5'
p1830
I1
sS'd8258f327e19'
p1831
I1
sS'87c1e6e5f63e'
p1832
I1
sS'performance'
p1833
I12
sS'personalized'
p1834
I1
sS'001000619'
p1835
I3
sS'btns'
p1836
I5
sS'1a06'
p1837
I3
sS'200'
p1838
I1
sS'begin'
p1839
I2
sS'sure'
p1840
I1
sS'normal'
p1841
I7
sS'track'
p1842
I4
sS'price'
p1843
I3
sS'universalheader'
p1844
I14
sS'israeli'
p1845
I1
sS'07f8ac32'
p1846
I1
sS'390d'
p1847
I1
sS'renderFile'
p1848
I1
sS'assault'
p1849
I1
sS'84f1'
p1850
I1
sS'7830ec1e'
p1851
I1
sS'stormed'
p1852
I1
sS'214736894'
p1853
I1
sS'GOP'
p1854
I2
sS'icon'
p1855
I144
sS'213203040'
p1856
I1
sS'140602'
p1857
I1
sS'BurstingPipe'
p1858
I1
sS'050842181'
p1859
I1
sS'NRA'
p1860
I1
sS'shooter'
p1861
I3
sS'bdae'
p1862
I4
sS'SpaceID'
p1863
I8
sS'raquo'
p1864
I3
sS'774fb990'
p1865
I1
sS'uru6SBxlnV2oCy5txpHfzCIwZ272'
p1866
I1
sS'ee0631b5a89b'
p1867
I1
sS'bxJtILeiXrCsM4Jz4Po0bQ'
p1868
I1
sS'ontouchstart'
p1869
I1
sS'AlphaImageLoader'
p1870
I1
sS'ShockwaveFlash'
p1871
I2
sS'd3f5'
p1872
I1
sS'Web'
p1873
I2
sS'Trending'
p1874
I3
sS'shot'
p1875
I1
sS'show'
p1876
I10
sS'MDBM'
p1877
I20
sS'353'
p1878
I2
sS'DZhuasBVvDuuQV2YbmrA'
p1879
I1
sS'9c83'
p1880
I1
sS'Political'
p1881
I1
sS'Subfooter'
p1882
I2
sS'datetime'
p1883
I4
sS'Reuters'
p1884
I4
sS'3efe'
p1885
I1
sS'35a3'
p1886
I1
sS'u00d8'
p1887
I1
sS'35a1'
p1888
I1
sS'forecast'
p1889
I7
sS'Ski'
p1890
I5
sS'crashing'
p1891
I1
sS'3b61'
p1892
I3
sS'We'
p1893
I5
sS'297997177'
p1894
I2
sS'title'
p1895
I208
sS'Sacramento'
p1896
I1
sS'Berlin'
p1897
I1
sS'292031'
p1898
I2
sS'fb'
p1899
I1
sS'navigationtime'
p1900
I1
sS'tabFilter'
p1901
I1
sS'440b'
p1902
I1
sS'b05a'
p1903
I1
sS'Load'
p1904
I3
sS'k2E2ERate'
p1905
I1
sS'fixedMastheadEnabled'
p1906
I1
sS'get'
p1907
I4
sS'4880'
p1908
I1
sS'H'
p1909
I3
sS'3368'
p1910
I1
sS'5c014469ee04'
p1911
I6
sS'8a97'
p1912
I5
sS'u00d1'
p1913
I1
sS'Large'
p1914
I1
sS'Magazine'
p1915
I2
sS'fdb'
p1916
I21
sS'Products'
p1917
I1
sS'u00d2'
p1918
I1
sS'dffrontpagecontest'
p1919
I6
sS'budget'
p1920
I1
sS'2b2fe3bd'
p1921
I1
sS'denials'
p1922
I1
sS'geo'
p1923
I3
sS'ADs'
p1924
I6
sS'disabled'
p1925
I3
sS'sbox'
p1926
I15
sS'scrollBuffer'
p1927
I1
sS'EqqhUvz'
p1928
I1
sS'stocksphotography'
p1929
I1
sS'b37f78b0d20c'
p1930
I1
sS'summary'
p1931
I21
sS'67b6569e16'
p1932
I1
sS'3b6c'
p1933
I1
sS'66f1'
p1934
I1
sS'srpAssetURL'
p1935
I1
sS'0e86c700'
p1936
I1
sS'JERUSALEM'
p1937
I1
sS'where'
p1938
I2
sS'husband'
p1939
I7
sS'343e15048b24'
p1940
I1
sS'declared'
p1941
I50
sS'0cc0373f'
p1942
I1
sS'concert'
p1943
I1
sS'dt151204'
p1944
I2
sS'rmx'
p1945
I3
sS'5012aacb'
p1946
I1
sS'eb620e9316b1'
p1947
I1
sS'up'
p1948
I15
sS'396c'
p1949
I1
sS'8017'
p1950
I1
sS'0f708974'
p1951
I1
sS'calendar'
p1952
I1
sS'fdn'
p1953
I1
sS'9fe5'
p1954
I1
sS'wonder'
p1955
I1
sS'c858bbb6632a'
p1956
I1
sS'suspects'
p1957
I1
sS'Shopping'
p1958
I3
sS'parent'
p1959
I27
sS'That'
p1960
I1
sS'adPromoNodeHack'
p1961
I1
sS'subsequent'
p1962
I1
sS'review'
p1963
I2
sS'9ec4'
p1964
I1
sS'sites'
p1965
I2
sS'9ec1'
p1966
I4
sS'label'
p1967
I47
sS'3'
p1968
I312
sS'c8e5'
p1969
I1
sS'34c6'
p1970
I1
sS'between'
p1971
I1
sS'is3rd'
p1972
I3
sS'a6e9'
p1973
I1
sS'Thai'
p1974
I4
sS'priming'
p1975
I1
sS'DARLA'
p1976
I11
sS'df784b1a8c71debabf182f8ecc050f1c'
p1977
I1
sS'notice'
p1978
I1
sS'vertical'
p1979
I3
sS'DeGeneres'
p1980
I1
sS'3199'
p1981
I1
sS'screen'
p1982
I12
sS'OnloadCache'
p1983
I2
sS'26'
p1984
I8
sS'js'
p1985
I270
sS'blame'
p1986
I2
sS'56c8956e'
p1987
I1
sS'jets'
p1988
I1
sS'Hero'
p1989
I2
sS'tuc'
p1990
I10
sS'DZhuasBVZKgwQV2YbmrA'
p1991
I1
sS'TODAY'
p1992
I1
sS'overlayEnabled'
p1993
I1
sS'INTERESTS'
p1994
I5
sS'fried'
p1995
I5
sS'f1bc'
p1996
I1
sS'3b32'
p1997
I1
sS'\xc2\xa0reported'
p1998
I1
sS'region'
p1999
I1
sS'3cd1'
p2000
I1
sS'hours'
p2001
I1
sS'job'
p2002
I6
sS'd081'
p2003
I1
sS'colour3'
p2004
I1
sS'd7c8e76dad70'
p2005
I1
sS'3aeffcd1'
p2006
I6
sS'e6f65d63'
p2007
I1
sS'Zxw6DWkiE1Pg'
p2008
I1
sS'8d279622'
p2009
I1
sS'b877f6324bfc'
p2010
I1
sS'bb70'
p2011
I5
sS'ywaTrackingEnabled'
p2012
I1
sS'color'
p2013
I3
sS'Travel'
p2014
I2
sS'jeans'
p2015
I5
sS'pos'
p2016
I186
sS'dispatch'
p2017
I1
sS'300x250'
p2018
I1
sS'61'
p2019
I2
sS'62'
p2020
I1
sS'3006'
p2021
I1
sS'setprt'
p2022
I1
sS'8bcf'
p2023
I1
sS'tagName'
p2024
I4
sS'67'
p2025
I5
sS'parseInt'
p2026
I1
sS'fptoday'
p2027
I21
sS'd7c6bcb2'
p2028
I1
sS'7797'
p2029
I1
sS'turkey'
p2030
I5
sS'b73a'
p2031
I3
sS'Beauty'
p2032
I2
sS'stretch'
p2033
I2
sS'west'
p2034
I1
sS'Didn'
p2035
I1
sS'mart'
p2036
I1
sS'Personal'
p2037
I1
sS'25021324'
p2038
I1
sS'6712c1a5344d'
p2039
I1
sS'renderPath'
p2040
I1
sS'setimp'
p2041
I1
sS'be94'
p2042
I1
sS'Buf'
p2043
I1
sS'500'
p2044
I7
sS'3b830428'
p2045
I1
sS'enable'
p2046
I3
sS'e4a10c28'
p2047
I1
sS'50K'
p2048
I2
sS'd7c3'
p2049
I1
sS'bernardino'
p2050
I9
sS'8bc8'
p2051
I1
sS'1402544433026922'
p2052
I3
sS'centerpiece'
p2053
I1
sS'photos'
p2054
I13
sS'versions'
p2055
I1
sS'isLoggedOutPage'
p2056
I1
sS'bmw'
p2057
I2
sS'Learn'
p2058
I2
sS'White\xe2\x80\xa6'
p2059
I1
sS'94d3'
p2060
I1
sS'former'
p2061
I1
sS'actions'
p2062
I1
sS'DaveChap'
p2063
I1
sS'crumb'
p2064
I3
sS'hdr'
p2065
I4
sS'To'
p2066
I2
sS'Dilbert'
p2067
I1
sS'e68b'
p2068
I1
sS'Suggestions'
p2069
I2
sS'className'
p2070
I10
sS'pacers'
p2071
I1
sS'BusinessInsider'
p2072
I4
sS'batchPause'
p2073
I1
sS'27ce'
p2074
I1
sS'05T00'
p2075
I2
sS'promising'
p2076
I1
sS'investigating'
p2077
I1
sS'Open'
p2078
I2
sS'taking'
p2079
I1
sS'Woman'
p2080
I1
sS'5dc0'
p2081
I1
sS'13f7f781094a'
p2082
I1
sS'ctrl'
p2083
I11
sS'ed255be2afc1'
p2084
I1
sS'utils'
p2085
I3
sS'bros'
p2086
I4
sS'according'
p2087
I1
sS'parse'
p2088
I6
sS'option2'
p2089
I4
sS'23b8da2a1190'
p2090
I3
sS'30345868'
p2091
I7
sS'ym'
p2092
I4
sS'8404'
p2093
I1
sS'fame'
p2094
I4
sS'Profile'
p2095
I1
sS'party'
p2096
I1
sS'Israel'
p2097
I6
sS'44815'
p2098
I1
sS'erroneously'
p2099
I1
sS'Complete'
p2100
I1
sS'palestinians'
p2101
I1
sS'1449148308'
p2102
I2
sS'media'
p2103
I63
sS'checkFocus'
p2104
I3
sS'62fa36d344'
p2105
I1
sS'configurable'
p2106
I2
sS'76748608'
p2107
I1
sS'CassieCarothers'
p2108
I1
sS'html'
p2109
I99
sS'arguments'
p2110
I6
sS'coworkers'
p2111
I1
sS'1449220198'
p2112
I1
sS'lite'
p2113
I3
sS'document'
p2114
I14
sS'3f7f'
p2115
I1
sS'yc'
p2116
I10
sS'newHeight'
p2117
I4
sS'XXL'
p2118
I1
sS'status'
p2119
I1
sS'UTC'
p2120
I1
sS'Recreation'
p2121
I2
sS'putin'
p2122
I4
sS'UTF'
p2123
I1
sS'uievents'
p2124
I6
sS'abandoned'
p2125
I2
sS'I'
p2126
I15
sS'IS'
p2127
I1
sS'bcnAutoOpen'
p2128
I2
sS'Fuels'
p2129
I2
sS'deflate'
p2130
I1
sS'1404ad7f'
p2131
I1
sS'II'
p2132
I1
sS'90f0'
p2133
I1
sS'allowFiF'
p2134
I1
sS'relevantads'
p2135
I4
sS'horizontalPadding'
p2136
I1
sS'politicizing'
p2137
I1
sS'386c'
p2138
I1
sS'a0576e90'
p2139
I1
sS'cr'
p2140
I3
sS'976434b888fe'
p2141
I1
sS'276b81c2ad43'
p2142
I1
sS'slug'
p2143
I1
sS'134160057'
p2144
I1
sS'673168'
p2145
I1
sS'38cb'
p2146
I1
sS'61a57c37822d'
p2147
I1
sS'a2a85568a22a'
p2148
I1
sS'Is'
p2149
I4
sS'It'
p2150
I8
sS'3fc5'
p2151
I1
sS'without'
p2152
I1
sS'dffrontpage'
p2153
I7
sS'8ee4'
p2154
I1
sS'In'
p2155
I3
sS'frontpage'
p2156
I1
sS'7241469'
p2157
I2
sS'Surveys'
p2158
I2
sS'Loading'
p2159
I2
sS'Service'
p2160
I3
sS'resp'
p2161
I53
sS'3584207'
p2162
I2
sS'spaceID'
p2163
I1
sS'Plastic'
p2164
I1
sS'u00dd'
p2165
I1
sS'Kmart'
p2166
I1
sS'livevent'
p2167
I10
sS'invalid'
p2168
I1
sS'harrison'
p2169
I3
sS'fntsyfb'
p2170
I1
sS'touch'
p2171
I1
sS'3e89'
p2172
I1
sS'personals'
p2173
I1
sS'Markets'
p2174
I1
sS'053658560'
p2175
I1
sS'0d28ce10'
p2176
I1
sS'euros'
p2177
I1
sS'newWebGossipUrlEnable'
p2178
I1
sS'24f6'
p2179
I1
sS'subfooter'
p2180
I8
sS'desktop'
p2181
I16
sS'cc'
p2182
I1
sS'4'
p2183
I73
sS'preferences'
p2184
I7
sS'Scores'
p2185
I1
sS'a155'
p2186
I1
sS'23131361449'
p2187
I2
sS'det2'
p2188
I1
sS'08376efe'
p2189
I3
sS'Change'
p2190
I2
sS'3423'
p2191
I1
sS'kingdom'
p2192
I3
sS'fa9b2e2b'
p2193
I1
sS'30345786'
p2194
I7
sS'hover'
p2195
I5
sS'b86e'
p2196
I1
sS'SECONDLABEL'
p2197
I1
sS'af5'
p2198
I2
sS'read'
p2199
I2
sS'por'
p2200
I3
sS'calendars'
p2201
I5
sS'30345789'
p2202
I7
sS'3584208'
p2203
I1
sS'dark'
p2204
I1
sS'c8a'
p2205
I3
sS'Tag'
p2206
I2
sS'DZhuasBVl9vtQF2YbmrA'
p2207
I1
sS'grid'
p2208
I1
sS'preference'
p2209
I1
sS'ENTITY'
p2210
I3
sS'world'
p2211
I4
sS'Teigen'
p2212
I3
sS'mahjong'
p2213
I1
sS'44b62a7b4892'
p2214
I1
sS'adprop'
p2215
I11
sS'mod'
p2216
I49
sS'17af0427'
p2217
I1
sS'2df7223a'
p2218
I1
sS'mkxEVyFID'
p2219
I1
sS'30346005'
p2220
I4
sS'How'
p2221
I3
sS'38ad'
p2222
I1
sS'Show'
p2223
I5
sS'nt'
p2224
I1
sS'lbl3'
p2225
I1
sS'2917f732'
p2226
I1
sS'oddly'
p2227
I1
sS'e4700936'
p2228
I1
sS'lockOrdering'
p2229
I1
sS'6dc3b7b977b5'
p2230
I1
sS'Something'
p2231
I2
sS'SUGGESTION'
p2232
I2
sS'appid'
p2233
I2
sS'64'
p2234
I2
sS'passionate'
p2235
I1
sS'why'
p2236
I1
sS'65'
p2237
I2
sS'326b'
p2238
I1
sS'3003'
p2239
I6
sS'Entertainment'
p2240
I2
sS'dilbert'
p2241
I5
sS'MOSCOW'
p2242
I1
sS'paramQuery'
p2243
I1
sS'signedout'
p2244
I1
sS'Mart'
p2245
I2
sS'butt'
p2246
I1
sS'glbl'
p2247
I6
sS'Ellen'
p2248
I2
sS'VFhJfb3h5u3zOmOd57w1YA'
p2249
I1
sS'images'
p2250
I72
sS'New'
p2251
I6
sS'videoplayer'
p2252
I2
sS'navlist'
p2253
I1
sS'2cdc79c2'
p2254
I1
sS'viral'
p2255
I1
sS'367a'
p2256
I1
sS'd70d6fea4d2b'
p2257
I1
sS'in\xe2\x80\xa6'
p2258
I1
sS'confirm'
p2259
I1
sS'NOENTITIESLIKE'
p2260
I1
sS'Answers'
p2261
I2
sS'cv'
p2262
I1
sS'ec8b'
p2263
I1
sS'230415748'
p2264
I4
sS'smush'
p2265
I11
sS'ddm'
p2266
I2
sS'321b4bd9'
p2267
I1
sS'71'
p2268
I1
sS'DZhuasBVUdlBP12YbmrA'
p2269
I1
sS'dda'
p2270
I7
sS'bmwi8'
p2271
I1
sS'bod'
p2272
I1
sS'33e1'
p2273
I1
sS'72f084f3da6c'
p2274
I1
sS'tdh'
p2275
I5
sS'timeout'
p2276
I2
sS'yqlhost'
p2277
I1
sS'Comics'
p2278
I1
sS'tree'
p2279
I10
sS'Exclu'
p2280
I1
sS'iconic'
p2281
I3
sS'slaughter'
p2282
I2
sS'Flagship'
p2283
I5
sS'15014391'
p2284
I7
sS'3262'
p2285
I1
sS'Rossi'
p2286
I1
sS'3266'
p2287
I1
sS'61e2ec4f164a'
p2288
I1
sS'thailand'
p2289
I1
sS'serveTime'
p2290
I4
sS'1311624013627446'
p2291
I2
sS'src'
p2292
I91
sS'stone'
p2293
I1
sS'ol'
p2294
I8
sS'ok'
p2295
I1
sS'srst'
p2296
I1
sS'package'
p2297
I22
sS'16d0eade169f'
p2298
I1
sS'savedSign'
p2299
I1
sS'oc'
p2300
I1
sS'toUpperCase'
p2301
I1
sS'side'
p2302
I62
sS'clientonly'
p2303
I1
sS'srp'
p2304
I1
sS'srv'
p2305
I3
sS'stand'
p2306
I2
sS'ecab13907529'
p2307
I4
sS'ov'
p2308
I52
sS'd05835bb'
p2309
I1
sS'os'
p2310
I57
sS'road'
p2311
I1
sS'op'
p2312
I4
sS'Farook'
p2313
I3
sS'Upgrade'
p2314
I1
sS'in\xc2\xa0San'
p2315
I1
sS'Ads'
p2316
I1
sS'No'
p2317
I5
sS'beacons'
p2318
I1
sS'redirwoei'
p2319
I1
sS'image'
p2320
I113
sS'25792b63e2df'
p2321
I2
sS'luann'
p2322
I3
sS'3ce1'
p2323
I1
sS'zenfs'
p2324
I18
sS'restoreStateMethod'
p2325
I1
sS'3189'
p2326
I1
sS'045611118'
p2327
I1
sS'7be4'
p2328
I1
sS'cda44791bd41'
p2329
I1
sS'your'
p2330
I20
sS'e04a'
p2331
I1
sS'loc'
p2332
I12
sS'8b07424e'
p2333
I1
sS'eab45fa4cc2a'
p2334
I1
sS'her'
p2335
I12
sS'NO'
p2336
I1
sS'sF5pZF3bzP2PCmxNwIrptA'
p2337
I1
sS'FARMINGTON'
p2338
I1
sS'fe67'
p2339
I1
sS'lon'
p2340
I1
sS'json'
p2341
I7
sS'ba2a5fe3f20b'
p2342
I1
sS'sampling'
p2343
I2
sS'NY'
p2344
I3
sS'searchAssistArrowEnabled'
p2345
I1
sS'lions'
p2346
I1
sS'stars'
p2347
I2
sS'ipv6'
p2348
I1
sS'hysterical'
p2349
I1
sS'iosTabletCrumb'
p2350
I1
sS'Obama'
p2351
I10
sS'lang'
p2352
I5
sS'a4b7'
p2353
I9
sS'closeBtn'
p2354
I1
sS'sid'
p2355
I1
sS'enough'
p2356
I2
sS'3584190'
p2357
I4
sS'170800340'
p2358
I1
sS'sdaRefreshEnabled'
p2359
I1
sS'delayed'
p2360
I1
sS'Blazing'
p2361
I1
sS'change'
p2362
I5
sS'90cab75e'
p2363
I1
sS'FPAD'
p2364
I3
sS'3076'
p2365
I1
sS'Small'
p2366
I1
sS'yhoo'
p2367
I2
sS'78e2be271625'
p2368
I1
sS'detailUrl'
p2369
I42
sS'pbid'
p2370
I3
sS'ff458d7b'
p2371
I1
sS'Ad'
p2372
I5
sS'abused'
p2373
I2
sS'7ebfd178'
p2374
I1
sS'd681a11e39ed'
p2375
I1
sS'hjsal'
p2376
I1
sS'rotation'
p2377
I1
sS'comics'
p2378
I20
sS'House'
p2379
I13
sS'bucket'
p2380
I3
sS'b430'
p2381
I1
sS'Pogue'
p2382
I3
sS'message'
p2383
I1
sS'3584289'
p2384
I2
sS'3584288'
p2385
I2
sS'ymail'
p2386
I1
sS'3de534b4'
p2387
I1
sS'Close'
p2388
I11
sS'embed'
p2389
I5
sS'hasCustomAppOrder'
p2390
I1
sS'3584281'
p2391
I2
sS'3584280'
p2392
I2
sS'3584283'
p2393
I2
sS'detailed'
p2394
I2
sS'Delivered'
p2395
I1
sS'193dc624'
p2396
I1
sS'moveStart'
p2397
I1
sS'ad'
p2398
I34
sS'videos'
p2399
I8
sS'af'
p2400
I17
sS'094802822'
p2401
I4
sS'81d8507d57b5'
p2402
I1
sS'WIKIID'
p2403
I104
sS'Thursday'
p2404
I2
sS'an'
p2405
I1
sS'5649'
p2406
I1
sS'ap'
p2407
I15
sS'landscape'
p2408
I1
sS'Hou'
p2409
I1
sS'photography'
p2410
I1
sS'Chickweed'
p2411
I1
sS'3584260'
p2412
I2
sS'shopping'
p2413
I2
sS'Stubbs'
p2414
I1
sS'CACHEBUSTER'
p2415
I1
sS'hpset'
p2416
I2
sS'635'
p2417
I6
sS'again'
p2418
I3
sS'hdln2'
p2419
I4
sS'7af51410729e'
p2420
I1
sS'QqbA'
p2421
I1
sS'3107'
p2422
I1
sS'storage'
p2423
I6
sS'watchnow'
p2424
I1
sS'Ankara'
p2425
I1
sS'tight'
p2426
I2
sS'5'
p2427
I29
sS'addEventListener'
p2428
I5
sS'25021267'
p2429
I1
sS'you'
p2430
I19
sS'Ross'
p2431
I1
sS'25021262'
p2432
I1
sS'At'
p2433
I1
sS'opacity'
p2434
I2
sS'Stream'
p2435
I6
sS'b6b0'
p2436
I1
sS'93e7'
p2437
I1
sS'pillows'
p2438
I5
sS'Vladimir'
p2439
I2
sS'offensive'
p2440
I2
sS'students'
p2441
I2
sS'symbol'
p2442
I1
sS'dee5'
p2443
I1
sS'trackimpj'
p2444
I1
sS'gifts'
p2445
I9
sS'a3'
p2446
I69
sS'a2'
p2447
I3
sS'a4'
p2448
I126
sS'DZhuasBVqstVQF2YbmrA'
p2449
I1
sS'SAVEDCTA'
p2450
I1
sS'stocks'
p2451
I1
sS'01a96e0d1fc8b9a45d0e5f2bf7562468f89a3353'
p2452
I1
sS'assetcbottom'
p2453
I1
sS'legal'
p2454
I1
sS'76b1'
p2455
I1
sS'assets'
p2456
I1
sS'wife'
p2457
I2
sS'srrt'
p2458
I1
sS'2fAIDS'
p2459
I2
sS'850d1f7a'
p2460
I1
sS'3Fp'
p2461
I1
sS'210038299'
p2462
I1
sS'd204ba94'
p2463
I1
sS'mast'
p2464
I20
sS'u'
p2465
I196
sS'Crime'
p2466
I1
sS'detachEvent'
p2467
I1
sS'hintswitch'
p2468
I1
sS'310b'
p2469
I1
sS'sortBy'
p2470
I1
sS'1DoiA'
p2471
I1
sS'all'
p2472
I16
sS'Times\xe2\x80\xa6'
p2473
I1
sS'Van'
p2474
I1
sS'3924'
p2475
I1
sS'8682928'
p2476
I1
sS'suns'
p2477
I1
sS'Obamacare'
p2478
I2
sS'month'
p2479
I2
sS'YUI'
p2480
I13
sS'code'
p2481
I5
sS'DXImageTransform'
p2482
I1
sS'removalMenuEnabled'
p2483
I1
sS'pty'
p2484
I6
sS'alt'
p2485
I68
sS'b987'
p2486
I1
sS'adsLREC2'
p2487
I4
sS'tpcGifUrl'
p2488
I1
sS'synthetic'
p2489
I3
sS'Brown'
p2490
I5
sS'a019'
p2491
I6
sS'0b702a3b2a24'
p2492
I1
sS'icons'
p2493
I4
sS'tv'
p2494
I7
sS'25941429036'
p2495
I3
sS'37eb'
p2496
I5
sS'tr'
p2497
I1
sS'e860'
p2498
I1
sS'Essential'
p2499
I1
sS'tn'
p2500
I42
sS'tl'
p2501
I6
sS'requestId'
p2502
I1
sS'TAB'
p2503
I1
sS'ti'
p2504
I16
sS'tf'
p2505
I1
sS'td'
p2506
I6
sS'even\xe2\x80\xa6'
p2507
I1
sS'homepage'
p2508
I8
sS'norm'
p2509
I2
sS'ta'
p2510
I61
sS'sdaRequestUrl'
p2511
I1
sS'case'
p2512
I2
sS'woman'
p2513
I4
sS'attribution'
p2514
I23
sS'returned'
p2515
I1
sS'sitting'
p2516
I1
sS'very'
p2517
I2
sS'27d5f4b4'
p2518
I1
sS'fav'
p2519
I1
sS'jsenabled'
p2520
I2
sS'keydown'
p2521
I1
sS'adsTL1'
p2522
I2
sS'392c'
p2523
I1
sS'LYNXMPEBB20ZF'
p2524
I1
sS'smartphones'
p2525
I1
sS'z7pzWH2GPMGC8EoEF'
p2526
I1
sS'newWidth'
p2527
I4
sS'got'
p2528
I1
sS'DJI'
p2529
I1
sS'fac'
p2530
I1
sS'B9190241'
p2531
I2
sS'Obamas'
p2532
I1
sS'ticker'
p2533
I5
sS'3f81'
p2534
I1
sS'nyqyhi2Wo31rqm58w'
p2535
I1
sS'09f3'
p2536
I1
sS'66d4'
p2537
I1
sS'sans'
p2538
I2
sS'334d'
p2539
I1
sS't6'
p2540
I1
sS'MENU'
p2541
I1
sS'celebrity'
p2542
I2
sS't5'
p2543
I1
sS't2'
p2544
I199
sS't3'
p2545
I220
sS't1'
p2546
I200
sS'large'
p2547
I11
sS'DZhuasBVk19kQV2YbmrA'
p2548
I1
sS'locationGhostText'
p2549
I1
sS'bcnDrawerOpen'
p2550
I2
sS'fewer'
p2551
I1
sS'small'
p2552
I10
sS'DZhuasBVsIWzQV2YbmrA'
p2553
I1
sS'9f19'
p2554
I1
sS'enableAppReordering'
p2555
I1
sS'defLoc'
p2556
I1
sS'USAToday'
p2557
I1
sS'context'
p2558
I1
sS'neighborhood'
p2559
I1
sS'214558347'
p2560
I1
sS'IXIC'
p2561
I1
sS'Willow'
p2562
I1
sS'948f'
p2563
I1
sS'unable'
p2564
I1
sS'192'
p2565
I2
sS'past'
p2566
I1
sS'winds'
p2567
I1
sS'Only'
p2568
I1
sS'intlLoc'
p2569
I1
sS'streamClickReordingEnabled'
p2570
I1
sS'plugins'
p2571
I1
sS'TzPXc9EE0qrg'
p2572
I1
sS'nba'
p2573
I27
sS'Giants'
p2574
I1
sS'cvn'
p2575
I1
sS'what'
p2576
I10
sS'Korea'
p2577
I14
sS'sub'
p2578
I14
sS'witnessed'
p2579
I2
sS'8fb5'
p2580
I1
sS'section'
p2581
I3
sS'comScore'
p2582
I2
sS'requestUrlLite'
p2583
I1
sS'78d9'
p2584
I1
sS'eef17346'
p2585
I1
sS'witnesses'
p2586
I2
sS'ford340'
p2587
I1
sS'30345661'
p2588
I4
sS'ABC7'
p2589
I1
sS'628cb896c1dd'
p2590
I1
sS'ad28'
p2591
I1
sS'hpCode'
p2592
I1
sS'learned'
p2593
I1
sS'99d1dcbb'
p2594
I1
sS'method'
p2595
I2
sS'3d43'
p2596
I1
sS'option1'
p2597
I4
sS'Russians'
p2598
I1
sS'full'
p2599
I1
sS'Clouds'
p2600
I2
sS'TEMPLATE'
p2601
I5
sS'b6ea'
p2602
I1
sS'tags'
p2603
I42
sS'c8d40073621d'
p2604
I1
sS'Charlie'
p2605
I7
sS'NFL'
p2606
I5
sS'bdd4'
p2607
I1
sS'answers'
p2608
I2
sS'7908'
p2609
I1
sS'beacon'
p2610
I20
sS'Someone'
p2611
I1
sS'33fe'
p2612
I1
sS'932519f3'
p2613
I1
sS'autoClose'
p2614
I1
sS'8ec9'
p2615
I1
sS'9d74b0bf0a00'
p2616
I1
sS'EMBED'
p2617
I1
sS'strong'
p2618
I2
sS'legend'
p2619
I3
sS'moneyballAdEnabled'
p2620
I1
sS'ftrimgstretch'
p2621
I3
sS'uzln9kcIORimZxsXnkFEpg'
p2622
I1
sS'search'
p2623
I129
sS'901'
p2624
I60
sS'videoPlayerPipEnable'
p2625
I1
sS'3d4e'
p2626
I1
sS'margin'
p2627
I3
sS'3d4f'
p2628
I5
sS'Scottine'
p2629
I1
sS'3a1a'
p2630
I7
sS'round'
p2631
I4
sS'Q5c7KxTa'
p2632
I1
sS'INTLS'
p2633
I1
sS'getElementById'
p2634
I1
sS'11d1'
p2635
I1
sS'advertising'
p2636
I1
sS'7df6fe0172d9'
p2637
I3
sS'social'
p2638
I3
sS'action'
p2639
I92
sS'8423ec17'
p2640
I1
sS'visit'
p2641
I1
sS'pregnancy'
p2642
I3
sS'pkgId'
p2643
I5
sS'rapidMarkup'
p2644
I1
sS'Style'
p2645
I2
sS'base64'
p2646
I5
sS'vid'
p2647
I13
sS'DZhuasBVdNp8QV2YbmrA'
p2648
I1
sS'Top'
p2649
I3
sS'puntin'
p2650
I2
sS'fzUOwed5MRtaSjYDQqKUHw'
p2651
I1
sS'href'
p2652
I345
sS'gunmen'
p2653
I1
sS'3daf'
p2654
I1
sS'hdnav'
p2655
I1
sS've'
p2656
I1
sS'adLT'
p2657
I5
sS'eye'
p2658
I1
sS'takes'
p2659
I1
sS'DZhuasBVXW4CQV2YbmrA'
p2660
I1
sS'30345876'
p2661
I5
sS'AFP'
p2662
I2
sS'destination'
p2663
I1
sS'Romano'
p2664
I3
sS'two'
p2665
I1
sS'0de3ef11'
p2666
I1
sS'8dd6'
p2667
I1
sS'Baseball'
p2668
I1
sS'd44f5bb0772c'
p2669
I1
sS'6'
p2670
I17
sS'useGlApi'
p2671
I2
sS'b53c'
p2672
I1
sS'markets'
p2673
I2
sS'mtestid'
p2674
I1
sS'gq1'
p2675
I3
sS'more'
p2676
I44
sS'interesttype'
p2677
I1
sS'newlyweds'
p2678
I2
sS'relevant'
p2679
I2
sS'31b9'
p2680
I1
sS'company'
p2681
I4
sS'livenationpromo'
p2682
I9
sS'g0qQ5mNbbL7gIHWExTXpWQ'
p2683
I1
sS'Gun'
p2684
I5
sS'6098bc68'
p2685
I1
sS'Shockwave'
p2686
I1
sS'Not'
p2687
I3
sS'a872'
p2688
I1
sS'Mass'
p2689
I9
sS'jsonp'
p2690
I15
sS'a3f5c13cb08f'
p2691
I1
sS'e9638e0ffe42'
p2692
I1
sS'8aa1'
p2693
I1
sS'yucs'
p2694
I1
sS'8ddd'
p2695
I1
sS'Content'
p2696
I3
sS'none'
p2697
I4
sS'endpoint'
p2698
I1
sS'aeb1'
p2699
I2
sS'documentElement'
p2700
I4
sS'SS'
p2701
I2
sS'sickeningly'
p2702
I1
sS'det'
p2703
I2
sS'1402537233026922'
p2704
I3
sS'dev'
p2705
I1
sS'autocomplete'
p2706
I2
sS'paragraph'
p2707
I1
sS'1913355YAHOOADMANAGER'
p2708
I2
sS'v'
p2709
I34
sS'Ind'
p2710
I1
sS'Correction'
p2711
I1
sS'SA'
p2712
I4
sS'male'
p2713
I1
sS'Tomorrow'
p2714
I1
sS'deg'
p2715
I16
sS'a3b3'
p2716
I1
sS'\xe2\x80\x98Tonight'
p2717
I4
sS'prompt'
p2718
I3
sS'b35192f8f306'
p2719
I1
sS'suggestions'
p2720
I5
sS'88a9'
p2721
I1
sS'slotID'
p2722
I3
sS'12000'
p2723
I1
sS'wave3'
p2724
I1
sS'sharp'
p2725
I1
sS'tabchange'
p2726
I1
sS'3068'
p2727
I6
sS'Calif'
p2728
I7
sS'kCJsbfxbyNLKKt7A'
p2729
I1
sS'information'
p2730
I1
sS'matchID'
p2731
I3
sS'startscreen'
p2732
I1
sS'hdline'
p2733
I1
sS'goal'
p2734
I1
sS'c6cd003e'
p2735
I1
sS'comscore'
p2736
I3
sS'shootings'
p2737
I3
sS'f17b'
p2738
I4
sS'videoPlayerAutoPlay'
p2739
I1
sS'comfort'
p2740
I4
sS'6ad1ff93'
p2741
I1
sS'xxxl'
p2742
I1
sS'3584317'
p2743
I2
sS'3584298'
p2744
I2
sS'1695'
p2745
I1
sS'716'
p2746
I1
sS'2K'
p2747
I2
sS'css'
p2748
I219
sS'fp'
p2749
I148
sS'rungs'
p2750
I1
sS'fr'
p2751
I34
sS'6b9d'
p2752
I1
sS'ft'
p2753
I48
sS'306f'
p2754
I1
sS'fw'
p2755
I43
sS'Cosmic'
p2756
I1
sS'fz'
p2757
I216
sS'prlink'
p2758
I1
sS'bff9'
p2759
I1
sS'altKey'
p2760
I1
sS'replace'
p2761
I1
sS'3584276'
p2762
I2
sS'disable'
p2763
I1
sS'3584271'
p2764
I1
sS'coming'
p2765
I4
sS'8792'
p2766
I1
sS'fl'
p2767
I45
sS'Dow'
p2768
I1
sS'ultSpaceId'
p2769
I1
sS'short'
p2770
I1
sS'3119'
p2771
I1
sS'footer'
p2772
I25
sS'dd3e097d'
p2773
I1
sS'bid'
p2774
I1
sS'departure'
p2775
I1
sS'classnamemanager'
p2776
I3
sS'callback'
p2777
I2
sS'25021273'
p2778
I1
sS'25021272'
p2779
I1
sS'25021275'
p2780
I1
sS'shade'
p2781
I1
sS'pay'
p2782
I1
sS'25021279'
p2783
I1
sS'inline'
p2784
I7
sS'0a97cdf4'
p2785
I3
sS'years'
p2786
I3
sS'tellUs'
p2787
I1
sS'uninstall'
p2788
I2
sS'pathPrefix'
p2789
I1
sS'What'
p2790
I2
sS'itm'
p2791
I140
sS'Arial'
p2792
I2
sS'help'
p2793
I1
sS'EXCLUSIV'
p2794
I1
sS'u00d4'
p2795
I1
sS'u00d5'
p2796
I1
sS'u00d6'
p2797
I1
sS'u00d0'
p2798
I1
sS'itc'
p2799
I218
sS'vtKQ'
p2800
I1
sS'Illinois'
p2801
I2
sS'ad02874e0c40'
p2802
I1
sS'b1c8'
p2803
I1
sS'0e5713ef5f42'
p2804
I1
sS'scott'
p2805
I1
sS'a98ecf63'
p2806
I1
sS'ncid'
p2807
I1
sS'signs'
p2808
I4
sS'001000931'
p2809
I5
sS'mcdonalds'
p2810
I1
sS'aaf8'
p2811
I1
sS'its'
p2812
I7
sS'a90e3b51'
p2813
I1
sS'24'
p2814
I11
sS'25'
p2815
I10
sS'style'
p2816
I126
sS'27'
p2817
I11
sS'20'
p2818
I17
sS'21'
p2819
I14
sS'22'
p2820
I12
sS'23'
p2821
I4
sS'formData'
p2822
I1
sS'28'
p2823
I13
sS'29'
p2824
I6
sS'MODULE'
p2825
I1
sS'bd34'
p2826
I1
sS'late'
p2827
I1
sS'wizards'
p2828
I1
sS'38a6'
p2829
I1
sS'53cd4f45'
p2830
I1
sS'might'
p2831
I1
sS'upping'
p2832
I1
sS'dacb056edc68'
p2833
I1
sS'comboBase'
p2834
I2
sS'yh'
p2835
I6
sS'good'
p2836
I1
sS'return'
p2837
I4
sS'strs'
p2838
I29
sS'a71e'
p2839
I2
sS'b1ee52d8'
p2840
I1
sS'food'
p2841
I16
sS'timestamp'
p2842
I1
sS'gadget'
p2843
I3
sS'9e91'
p2844
I1
sS'Bay'
p2845
I1
sS'pogue'
p2846
I1
sS'IgSQydpdVKKrRhznpTDAfw'
p2847
I1
sS'2F'
p2848
I23
sS'a1ea'
p2849
I1
sS'9931dcc5b07e'
p2850
I2
sS'foot'
p2851
I8
sS'u00de'
p2852
I1
sS'u00df'
p2853
I1
sS'viewtype'
p2854
I9
sS'stereotype\xe2\x80\xa6'
p2855
I1
sS'u00db'
p2856
I1
sS'Bai'
p2857
I2
sS'offscreen'
p2858
I5
sS'34fce7969a63'
p2859
I1
sS'1402776928'
p2860
I1
sS'onFailure'
p2861
I1
sS'Comedians'
p2862
I1
sS'always'
p2863
I3
sS'MSG'
p2864
I1
sS'Newton'
p2865
I2
sS'2x'
p2866
I1
sS'168747b6491e'
p2867
I1
sS'refresh'
p2868
I25
sS'c757e079'
p2869
I1
sS'Quotes'
p2870
I1
sS'526100'
p2871
I1
sS'Paulson'
p2872
I2
sS'uiplugins'
p2873
I68
sS'found'
p2874
I2
sS'resizer'
p2875
I1
sS'reflexiveads'
p2876
I3
sS'myproperty'
p2877
I1
sS'de62585b'
p2878
I1
sS'breakdown'
p2879
I1
sS'forsearchers'
p2880
I2
sS'End'
p2881
I1
sS'delicious'
p2882
I1
sS'3584181'
p2883
I2
sS'house'
p2884
I7
sS'cab8d3d6'
p2885
I1
sS'wacky'
p2886
I6
sS'Sports'
p2887
I8
sS'chrissy'
p2888
I4
sS'wssidToken'
p2889
I1
sS'expect'
p2890
I4
sS'Env'
p2891
I4
sS'AIDS'
p2892
I1
sS'pho'
p2893
I2
sS'Lane'
p2894
I1
sS'event'
p2895
I32
sS'trdnw'
p2896
I1
sS'More'
p2897
I29
sS'2e69'
p2898
I5
sS'bccc'
p2899
I1
sS'Collapse'
p2900
I3
sS'DZhuasBVyw4'
p2901
I1
sS'p'
p2902
I436
sS'XxQV2YbmrA'
p2903
I1
sS'postLoadConf'
p2904
I2
sS'since'
p2905
I2
sS'publish'
p2906
I4
sS'si'
p2907
I3
sS'fbf4567f0d'
p2908
I1
sS'001000713'
p2909
I3
sS'health'
p2910
I4
sS'23465525246'
p2911
I2
sS'7'
p2912
I17
sS'Report'
p2913
I1
sS'onfocus'
p2914
I1
sS'3239250051'
p2915
I3
sS'a5ac0ea4d90d'
p2916
I1
sS'usatoday'
p2917
I2
sS'36f4'
p2918
I1
sS'assist'
p2919
I2
sS'statemgr'
p2920
I3
sS'team'
p2921
I51
sS'story'
p2922
I10
sS'reason'
p2923
I20
sS'base'
p2924
I136
sS'cookie'
p2925
I10
sS'members'
p2926
I2
sS'efabd42d468e'
p2927
I1
sS'b019'
p2928
I1
sS'setTimeout'
p2929
I4
sS'03554a15593386ec016b694fbf4c7ac6'
p2930
I1
sS'3c22fd7a44'
p2931
I1
sS'Delete'
p2932
I12
sS'idate'
p2933
I1
sS'Fantastic'
p2934
I1
sS'63f2c6abf4a0'
p2935
I1
sS'Boston'
p2936
I1
sS'970'
p2937
I2
sS'1093278'
p2938
I49
sS'Years'
p2939
I1
sS'2048'
p2940
I1
sS'Ex'
p2941
I1
sS'w'
p2942
I107
sS'orage'
p2943
I1
sS'DZhuasBV3B'
p2944
I1
sS'pilots'
p2945
I1
sS'3a26'
p2946
I1
sS'5th'
p2947
I1
sS'3a24'
p2948
I5
sS'tabindex'
p2949
I16
sS'feed'
p2950
I7
sS'Turkey'
p2951
I6
sS'635x250'
p2952
I6
sS'd766'
p2953
I1
sS'posId'
p2954
I8
sS'cscHTML'
p2955
I3
sS'ELSE'
p2956
I1
sS'THANKYOU'
p2957
I3
sS'd164'
p2958
I2
sS'done'
p2959
I14
sS'164755817'
p2960
I1
sS'Gingerbread'
p2961
I5
sS'600'
p2962
I1
sS'maple'
p2963
I50
sS'TL1'
p2964
I8
sS'php'
p2965
I4
sS'guest'
p2966
I1
sS'jet'
p2967
I4
sS'script'
p2968
I23
sS'Screen'
p2969
I3
sS'Selma'
p2970
I2
sS'3Ddss'
p2971
I1
sS'6tDHIzIwNi45Ua15WglejhjqMS4yMVZhWGUAAAAA'
p2972
I2
sS'least'
p2973
I1
sS'dark\xe2\x80\xa6'
p2974
I1
sS'73e0ad9a'
p2975
I1
sS'Autos'
p2976
I2
sS'aa6'
p2977
I2
sS'06T18'
p2978
I2
sS'187'
p2979
I6
sS'cokeTestId'
p2980
I1
sS'11e5'
p2981
I1
sS'11e4'
p2982
I3
sS'2Fsearch'
p2983
I2
sS'ultBeaconTimeout'
p2984
I1
sS'store'
p2985
I6
sS'progid'
p2986
I1
sS'1705ec1d4421'
p2987
I1
sS'option'
p2988
I4
sS'Svetlana'
p2989
I1
sS'plane'
p2990
I1
sS'selector'
p2991
I12
sS'currentBucket'
p2992
I2
sS'mailtranslations'
p2993
I1
sS'part'
p2994
I1
sS'912d'
p2995
I1
sS'3584209'
p2996
I4
sS'359d'
p2997
I1
sS'3285'
p2998
I1
sS'3eaf'
p2999
I1
sS'carnage'
p3000
I3
sS'undefined'
p3001
I1
sS'b'
p3002
I392
sS'throttle'
p3003
I1
sS'stl'
p3004
I30
sS'srcpvid'
p3005
I1
sS'3252919e0a37'
p3006
I1
sS'getaway'
p3007
I1
sS'i'
p3008
I206
sS'4254e572'
p3009
I1
sS'str'
p3010
I1
sS'Toys'
p3011
I3
sS'Cancel'
p3012
I1
sS'001b784d35e1'
p3013
I1
sS'bc25'
p3014
I1
sS'Click'
p3015
I1
sS'interactive'
p3016
I1
sS'Teddy'
p3017
I1
sS'F5w'
p3018
I1
sS'Baller'
p3019
I2
sS'texans'
p3020
I1
sS'bbe7'
p3021
I1
sS'070709830'
p3022
I1
sS'shpg'
p3023
I1
sS'c01f'
p3024
I1
sS'534b6c660706'
p3025
I1
sS'3cc3'
p3026
I1
sS'garfield'
p3027
I3
sS'YXBwaWQ9eWhvbWVydW47Zmk9Y3JvcA'
p3028
I1
sS'contest'
p3029
I12
sS'1X1'
p3030
I1
sS'1a1d3dc2'
p3031
I7
sS'1449102466'
p3032
I2
sS'SPORTS'
p3033
I1
sS'i4A4B3R'
p3034
I1
sS'charlottz'
p3035
I2
sS'collapse'
p3036
I4
sS'5ff6'
p3037
I1
sS'7D'
p3038
I1
sS'Founding'
p3039
I1
sS'bookID'
p3040
I3
sS'lib'
p3041
I384
sS'output'
p3042
I2
sS'Food'
p3043
I1
sS'b5cf'
p3044
I1
sS'Virginia'
p3045
I6
sS'hasExternal'
p3046
I3
sS'makers'
p3047
I5
sS'happily'
p3048
I1
sS'liv'
p3049
I2
sS'beaconPath'
p3050
I1
sS'HS8Fs7e1'
p3051
I1
sS'command'
p3052
I2
sS'fltr'
p3053
I47
sS'3EC21CoTopzw'
p3054
I1
sS'play'
p3055
I2
sS'150008341'
p3056
I2
sS'e283431a'
p3057
I4
sS'setJSCookie'
p3058
I5
sS'quote'
p3059
I1
sS'yset'
p3060
I5
sS'23202742980'
p3061
I2
sS'5166d322aaa1'
p3062
I1
sS'most'
p3063
I2
sS'75'
p3064
I22
sS'Diagnosis'
p3065
I3
sS'70'
p3066
I11
sS'The'
p3067
I19
sS'DISABLED'
p3068
I2
sS'bbea'
p3069
I1
sS'kc'
p3070
I9
sS'kb'
p3071
I9
sS'035631298'
p3072
I1
sS'9eb7'
p3073
I1
sS'tpc'
p3074
I1
sS'hps'
p3075
I1
sS'120px'
p3076
I1
sS'591bdaa8'
p3077
I1
sS'mobile'
p3078
I2
sS'fbauthstate'
p3079
I1
sS'LIKEDCTA'
p3080
I1
sS'parentNode'
p3081
I1
sS'Id'
p3082
I1
sS'hints'
p3083
I2
sS'Mahjong'
p3084
I2
sS'exp'
p3085
I31
sS'b9ed13cc'
p3086
I1
sS'Portfolio'
p3087
I1
sS'sizeSiteAttr'
p3088
I1
sS'94a1'
p3089
I1
sS'thomas'
p3090
I1
sS'6ec9'
p3091
I1
sS'982a'
p3092
I1
sS'3289'
p3093
I1
sS'DZhuasBVq6pEQV2YbmrA'
p3094
I1
sS'ugc'
p3095
I3
sS'e6ee3c66'
p3096
I1
sS'Malik'
p3097
I1
sS'8259'
p3098
I3
sS'Sued'
p3099
I1
sS'9dc5a8db4488'
p3100
I1
sS'660'
p3101
I2
sS'a037d8a0'
p3102
I1
sS'3584242'
p3103
I2
sS'ctas'
p3104
I12
sS'ctrlKey'
p3105
I1
sS'9cf8'
p3106
I7
sS'3584248'
p3107
I4
sS'u00cc'
p3108
I1
sS'font'
p3109
I10
sS'fianc'
p3110
I1
sS'find'
p3111
I1
sS'306248'
p3112
I2
sS'impact'
p3113
I1
sS'b1099604'
p3114
I1
sS'indicator'
p3115
I1
sS'batchSize'
p3116
I1
sS'fPwh6YavLw5clvawL5pZMg'
p3117
I1
sS'less'
p3118
I6
sS'Heat'
p3119
I1
sS'3pm'
p3120
I1
sS'12728236'
p3121
I1
sS'FILTERBY'
p3122
I1
sS'HTML'
p3123
I9
sS'2a95bcd1'
p3124
I1
sS'wizardofid'
p3125
I3
sS'd59636e947fd'
p3126
I7
sS'8'
p3127
I136
sS'7a2826bf'
p3128
I1
sS'4963c855a3a7a980343703a71e800b34'
p3129
I1
sS'4d27'
p3130
I1
sS'giants'
p3131
I1
sS'u00c8'
p3132
I1
sS'his'
p3133
I8
sS'OFF'
p3134
I2
sS'serveType'
p3135
I3
sS'u00c0'
p3136
I1
sS'5dd1'
p3137
I2
sS'u00c2'
p3138
I1
sS'public'
p3139
I2
sS'u00c4'
p3140
I1
sS'u00c7'
p3141
I1
sS'oJDIVpX0JjaV7E4S4'
p3142
I1
sS'pgnt'
p3143
I2
sS'pageloadValidAds'
p3144
I1
sS'While'
p3145
I1
sS'courage'
p3146
I1
sS'lrec2'
p3147
I6
sS'3bcd'
p3148
I1
sS'ursa'
p3149
I1
sS'during'
p3150
I7
sS'frightening'
p3151
I1
sS'emails'
p3152
I1
sS'America'
p3153
I1
sS'vRwiOSZMKedIgELx'
p3154
I1
sS'Help'
p3155
I1
sS'enableMyTeams'
p3156
I1
sS'e81b8fd63440'
p3157
I5
sS'querystring'
p3158
I6
sS'376b'
p3159
I1
sS'remove'
p3160
I25
sS'Unrest'
p3161
I2
sS'8ed6'
p3162
I1
sS'common'
p3163
I2
sS'saytEnabled'
p3164
I1
sS'x'
p3165
I2
sS'd3ae'
p3166
I1
sS'When'
p3167
I1
sS'817c8038'
p3168
I1
sS'set'
p3169
I12
sS'fpad2'
p3170
I1
sS'showdrawerhandle'
p3171
I2
sS'8241db36'
p3172
I1
sS'achieved'
p3173
I1
sS'locale'
p3174
I2
sS'Judgetos'
p3175
I1
sS'cssSAWindowSuggestionHeightIE6'
p3176
I1
sS'3e87'
p3177
I1
sS'beaconAkqaUrl'
p3178
I1
sS'315'
p3179
I2
sS'sex'
p3180
I2
sS'3584274'
p3181
I2
sS'iosTabletSearchSetEnabled'
p3182
I1
sS'see'
p3183
I3
sS'horoscopes'
p3184
I1
sS'sec'
p3185
I121
sS'0dc5b6ec'
p3186
I1
sS'close'
p3187
I33
sS'credstore'
p3188
I1
sS'project'
p3189
I1
sS'stringify'
p3190
I6
sS'CONFIRM'
p3191
I1
sS'61f8b4f3'
p3192
I5
sS'ac11e79f'
p3193
I1
sS'disableUraBeacons'
p3194
I1
sS'movie'
p3195
I1
sS'MARKUP'
p3196
I1
sS'Blair'
p3197
I2
sS'please'
p3198
I1
sS'Featured'
p3199
I1
sS'Oregon'
p3200
I1
sS'Rbozikhk8NgqGMDmKHw6w'
p3201
I1
sS'won'
p3202
I2
sS'various'
p3203
I1
sS'uibutton'
p3204
I2
sS'7f378987'
p3205
I1
sS'8eb3'
p3206
I1
sS'conditions'
p3207
I1
sS'btn120'
p3208
I1
sS'blurb'
p3209
I1
sS'available'
p3210
I2
sS'22b50fad893b'
p3211
I1
sS'muslim'
p3212
I1
sS'searchassist'
p3213
I2
sS'backfill'
p3214
I1
sS'complementary'
p3215
I1
sS'sold'
p3216
I1
sS'javascript'
p3217
I3
sS'356a'
p3218
I1
sS'DZhuasBVGgl'
p3219
I1
sS'fpad'
p3220
I4
sS'2ef7'
p3221
I1
sS'Friends'
p3222
I1
sS'Yossef'
p3223
I3
sS'both'
p3224
I1
sS'c'
p3225
I22
sS'last'
p3226
I2
sS'3bac'
p3227
I1
sS'061712748'
p3228
I1
sS'afac'
p3229
I1
sS'YXBwaWQ9eWhvbWVydW47cT04NTtzbT0xO2ZpPWZpbGw7dz04MjtoPTgyO3B5b2ZmPTA'
p3230
I1
sS'connection'
p3231
I1
sS'0595'
p3232
I5
sS'LIKETEXT'
p3233
I1
sS'a6f9'
p3234
I1
sS'MapleTop'
p3235
I1
sS'rodgers'
p3236
I2
sS'load'
p3237
I5
sS'3b15bff6'
p3238
I1
sS'Wal'
p3239
I2
sS'Jour'
p3240
I1
sS'AFTP'
p3241
I3
sS'point'
p3242
I3
sS'simple'
p3243
I6
sS'66673408'
p3244
I2
sS'TMZ'
p3245
I2
sS'stuck'
p3246
I2
sS'1b25c62c'
p3247
I1
sS'DavidPogueNEW'
p3248
I1
sS'dffrontpagemore'
p3249
I1
sS'hollow'
p3250
I1
sS'key'
p3251
I2
sS'header'
p3252
I17
sS'3584334'
p3253
I2
sS'DZhuasBVs8NAQV2YbmrA'
p3254
I1
sS'platform'
p3255
I29
sS'shutdown'
p3256
I1
sS'f9c5898b'
p3257
I1
sS'contentpos'
p3258
I1
sS'341701fae52d'
p3259
I1
sS'Was'
p3260
I1
sS'War'
p3261
I2
sS'3bc6'
p3262
I1
sS'qMwn6syBRCEvs4hifHgXvkUXol7WcyyDGBbt79HW8'
p3263
I1
sS'pr'
p3264
I20
sS'Play'
p3265
I3
sS'ae9f'
p3266
I1
sS'pt'
p3267
I13
sS'288'
p3268
I1
sS'e30e9240689d'
p3269
I1
sS'TURKISH'
p3270
I1
sS'add'
p3271
I3
sS'crwiz'
p3272
I1
sS'strategy'
p3273
I1
sS'pb'
p3274
I13
sS'39d8'
p3275
I1
sS'secret'
p3276
I1
sS'pa'
p3277
I5
sS'California'
p3278
I8
sS'pg'
p3279
I34
sS'pe'
p3280
I1
sS'turnon'
p3281
I1
sS'combine'
p3282
I2
sS'cf71'
p3283
I1
sS'pl'
p3284
I43
sS'efeaef65'
p3285
I1
sS'assetctop'
p3286
I1
sS'8467d600'
p3287
I1
sS'swipeEnabled'
p3288
I1
sS'searchwrapper'
p3289
I7
sS'633'
p3290
I1
sS'gas'
p3291
I2
sS'slideshow'
p3292
I3
sS'else'
p3293
I11
sS'aa11'
p3294
I1
sS'Jets'
p3295
I1
sS'lillard'
p3296
I1
sS'hasOwnProperty'
p3297
I1
sS'Associated'
p3298
I3
sS'1449110919'
p3299
I2
sS'97755e02'
p3300
I1
sS'7BsearchTerms'
p3301
I1
sS'packers'
p3302
I1
sS'28e892a4'
p3303
I5
sS'Feed'
p3304
I1
sS'k2'
p3305
I1
sS'1e6682a5'
p3306
I1
sS'blueanimation'
p3307
I1
sS'strictest'
p3308
I1
sS'30344913'
p3309
I2
sS'b141'
p3310
I1
sS'bc65a202'
p3311
I1
sS'XvnzsvisrKqqyfsFl9lEAA'
p3312
I1
sS'8f50'
p3313
I1
sS'bill'
p3314
I3
sS'6c4fb1f8'
p3315
I1
sS'By'
p3316
I1
sS'3a3e'
p3317
I1
sS'3a3d'
p3318
I1
sS'while'
p3319
I8
sS'sampleSize'
p3320
I1
sS'College'
p3321
I1
sS'careers'
p3322
I2
sS'behavior'
p3323
I3
sS'involved'
p3324
I1
sS'filterFontSize'
p3325
I1
sS'1b41d28d4ae1'
p3326
I1
sS'DZhuasBVq2oAQl2YbmrA'
p3327
I1
sS'c1'
p3328
I2
sS'80fd'
p3329
I1
sS'pack'
p3330
I6
sS'City'
p3331
I3
sS'w1280'
p3332
I1
sS'hellip'
p3333
I1
sS'a927'
p3334
I1
sS'33e9'
p3335
I1
sS'23725ccff9ec'
p3336
I1
sS'voh'
p3337
I89
sS'7de7d79ce872'
p3338
I1
sS'jpg'
p3339
I77
sS'tID'
p3340
I1
sS'decoration'
p3341
I1
sS'origin'
p3342
I1
sS'locationBased'
p3343
I1
sS'9688'
p3344
I1
sS'2fbaf951'
p3345
I4
sS'Got'
p3346
I1
sS'ready'
p3347
I1
sS'rid'
p3348
I2
sS'vox'
p3349
I3
sS'DZhuasBV7TAfQV2YbmrA'
p3350
I1
sS'8d3a'
p3351
I1
sS'queue'
p3352
I6
sS'null'
p3353
I11
sS'ef11a23c7b59'
p3354
I1
sS'ba239d27'
p3355
I1
sS'sBdr'
p3356
I4
sS'Turkeyro'
p3357
I1
sS'DZhuasBVyNCGQV2YbmrA'
p3358
I1
sS'3eb6'
p3359
I1
sS'3eb7'
p3360
I1
sS'textCount'
p3361
I1
sS'Pinkett'
p3362
I5
sS'widely'
p3363
I1
sS'Starts'
p3364
I1
sS'9'
p3365
I44
sS'products'
p3366
I1
sS'day'
p3367
I9
sS'3097'
p3368
I1
sS'06f435da'
p3369
I1
sS'About'
p3370
I3
sS'used'
p3371
I1
sS'14782488'
p3372
I1
sS'Card'
p3373
I2
sS'DZhuasBV6LSFQF2YbmrA'
p3374
I1
sS'7a9e1d0c752dabbceba28b451cb5529e'
p3375
I1
sS'keys'
p3376
I2
sS'Cox'
p3377
I1
sS'markAsReadEnabled'
p3378
I1
sS'sfbrenderPath'
p3379
I1
sS'sys'
p3380
I1
sS'Movies'
p3381
I2
sS'moment'
p3382
I4
sS'1445042235'
p3383
I1
sS'user'
p3384
I4
sS'14ee923f'
p3385
I1
sS'Lined'
p3386
I5
sS'stack'
p3387
I9
sS'recent'
p3388
I1
sS'early'
p3389
I1
sS'lower'
p3390
I1
sS'ADEND'
p3391
I1
sS'videoPlayerStopBuffering'
p3392
I1
sS'36442bb7d96c'
p3393
I1
sS'dailyfantasy'
p3394
I27
sS'Technology'
p3395
I2
sS'libRoot'
p3396
I1
sS'DISLIKED'
p3397
I1
sS'spent'
p3398
I1
sS'obviously'
p3399
I1
sS'd960d2c4'
p3400
I1
sS'person'
p3401
I1
sS'b19c'
p3402
I1
sS'f9bdecc71383'
p3403
I1
sS'302a'
p3404
I7
sS'y'
p3405
I86
sS'flashplayer'
p3406
I1
sS'autoHideEnabled'
p3407
I1
sS'34e1'
p3408
I1
sS'That\xe2\x80\x99s'
p3409
I1
sS'hdln'
p3410
I28
sS'removeCta'
p3411
I1
sS'hjs'
p3412
I2
sS'23463451466'
p3413
I2
sS'wikiid'
p3414
I2
sS'removed'
p3415
I1
sS'RDwXVRSw'
p3416
I1
sS'd011'
p3417
I1
sS'distracting'
p3418
I1
sS'c4'
p3419
I2
sS'inactive'
p3420
I10
sS'newsearch'
p3421
I2
sS'eyebrowpromo'
p3422
I9
sS'Correcti'
p3423
I1
sS'love'
p3424
I7
sS'52e5ddd8ae99'
p3425
I1
sS'269'
p3426
I1
sS'network'
p3427
I6
sS'Shooters'
p3428
I2
sS'errurl'
p3429
I1
sS'loading'
p3430
I5
sS'HDLN2'
p3431
I4
sS'\xe2\x80\x98Heartbeat\xe2\x80\x99'
p3432
I4
sS'conclusions'
p3433
I1
sS'JanTimmons'
p3434
I1
sS'yjsonp'
p3435
I2
sS'workers'
p3436
I1
sS'DZhuasBVnzQDQl2YbmrA'
p3437
I1
sS'exclusively'
p3438
I1
sS'Holidays'
p3439
I2
sS'source'
p3440
I24
sS'GoPro'
p3441
I5
sS'location'
p3442
I12
sS'MIDEAST'
p3443
I1
sS'input'
p3444
I37
sS'37rAdkZ9xMt0wIVs'
p3445
I1
sS'bin'
p3446
I2
sS'Both'
p3447
I1
sS'8222'
p3448
I5
sS'australia'
p3449
I1
sS'breakingnews'
p3450
I4
sS'big'
p3451
I4
sS'showing'
p3452
I3
sS'closeEnabled'
p3453
I1
sS'a58f'
p3454
I1
sS'socialEnabled'
p3455
I1
sS'bdd3'
p3456
I1
sS'game'
p3457
I9
sS'Jada\xe2\x80\x99s'
p3458
I1
sS'3133'
p3459
I1
sS'3584259'
p3460
I2
sS'pageEndHTML'
p3461
I1
sS'bit'
p3462
I1
sS'3584255'
p3463
I1
sS'crumbErrorHtml'
p3464
I1
sS'Or'
p3465
I1
sS'MXIL9LCdWlxuTfO3at63g'
p3466
I1
sS'ON'
p3467
I1
sS'ITEM'
p3468
I4
sS'OK'
p3469
I6
sS'd'
p3470
I358
sS'submission'
p3471
I1
sS'a453'
p3472
I1
sS'LOADING'
p3473
I2
sS'OE'
p3474
I2
sS'a76b'
p3475
I1
sS'noQueryURL'
p3476
I5
sS'0em'
p3477
I1
sS'80e6'
p3478
I1
sS'contentId'
p3479
I42
sS'popular'
p3480
I1
sS'Find'
p3481
I4
sS'normalizationRules'
p3482
I1
sS'pwediepie'
p3483
I1
sS'Jones'
p3484
I1
sS'isApp'
p3485
I1
sS'who'
p3486
I5
sS'5164'
p3487
I1
sS'senate'
p3488
I1
sS'3f3d'
p3489
I3
sS'back'
p3490
I2
sS'DZhuasBVzcxeQV2YbmrA'
p3491
I1
sS'Fahrenheit'
p3492
I4
sS'streaming'
p3493
I1
sS'lips'
p3494
I2
sS'Messenger'
p3495
I1
sS'b1'
p3496
I1
sS'server'
p3497
I1
sS'delivered'
p3498
I3
sS'scale'
p3499
I4
sS'Seoul'
p3500
I1
sS'Mostly'
p3501
I2
sS'recentFiltersEnabled'
p3502
I1
sS'prov'
p3503
I20
sS'Moscow'
p3504
I2
sS'bb29'
p3505
I1
sS'Brett'
p3506
I1
sS'cometdUrl'
p3507
I1
sS'd482eb66d5fc'
p3508
I1
sS'trendingnowcarousel'
p3509
I18
sS'd30e8ddc'
p3510
I1
sS'33d9'
p3511
I1
sS'37b6'
p3512
I1
sS'20100602'
p3513
I3
sS'enableMyPhotos'
p3514
I1
sS'174b0e0b00'
p3515
I1
sS'prod'
p3516
I1
sS'AssociatedPress'
p3517
I2
sS'temple'
p3518
I1
sS'SCROLLARROWS'
p3519
I1
sS'bd'
p3520
I98
sS'bg'
p3521
I5
sS'ba'
p3522
I25
sS'bc'
p3523
I7
sS'bl'
p3524
I2
sS'word'
p3525
I2
sS'Bos'
p3526
I1
sS'continuing'
p3527
I1
sS'305'
p3528
I1
sS'O'
p3529
I2
sS'David'
p3530
I3
sS'bv'
p3531
I3
sS'LBmNqphlJLFzLjap'
p3532
I1
sS'br'
p3533
I2
sS'bs'
p3534
I5
sS'selectiveRendering'
p3535
I1
sS'3bfd'
p3536
I1
sS'Bod'
p3537
I1
sS'Russia'
p3538
I12
sS'bz'
p3539
I10
sS'3f31'
p3540
I1
sS'shine'
p3541
I2
sS'especially'
p3542
I1
sS'Square'
p3543
I1
sS'Picnic'
p3544
I5
sS'b60a'
p3545
I1
sS'anything'
p3546
I1
sS'76'
p3547
I2
sS'adPosition'
p3548
I1
sS'Jada'
p3549
I6
sS'installDateFmt'
p3550
I1
sS'94be'
p3551
I1
sS'cookieDomain'
p3552
I2
sS'helpcentral'
p3553
I1
sS'ylc'
p3554
I3
sS'modal'
p3555
I6
sS'ylk'
p3556
I241
sS'block'
p3557
I3
sS'Katie'
p3558
I3
sS'seeing'
p3559
I1
sS'etonline'
p3560
I1
sS'windowshade'
p3561
I14
sS'posSize'
p3562
I3
sS'1800000'
p3563
I1
sS'al'
p3564
I3
sS'intl'
p3565
I80
sS'defaultPanelCounter'
p3566
I1
sS'stdmod'
p3567
I3
sS'retailer'
p3568
I1
sS'e91e646e'
p3569
I1
sS'50x50c'
p3570
I1
sS'53f4'
p3571
I1
sS'lightbg'
p3572
I1
sS'splerror'
p3573
I1
sS'trendingnow'
p3574
I24
sS'50x50w'
p3575
I15
sS'videoPlayerAdsDelay'
p3576
I1
sS'katie'
p3577
I2
sS'mkg'
p3578
I1
sS'ApplePay'
p3579
I1
sS'span'
p3580
I495
sS'cookieIndex'
p3581
I3
sS'arcade'
p3582
I4
sS'suid'
p3583
I21
sS'Composite'
p3584
I1
sS'mpos'
p3585
I1
sS'stylesheet'
p3586
I3
sS'submit'
p3587
I5
sS'custom'
p3588
I11
sS'035517723'
p3589
I1
sS'RUY7nQ8EnfbCAovFmwfZzg'
p3590
I1
sS'faa8'
p3591
I1
sS'RESULTSLIST'
p3592
I1
sS'Summer'
p3593
I3
sS'TTnlsPp5reaLw'
p3594
I1
sS'71bc60409c29'
p3595
I1
sS'translate'
p3596
I1
sS'removeCtaRemoveBtn'
p3597
I1
sS'athlete'
p3598
I1
sS'151340047'
p3599
I1
sS'txtlnkusaolp00000592'
p3600
I1
sS'97aa'
p3601
I1
sS'zdwZKzuIsAKqQ'
p3602
I1
sS'SHb7rqmchiIF1aJTo7ndag'
p3603
I1
sS'refreshMod'
p3604
I1
sS'collapsed'
p3605
I43
sS'001000560'
p3606
I2
sS'df0640fd'
p3607
I1
sS'8467'
p3608
I1
sS'Filter'
p3609
I1
sS'31b2'
p3610
I7
sS'serif'
p3611
I2
sS'Working'
p3612
I1
sS'link'
p3613
I46
sS'sda'
p3614
I8
sS'Logic'
p3615
I2
sS'delta'
p3616
I2
sS'Bayview'
p3617
I1
sS'6cf7af76026f'
p3618
I1
sS'info'
p3619
I11
sS'115'
p3620
I17
sS'30345988'
p3621
I7
sS'30345989'
p3622
I7
sS'cid'
p3623
I2
sS'FftAF'
p3624
I1
sS'30345980'
p3625
I4
sS'dom'
p3626
I12
sS'30345986'
p3627
I7
sS'30345987'
p3628
I7
sS'us'
p3629
I143
sS'utm'
p3630
I4
sS'ul'
p3631
I114
sS'Gopnik'
p3632
I3
sS'116'
p3633
I1
sS'ui'
p3634
I10
sS'uh'
p3635
I3
sS'u00ca'
p3636
I1
sS'Fri'
p3637
I1
sS'subscribeMaxTries'
p3638
I1
sS'z'
p3639
I15
sS'RUSSIA'
p3640
I1
sS'darlaCtx'
p3641
I1
sS'6f75'
p3642
I1
sS'fd18d82be405'
p3643
I1
sS'flop'
p3644
I1
sS'2065ce9f'
p3645
I1
sS'enableAutocomplete'
p3646
I2
sS'Dynamic'
p3647
I2
sS'unraveling'
p3648
I3
sS'ac0c18dad66a'
p3649
I1
sS'053011922'
p3650
I1
sS'changepercent'
p3651
I3
sS'YahooTrafficServer'
p3652
I2
sS'd0dba4f7a9'
p3653
I1
sS'tiebreaking'
p3654
I1
sS'redirected'
p3655
I1
sS'fca350a1870f5de68dd77ce711dfa385'
p3656
I1
sS'21em'
p3657
I1
sS'Td'
p3658
I1
sS'isc'
p3659
I17
sS'EXCLUSIVE'
p3660
I1
sS'b1daf3bb008e'
p3661
I5
sS'Duels'
p3662
I2
sS'175552931'
p3663
I2
sS'TV'
p3664
I2
sS'62dd'
p3665
I1
sS'WireImage'
p3666
I1
sS'e71504f5a9a1'
p3667
I1
sS'dimmed'
p3668
I8
sS'comboRoot'
p3669
I1
sS'TO'
p3670
I1
sS'nav'
p3671
I213
sS'TH'
p3672
I2
sS'834b'
p3673
I1
sS'jmTVQDk4LjHHbFsHU5jMkgKkMTAuNwAAAACljpkK'
p3674
I3
sS'ygames'
p3675
I2
sS'nice'
p3676
I1
sS'smiles'
p3677
I1
sS'63802'
p3678
I5
sS'clean'
p3679
I4
sS'3de4'
p3680
I1
sS'DZhuasBVJr9VQV2YbmrA'
p3681
I1
sS'AM'
p3682
I6
sS'homerunv2'
p3683
I1
sS'Wednesday'
p3684
I3
sS'helping'
p3685
I1
sS'AP'
p3686
I8
sS'militants'
p3687
I2
sS'visibleItems'
p3688
I1
sS'iframeshim'
p3689
I6
sS'option4'
p3690
I4
sS'ago'
p3691
I11
sS'CONTENT'
p3692
I1
sS'yahoofrontpage'
p3693
I22
sS'2008'
p3694
I1
sS'e'
p3695
I15
sS'Closest'
p3696
I1
sS'Af'
p3697
I4
sS'1f6310182714'
p3698
I1
sS'3422'
p3699
I1
sS'rescued'
p3700
I2
sS'unlocked'
p3701
I1
sS'youtube'
p3702
I4
sS'svc'
p3703
I5
sS'1c0bdd66'
p3704
I9
sS'An'
p3705
I1
sS'2000'
p3706
I2
sS'b75b'
p3707
I1
sS'Scott'
p3708
I2
sS'2007'
p3709
I1
sS'495644a2'
p3710
I6
sS'leaked'
p3711
I2
sS'56a1'
p3712
I1
sS'requires'
p3713
I28
sS'scroll'
p3714
I3
sS'KGO'
p3715
I1
sS'once'
p3716
I1
sS'gt'
p3717
I1
sS'9c78'
p3718
I1
sS'39c7'
p3719
I1
sS'a84c'
p3720
I1
sS'Undo'
p3721
I2
sS'adb18201316e'
p3722
I1
sS'results'
p3723
I6
sS'3ca9'
p3724
I1
sS'toggle'
p3725
I1
sS'015'
p3726
I1
sS'ga'
p3727
I1
sS'0335c100'
p3728
I1
sS'a3ec'
p3729
I1
sS'query'
p3730
I8
sS'gm'
p3731
I2
sS'pvid'
p3732
I1
sS'kate'
p3733
I1
sS'compact'
p3734
I4
sS'Non'
p3735
I1
sS'3554'
p3736
I1
sS'475d1c23'
p3737
I1
sS'Business'
p3738
I17
sS'animHtml'
p3739
I1
sS'searchAssistTabletEnabled'
p3740
I1
sS'aria'
p3741
I35
sS'2a81d7f8'
p3742
I1
sS'dynamicEnabled'
p3743
I1
sS'sedgeRoot'
p3744
I1
sS'hats'
p3745
I2
sS'Gazprom'
p3746
I5
sS'Rifle'
p3747
I5
sS'weather'
p3748
I27
sS'khBXe'
p3749
I1
sS'dislike'
p3750
I17
sS'Now'
p3751
I1
sS'resources'
p3752
I1
sS'1449171331'
p3753
I2
sS'mLogin'
p3754
I1
sS'Flash'
p3755
I1
sS'randomPromo'
p3756
I2
sS'forceSethp'
p3757
I1
sS'u00cf'
p3758
I1
sS'portfolios'
p3759
I2
sS'Celebrity'
p3760
I3
sS'servicePath'
p3761
I1
sS'211845082'
p3762
I4
sS'3eeb'
p3763
I1
sS'34bf'
p3764
I4
sS'farm1'
p3765
I8
sS'P'
p3766
I1
sS'farm6'
p3767
I2
sS'decorating'
p3768
I1
sS'yltInfoPage'
p3769
I2
sS'7a36d1ac'
p3770
I1
sS'Charlotte'
p3771
I1
sS'trk'
p3772
I4
sS'decked'
p3773
I1
sS'harbor'
p3774
I1
sS'positions'
p3775
I4
sS'button'
p3776
I184
sS'sanctions'
p3777
I6
sS'Surface'
p3778
I2
sS'try'
p3779
I3
sS'Why'
p3780
I2
sS'3H0FoLTs0vipbyYfjQMkw'
p3781
I1
sS'picker'
p3782
I6
sS'preload'
p3783
I1
sS'noncntr'
p3784
I1
sS'cnRvjUjCWdi2BJKuwbPiWQ'
p3785
I1
sS'cfg'
p3786
I25
sS'scrollsize'
p3787
I1
sS'3be4'
p3788
I1
sS'WhiteHou'
p3789
I1
sS'crop'
p3790
I1
sS'5506'
p3791
I1
sS'State'
p3792
I7
sS'87ac'
p3793
I1
sS'video'
p3794
I53
sS'zz'
p3795
I10
sS'3A'
p3796
I13
sS'3584220'
p3797
I1
sS'click'
p3798
I23
sS'3D'
p3799
I1
sS'74kBPChpYZmK4OYzKiCjFQ'
p3800
I1
sS'773e'
p3801
I1
sS'u00cb'
p3802
I1
sS'unavailable'
p3803
I1
sS'82e8'
p3804
I1
sS'u00ce'
p3805
I1
sS'pipes'
p3806
I3
sS'Indust\xe2\x80\xa6'
p3807
I1
sS'u00cd'
p3808
I1
sS'Boys'
p3809
I5
sS'Assault'
p3810
I1
sS'proxyUrl'
p3811
I1
sS'Olivia'
p3812
I1
sS'dominates'
p3813
I2
sS'33ec'
p3814
I1
sS'bdr'
p3815
I2
sS'N04'
p3816
I1
sS'N06'
p3817
I1
sS'Former'
p3818
I3
sS'Might'
p3819
I2
sS'can'
p3820
I1
sS'body'
p3821
I55
sS'09267940'
p3822
I1
sS'slingstone'
p3823
I4
sS'001000667'
p3824
I6
sS'underwood'
p3825
I2
sS'446'
p3826
I1
sS'onBeforePosMsg'
p3827
I1
sS'srcElement'
p3828
I1
sS'3584136'
p3829
I2
sS'explore'
p3830
I11
sS'DZhuasBVmpkXQV2YbmrA'
p3831
I1
sS'Green'
p3832
I1
sS'sink'
p3833
I1
sS'3584131'
p3834
I2
sS'others'
p3835
I1
sS'Knitting'
p3836
I1
sS'rtTop'
p3837
I1
sS'19275108390f'
p3838
I1
sS'8a09cc50'
p3839
I5
sS'39'
p3840
I66
sS'38'
p3841
I4
sS'K2YxkT8QYzB4nshVtAR9'
p3842
I1
sS'metro'
p3843
I402
sS'33'
p3844
I9
sS'32'
p3845
I6
sS'31'
p3846
I6
sS'30'
p3847
I46
sS'37'
p3848
I4
sS'Back'
p3849
I2
sS'35'
p3850
I2
sS'34'
p3851
I1
sS'3092'
p3852
I1
sS'lrec'
p3853
I4
sS'helpers'
p3854
I3
sS'cta'
p3855
I28
sS'oldValue'
p3856
I2
sS'646'
p3857
I2
sS'cefa13b0439a'
p3858
I1
sS'opinion'
p3859
I1
sS'bucketSAEnabled'
p3860
I1
sS'makes'
p3861
I1
sS'FP'
p3862
I8
sS'acc8'
p3863
I1
sS'named'
p3864
I1
sS'Muslim'
p3865
I2
sS'firefox'
p3866
I4
sS'apple'
p3867
I1
sS'deputy'
p3868
I1
sS'win'
p3869
I1
sS'app'
p3870
I258
sS'd82'
p3871
I3
sS'baskets'
p3872
I5
sS'f7d40d0840'
p3873
I1
sS'3f28'
p3874
I1
sS'deferredRes'
p3875
I1
sS'api'
p3876
I48
sS'adID'
p3877
I3
sS'sgl'
p3878
I10
sS'sgn'
p3879
I2
sS'a059'
p3880
I1
sS'8d23'
p3881
I1
sS'tools'
p3882
I4
sS'nVisit'
p3883
I1
sS'videoPlayerSec'
p3884
I1
sS'Status'
p3885
I1
sS'38e7ff31'
p3886
I1
sS'use'
p3887
I4
sS'pho2'
p3888
I1
sS'from'
p3889
I5
sS'tar'
p3890
I23
sS'zip'
p3891
I1
sS'fea'
p3892
I12
sS'LESS'
p3893
I1
sS'907c171f'
p3894
I1
sS'LIVE'
p3895
I3
sS'next'
p3896
I5
sS'few'
p3897
I2
sS'chr'
p3898
I3
sS'EMBASSY'
p3899
I1
sS'Hkg10131067'
p3900
I1
sS'Basically'
p3901
I1
sS'Didacus67'
p3902
I1
sS'themselves'
p3903
I1
sS'0c0cff7ca66f'
p3904
I1
sS'start'
p3905
I1
sS'brdr'
p3906
I2
sS'sort'
p3907
I20
sS'9f53'
p3908
I1
sS'todaycontainer'
p3909
I14
sS'7ad3bdd5'
p3910
I1
sS'porch'
p3911
I1
sS'started'
p3912
I1
sS'Done'
p3913
I5
sS'sg3'
p3914
I1
sS'dropdownFilter'
p3915
I1
sS'fd91d2e07405'
p3916
I1
sS'visibility'
p3917
I1
sS'120507'
p3918
I1
sS'apiMigrationMode'
p3919
I1
sS'trail'
p3920
I1
sS'locId'
p3921
I1
sS'30cc'
p3922
I1
sS'jsErrorUrl'
p3923
I1
sS'3584319'
p3924
I2
sS'baby'
p3925
I2
sS'Pilots'
p3926
I2
sS'blurInput'
p3927
I3
sS'resize'
p3928
I5
sS'women'
p3929
I4
sS'25372728133'
p3930
I3
sS'Feedback'
p3931
I1
sS'5000'
p3932
I2
sS'f'
p3933
I10
sS'ActiveXObject'
p3934
I1
sS'tease'
p3935
I6
sS'obvious'
p3936
I1
sS'moneyballAdPkgId'
p3937
I1
sS'closing'
p3938
I1
sS'didnt'
p3939
I1
sS'fetch'
p3940
I3
sS'120315'
p3941
I11
sS'control'
p3942
I8
sS'dn'
p3943
I25
sS'Jenner\xe2\x80\x99s'
p3944
I1
sS'39b986ee'
p3945
I1
sS'Police'
p3946
I3
sS'ushers'
p3947
I2
sS'snacks'
p3948
I4
sS'favorite'
p3949
I2
sS'bucketSA'
p3950
I1
sS'dl'
p3951
I2
sS'd42e'
p3952
I1
sS'2Fwww'
p3953
I12
sS'TheOther'
p3954
I1
sS'tab'
p3955
I44
sS'fb8e4b73'
p3956
I1
sS'isFlickrUser'
p3957
I1
sS'Magic'
p3958
I1
sS'expandable'
p3959
I1
sS'made'
p3960
I2
sS'944c'
p3961
I1
sS'Christmas'
p3962
I12
sS'native'
p3963
I3
sS'pkgid'
p3964
I6
sS'mix'
p3965
I2
sS'dmaWoeid'
p3966
I1
sS'30345998'
p3967
I8
sS'HIV'
p3968
I4
sS'SETTINGS'
p3969
I1
sS'30345995'
p3970
I1
sS'NHL'
p3971
I1
sS'30345997'
p3972
I7
sS'30345624'
p3973
I4
sS'namespace'
p3974
I3
sS'acq'
p3975
I1
sS'30cb'
p3976
I1
sS'has\xe2\x80\xa6'
p3977
I1
sS'delay'
p3978
I2
sS'u00c1'
p3979
I1
sS'b3791d94ab53'
p3980
I1
sS'YzStcLpvu73WjYmWVs870g'
p3981
I1
sS'j4dx0g'
p3982
I1
sS'Authorities'
p3983
I1
sS'interestFiltersBroadcast'
p3984
I1
sS'comedy'
p3985
I1
sS'panic'
p3986
I1
sS'u00c3'
p3987
I1
sS'stock'
p3988
I1
sS'darlaID'
p3989
I1
sS'3a53'
p3990
I1
sS'blocks'
p3991
I1
sS'a8e9'
p3992
I1
sS'crsl'
p3993
I20
sS'autocompleteUrl'
p3994
I1
sS'alertdialog'
p3995
I3
sS'abuse'
p3996
I1
sS'Fewer'
p3997
I1
sS'5593458c9474'
p3998
I1
sS'msgPath'
p3999
I1
sS'ties'
p4000
I2
sS'npv'
p4001
I1
sS'363b'
p4002
I1
sS'SEARCH'
p4003
I1
sS'71a6'
p4004
I1
sS'3240'
p4005
I1
sS'navrail'
p4006
I18
sS'Apple'
p4007
I10
sS'searchHiddeniconEnabled'
p4008
I1
sS'at\xc2\xa0Umpqua'
p4009
I1
sS'counter'
p4010
I1
sS'robot'
p4011
I11
sS'Community'
p4012
I1
sS'One'
p4013
I4
sS'3d0a'
p4014
I4
sS'2ae5'
p4015
I1
sS'Weather'
p4016
I7
sS'knits'
p4017
I2
sS'allow'
p4018
I1
sS'catkin314'
p4019
I1
sS'6c08'
p4020
I1
sS'Politics'
p4021
I2
sS'fallback'
p4022
I13
sS'Obama\xe2\x80\xa6'
p4023
I1
sS'3e7f'
p4024
I1
sS'055eb4f4c9fb'
p4025
I1
sS'YPROP'
p4026
I6
sS'KGO\xe2\x80\x93SanFrancisco'
p4027
I1
sS'Smith'
p4028
I10
sS'Story'
p4029
I1
sS'30345990'
p4030
I5
sS'3416'
p4031
I1
sS'Trigger'
p4032
I1
sS'd07d7e1f7263'
p4033
I1
sS'Munich'
p4034
I5
sS'tl2b'
p4035
I1
sS'30ba113d'
p4036
I1
sS'13a3d26f'
p4037
I3
sS'rmxp'
p4038
I2
sS'WITH'
p4039
I1
sS'Final'
p4040
I4
sS'do'
p4041
I2
sS'bac98c4c'
p4042
I1
sS'nyj'
p4043
I3
sS'ld'
p4044
I3
sS'olilignan'
p4045
I2
sS'nyk'
p4046
I2
sS'ln'
p4047
I10
sS'lo'
p4048
I1
sS'll'
p4049
I7
sS'DISLIKETEXT'
p4050
I1
sS'lh'
p4051
I33
sS'li'
p4052
I503
sS'lw'
p4053
I32
sS'lt'
p4054
I2
sS'lu'
p4055
I1
sS'd0035adb'
p4056
I1
sS'2015'
p4057
I24
sS'2014'
p4058
I4
sS'promoimg'
p4059
I1
sS'2016'
p4060
I1
sS'd3ef3046'
p4061
I1
sS'flex'
p4062
I3
sS'ETonline'
p4063
I2
sS'd4d6'
p4064
I1
sS'smallbusiness'
p4065
I1
sS'dal'
p4066
I2
sS'auto'
p4067
I12
sS'material'
p4068
I1
sS'N104204'
p4069
I2
sS'auth'
p4070
I1
sS'curAd'
p4071
I3
sS'RSTART'
p4072
I1
sS'socks'
p4073
I5
sS'Cam'
p4074
I2
sS'Mother'
p4075
I1
sS'front'
p4076
I1
sS'Karine'
p4077
I1
sS'republican'
p4078
I1
sS'transparent'
p4079
I49
sS'grpt'
p4080
I22
sS'worlds'
p4081
I1
sS'mods'
p4082
I9
sS'bpic'
p4083
I1
sS'profound'
p4084
I1
sS'edit'
p4085
I4
sS'afp'
p4086
I1
sS'nfl'
p4087
I21
sS'Kylie'
p4088
I7
sS'5640'
p4089
I1
sS'cscLogCSCHost'
p4090
I1
sS'Celsius'
p4091
I4
sS'mode'
p4092
I2
sS'RESULTS'
p4093
I1
sS'accompanied'
p4094
I1
sS'bills'
p4095
I1
sS'u0KwSyszg'
p4096
I1
sS'Previous'
p4097
I2
sS'1001355345'
p4098
I1
sS'Arts'
p4099
I1
sS'activate'
p4100
I1
sS'From'
p4101
I2
sS'3584309'
p4102
I2
sS'3584304'
p4103
I2
sS'12201aaf0290'
p4104
I1
sS'3584307'
p4105
I2
sS'3584300'
p4106
I2
sS'3584301'
p4107
I2
sS'Send'
p4108
I1
sS'Next'
p4109
I3
sS'supermodel'
p4110
I1
sS'89'
p4111
I1
sS'static'
p4112
I5
sS'0d9eb2aff89d'
p4113
I1
sS'bannerid'
p4114
I1
sS'82'
p4115
I32
sS'our'
p4116
I2
sS'80'
p4117
I1
sS'comet'
p4118
I8
sS'indulged'
p4119
I1
sS'witness'
p4120
I7
sS'85'
p4121
I1
sS'sdaRefreshTimeout'
p4122
I1
sS'5318'
p4123
I1
sS'416a87d73ad1'
p4124
I1
sS'79d8ab8f'
p4125
I1
sS'DIww10xTVL4vcZffnSe'
p4126
I1
sS'res'
p4127
I70
sS'f1253186'
p4128
I1
sS'rev'
p4129
I1
sS'itemLists'
p4130
I1
sS'A9e'
p4131
I1
sS'97fa'
p4132
I1
sS'messenger'
p4133
I1
sS'PKG'
p4134
I1
sS'rel'
p4135
I9
sS'hilarious'
p4136
I4
sS'Baby'
p4137
I1
sS'rec'
p4138
I1
sS'creativeID'
p4139
I3
sS'of\xc2\xa0fanfare'
p4140
I1
sS'ref'
p4141
I1
sS'1449161601'
p4142
I3
sS'showdrawer'
p4143
I2
sS'YNewTab'
p4144
I1
sS'ltxt'
p4145
I22
sS'turned'
p4146
I2
sS'8203'
p4147
I3
sS'CSC'
p4148
I1
sS'templ'
p4149
I1
sS'completely'
p4150
I1
sS'3157'
p4151
I1
sS'YXBwaWQ9eWhvbWVydW47cT04NTtzbT0xO3c9MzgwO2g9Mzgw'
p4152
I1
sS'celtics'
p4153
I1
sS'3210'
p4154
I1
sS'e5b7674b11fd'
p4155
I1
sS'Buffalo'
p4156
I1
sS'3584237'
p4157
I2
sS'0f72'
p4158
I1
sS'ltr'
p4159
I2
sS'39ae'
p4160
I1
sS'3392'
p4161
I1
sS'g'
p4162
I488
sS'3396'
p4163
I1
sS'deprecated'
p4164
I3
sS'recipes'
p4165
I6
sS'Celebrities'
p4166
I5
sS'yltClickSuggestion'
p4167
I2
sS'david'
p4168
I1
sS'YycLYt0WBssJTOpN'
p4169
I1
sS'aren'
p4170
I2
sS'length'
p4171
I5
sS'maxWidth'
p4172
I2
sS'DZhuasBVuf0tQF2YbmrA'
p4173
I1
sS'tpbURI'
p4174
I1
sS'aa4dea5d'
p4175
I1
sS'096395711f51'
p4176
I3
sS'ext'
p4177
I1
sS'Pause'
p4178
I2
sS'privacy'
p4179
I5
sS'df281cf8'
p4180
I1
sS'a406'
p4181
I1
sS'450'
p4182
I1
sS'BUCKET'
p4183
I1
sS'452'
p4184
I1
sS'isInitialized'
p4185
I1
sS'scene'
p4186
I5
sS'videoPlayerMute'
p4187
I1
sS'facility'
p4188
I2
sS'dac8f831f88d'
p4189
I2
sS'142px'
p4190
I2
sS'searchIntl'
p4191
I1
sS'3b33'
p4192
I1
sS'ba66'
p4193
I1
sS'Local'
p4194
I2
sS'Careers'
p4195
I2
sS'nypost'
p4196
I2
sS'mouseover'
p4197
I1
sS'01b2f6863916'
p4198
I1
sS'38e5'
p4199
I1
sS'inlineLightboxEnabled'
p4200
I2
sS'wthr'
p4201
I1
sS'YXBwaWQ9eWhvbWVydW47cT04NTtzbT0xO3c9NDA7aD00MA'
p4202
I3
sS'unknown'
p4203
I3
sS'accent'
p4204
I10
sS'system'
p4205
I1
sS'wrapper'
p4206
I64
sS'horo'
p4207
I1
sS'fahrenheit'
p4208
I4
sS'657'
p4209
I1
sS'attack'
p4210
I3
sS'MAST'
p4211
I12
sS'3088'
p4212
I1
sS'intelligence'
p4213
I1
sS'c5ec27d7'
p4214
I1
sS'dogs1'
p4215
I2
sS'final'
p4216
I4
sS'Association'
p4217
I5
sS'DESCRIPTION'
p4218
I1
sS'interests'
p4219
I4
sS'32f0'
p4220
I1
sS'olympics'
p4221
I1
sS'lot'
p4222
I2
sS'Success'
p4223
I1
sS'79e7ca51f2f0'
p4224
I1
sS'duration'
p4225
I3
sS'artandphotographybyrob'
p4226
I1
sS'sBdrFocusClass'
p4227
I2
sS'var'
p4228
I26
sS'blazers'
p4229
I1
sS'R'
p4230
I1
sS'potent'
p4231
I1
sS'rsz'
p4232
I11
sS'kylie'
p4233
I1
sS'herself'
p4234
I1
sS'ctnr'
p4235
I1
sS'dependent'
p4236
I1
sS'rss'
p4237
I1
sS'ipad'
p4238
I2
sS'3f03'
p4239
I1
sS'a937'
p4240
I1
sS'a6003b35b6ac'
p4241
I1
sS'OMG'
p4242
I1
sS'10img'
p4243
I11
sS'analytics'
p4244
I1
sS'86a8cb829395103e2e38cd0747005eff'
p4245
I1
sS'playIconHoverEnabled'
p4246
I1
sS'3b71'
p4247
I1
sS'Recommended'
p4248
I1
sS'bed'
p4249
I2
sS'263875a6'
p4250
I1
sS'KR'
p4251
I6
sS'cravings'
p4252
I4
sS'a3cf'
p4253
I1
sS'referral'
p4254
I1
sS'Video'
p4255
I5
sS'videoPlayerPipPosition'
p4256
I1
sS'showdate'
p4257
I1
sS'Y3j'
p4258
I1
sS'd57737b1'
p4259
I1
sS'false'
p4260
I96
sS'richview'
p4261
I1
sS'clip'
p4262
I3
sS'tabs'
p4263
I7
sS'Pay'
p4264
I8
sS'be9c93fba39bfa9e26c0d6336cb8ef55'
p4265
I1
sS'DZhuasBV3f6GQF2YbmrA'
p4266
I1
sS'033d3dc8'
p4267
I1
sS'Results'
p4268
I1
sS'tonight'
p4269
I2
sS'Other'
p4270
I1
sS'071f'
p4271
I1
sS'have'
p4272
I6
sS'32e1'
p4273
I1
sS'need'
p4274
I3
sS'0141b38e'
p4275
I3
sS'usePE'
p4276
I1
sS'pageview'
p4277
I2
sS'border'
p4278
I3
sS'pewdiepie'
p4279
I4
sS'viewed'
p4280
I1
sS'trackInitComet'
p4281
I1
sS'instrumentation'
p4282
I3
sS'Flaunts'
p4283
I1
sS'Oil'
p4284
I2
sS'bucketid'
p4285
I1
sS'min'
p4286
I6
sS'COMICS'
p4287
I1
sS'agency'
p4288
I1
sS'DZhuasBVLthSQV2YbmrA'
p4289
I1
sS'cef27134911a'
p4290
I4
sS'searchAutoHide'
p4291
I1
sS'001482758e17'
p4292
I1
sS'e1215649'
p4293
I1
sS'1f40'
p4294
I3
sS'Santa'
p4295
I1
sS'YXBwaWQ9eWhvbWVydW47cT04NTtzbT0xO3c9MTgwO2g9MTM1'
p4296
I3
sS'mit'
p4297
I50
sS'duels'
p4298
I1
sS'locDenialAlertInterval'
p4299
I1
sS'modulesec'
p4300
I12
sS'Society'
p4301
I1
sS'3d29e996'
p4302
I1
sS'3623'
p4303
I1
sS'frontman'
p4304
I2
sS'3625'
p4305
I3
sS'00'
p4306
I20
sS'iPhone'
p4307
I4
sS'569a8f98'
p4308
I1
sS'parenting'
p4309
I2
sS'said'
p4310
I3
sS'Games'
p4311
I4
sS'amongst'
p4312
I1
sS'Enter'
p4313
I6
sS'device'
p4314
I1
sS'masthead'
p4315
I21
sS'future'
p4316
I10
sS'class'
p4317
I1680
sS'i13nReason'
p4318
I1
sS'4714'
p4319
I2
sS'50ec4f0d30e6'
p4320
I1
sS'30345610'
p4321
I8
sS'gma'
p4322
I7
sS'ura'
p4323
I1
sS'Part'
p4324
I1
sS'url'
p4325
I126
sS'3d78'
p4326
I1
sS'stranded'
p4327
I1
sS'Por'
p4328
I1
sS'uri'
p4329
I4
sS'JPG'
p4330
I1
sS'5683'
p4331
I6
sS'High'
p4332
I4
sS'bf1f'
p4333
I5
sS'DZhuasBVs8NPQV2YbmrA'
p4334
I1
sS'error'
p4335
I9
sS'SILICONALLEY'
p4336
I3
sS'23390534492'
p4337
I2
sS'stuns'
p4338
I1
sS'wounded'
p4339
I3
sS'constrain'
p4340
I3
sS'dd39'
p4341
I1
sS'away'
p4342
I4
sS'bd679aa6f3e3'
p4343
I1
sS'121210'
p4344
I4
sS'Matt'
p4345
I2
sS'currently'
p4346
I1
sS'bea8'
p4347
I1
sS'Burmistrova'
p4348
I1
sS'text'
p4349
I28
sS'supported'
p4350
I1
sS'DZhuasBVu9yLQV2YbmrA'
p4351
I1
sS'rotationDelay'
p4352
I1
sS'3a351f94cfdd'
p4353
I1
sS'3171'
p4354
I1
sS'BGR'
p4355
I2
sS'cavideo'
p4356
I1
sS'aItOWDYsSYD9CPi3ltsslYAF27Jc6aqmop3p1N0D3Rz'
p4357
I1
sS'subscribeTimeout'
p4358
I1
sS'portfolio'
p4359
I1
sS'tsrc'
p4360
I2
sS'001001110'
p4361
I3
sS'decade'
p4362
I2
sS'7NDTtLJnKDDC9w'
p4363
I1
sS'3pas'
p4364
I1
sS'u00c9'
p4365
I1
sS'HTML5'
p4366
I1
sS'3a922068c87b'
p4367
I1
sS'team1'
p4368
I16
sS'team2'
p4369
I16
sS'Original'
p4370
I2
sS'buttons'
p4371
I22
sS'entities'
p4372
I3
sS'b02f'
p4373
I3
sS'game4'
p4374
I2
sS'York'
p4375
I4
sS'5px'
p4376
I2
sS'combo'
p4377
I11
sS'origHeight'
p4378
I3
sS'ninechickweedlane'
p4379
I3
sS'uncompressed'
p4380
I1
sS'e1792fb207aa'
p4381
I1
sS'local'
p4382
I4
sS'Begin'
p4383
I1
sS'Homes'
p4384
I1
sS'sued'
p4385
I1
sS'handle'
p4386
I2
sS'sagittarius'
p4387
I2
sS'toned'
p4388
I1
sS'beat'
p4389
I2
sS'63826'
p4390
I1
sS'massacre'
p4391
I1
sS'beap'
p4392
I3
sS'120'
p4393
I3
sS'couric'
p4394
I2
sS'122'
p4395
I1
sS'123'
p4396
I2
sS'Stories'
p4397
I3
sS'abc3'
p4398
I1
sS'FABLife'
p4399
I2
sS'720d4b71'
p4400
I1
sS'timing'
p4401
I1
sS'3408'
p4402
I1
sS'moduleList'
p4403
I3
sS'bL7WFyDOfTusCtRycPaksUqFXnyvsVtoToOYS2OE7w2m5d2aT'
p4404
I1
sS'b415'
p4405
I1
sS'endless'
p4406
I1
sS'toLowerCase'
p4407
I1
sS'25fa5c5d'
p4408
I1
sS'h'
p4409
I74
sS'634266a6'
p4410
I1
sS'forceIpLocation'
p4411
I2
sS'userRecognized'
p4412
I1
sS'teams'
p4413
I51
sS'default'
p4414
I338
sS'myservice'
p4415
I1
sS'she'
p4416
I5
sS'NzDxHbrbiIVljo0EZJh0Ow'
p4417
I1
sS'grad'
p4418
I6
sS'keyCode'
p4419
I1
sS'ylogin'
p4420
I5
sS'view'
p4421
I104
sS'Pr'
p4422
I1
sS'locDenialAlertMessage'
p4423
I1
sS'Bernadino'
p4424
I1
sS'9e1f4bf28fef'
p4425
I1
sS'085b'
p4426
I1
sS'rsch'
p4427
I1
sS'we'
p4428
I4
sS'module'
p4429
I37
sS'62f9869c'
p4430
I1
sS'a86e'
p4431
I5
sS'changes'
p4432
I1
sS'8531'
p4433
I1
sS'violet'
p4434
I2
sS'btn'
p4435
I61
sS'037'
p4436
I1
sS'5d81'
p4437
I1
sS'9bd649fd4cb7'
p4438
I1
sS'tl1'
p4439
I5
sS'still'
p4440
I4
sS'recognizedState'
p4441
I3
sS'bkt901'
p4442
I1
sS'Bernardino'
p4443
I14
sS'ba72'
p4444
I1
sS'getElementsByClassName'
p4445
I2
sS'b362'
p4446
I1
sS'edgeRoot'
p4447
I1
sS'state'
p4448
I54
sS'3584325'
p4449
I2
sS'gKfaDuu'
p4450
I1
sS'3584322'
p4451
I2
sS'392e'
p4452
I1
sS'flickr'
p4453
I30
sS'email'
p4454
I2
sS'8964'
p4455
I1
sS'1d8f8a55'
p4456
I1
sS'Weiland'
p4457
I2
sS'TOOLTIP'
p4458
I1
sS'ed13'
p4459
I1
sS'3584331'
p4460
I2
sS'3584330'
p4461
I2
sS'3584333'
p4462
I2
sS'3584332'
p4463
I2
sS'3584335'
p4464
I2
sS'closeAnimDuration'
p4465
I1
sS'3584336'
p4466
I2
sS'b5ec'
p4467
I1
sS'3584285'
p4468
I2
sS'S'
p4469
I1
sS'Thisisth'
p4470
I1
sS'd936'
p4471
I1
sS'police'
p4472
I2
sS'adcamp'
p4473
I11
sS'lawsuit'
p4474
I3
sS'Anchor'
p4475
I1
sS'observable'
p4476
I6
sS'3584286'
p4477
I2
sS'Firefox'
p4478
I1
sS'187f20a1dee5'
p4479
I1
sS'plugin'
p4480
I3
sS'06f28ffde7a8'
p4481
I1
sS'joke'
p4482
I1
sS'Trusting'
p4483
I1
sS'actionDrawerEnabled'
p4484
I1
sS'239c'
p4485
I1
sS'tabpanels'
p4486
I2
sS'bb27'
p4487
I1
sS'1449220198002'
p4488
I2
sS'Woods'
p4489
I1
sS'UNDO'
p4490
I1
sS'39b7'
p4491
I1
sS'e1ef16db8c09'
p4492
I1
sS'DQf1Lyapgf6alcd2v8GHZQ'
p4493
I1
sS'it\xe2\x80\x99s'
p4494
I1
sS'murder'
p4495
I2
sS'queryDelay'
p4496
I1
sS'ca2b09523b86'
p4497
I1
sS'dynamicSectionEnabled'
p4498
I1
sS'devout'
p4499
I1
sS'cj'
p4500
I1
sS'646bfb202b4b'
p4501
I4
sS'3796'
p4502
I1
sS'co'
p4503
I1
sS'cn'
p4504
I1
sS'Her'
p4505
I2
sS'cl'
p4506
I21
sS'logOutMsgDly'
p4507
I1
sS'panel2'
p4508
I1
sS'986e'
p4509
I1
sS'cf'
p4510
I112
sS'aq'
p4511
I1
sS'cd'
p4512
I1
sS'Los'
p4513
I1
sS'fbAcctLinked'
p4514
I1
sS'offlead'
p4515
I10
sS'Music'
p4516
I2
sS'Low'
p4517
I4
sS'safariSearchSetEnabled'
p4518
I2
sS'INPUT'
p4519
I1
sS'cs'
p4520
I11
sS'kings'
p4521
I1
sS'Holiday'
p4522
I10
sS'cw'
p4523
I1
sS'Temple'
p4524
I2
sS'ct'
p4525
I224
sS'quit'
p4526
I4
sS'd1b92d08'
p4527
I1
sS'USA'
p4528
I1
sS'topstories'
p4529
I7
sS'Get'
p4530
I4
sS'53bf9bb237e8'
p4531
I1
sS'purbtn'
p4532
I2
sS'Yahoo'
p4533
I37
sS'abc'
p4534
I8
sS'IE6'
p4535
I4
sS'4Dff76upGLj8PqHw0AzNaQ'
p4536
I1
sS'Brooklyn'
p4537
I1
sS'38db'
p4538
I1
sS'6529c15e'
p4539
I1
sS'b580'
p4540
I1
sS'triggerCustomTiming'
p4541
I1
sS'Thailand'
p4542
I8
sS'3dcf'
p4543
I1
sS'Tiny'
p4544
I2
sS'd73594d4597f'
p4545
I1
sS'lgn'
p4546
I10
sS'DZhuasBVPQpaQV2YbmrA'
p4547
I1
sS'lq'
p4548
I1
sS'3c22'
p4549
I1
sS'Face'
p4550
I1
sS'9869'
p4551
I1
sS'04c8'
p4552
I1
sS'player'
p4553
I2
sS'51f7c9349083'
p4554
I1
sS'gun'
p4555
I3
sS'9680'
p4556
I1
sS'c2'
p4557
I2
sS'adop'
p4558
I11
sS'Navigation'
p4559
I1
sS'Tashfeen'
p4560
I1
sS'c5'
p4561
I2
sS'0mgj5q6a1JJDrOZuPWYG7g'
p4562
I1
sS'And'
p4563
I1
sS'homes'
p4564
I1
sS'V9CcRGE9G7HJxPtpGDUE6Ot'
p4565
I1
sS'33c6'
p4566
I1
sS'showBeacon'
p4567
I2
sS'ysb'
p4568
I1
sS'align'
p4569
I5
sS'Espa\xc3\xb1ol'
p4570
I1
sS'Number'
p4571
I2
sS'value'
p4572
I21
sS'88c0696ecb3c'
p4573
I5
sS'bookends'
p4574
I2
sS'8d4a'
p4575
I1
sS'intro'
p4576
I3
sS'9b608723'
p4577
I1
sS'e113'
p4578
I1
sS'owns'
p4579
I1
sS'f6db6150d82f'
p4580
I1
sS'autoplay'
p4581
I2
sS'SIDE'
p4582
I1
sS'210320737'
p4583
I7
sS'3584262'
p4584
I2
sS'va'
p4585
I102
sS'8364'
p4586
I2
sS'helper'
p4587
I3
sS'22862611583'
p4588
I2
sS'vh'
p4589
I25
sS'010123'
p4590
I1
sS'site'
p4591
I1
sS'9d5a'
p4592
I1
sS'34e3'
p4593
I1
sS'removeCtaCancelBtn'
p4594
I1
sS'vs'
p4595
I1
sS'ir6'
p4596
I1
sS'cometd'
p4597
I3
sS'politics'
p4598
I4
sS'getElementsByTagName'
p4599
I1
sS'You'
p4600
I4
sS'Beach'
p4601
I1
sS'Electronics'
p4602
I1
sS'halt'
p4603
I14
sS'jenner'
p4604
I1
sS'panel7'
p4605
I1
sS'slcfltr'
p4606
I47
sS'magpromote'
p4607
I9
sS'Programmers'
p4608
I1
sS'woeid'
p4609
I31
sS'fpctx'
p4610
I8
sS'FS5f9'
p4611
I1
sS'e9cf0399'
p4612
I1
sS'pkgt'
p4613
I51
sS'3181'
p4614
I1
sS'saveEnabled'
p4615
I1
sS'9e1a'
p4616
I5
sS'8977'
p4617
I1
sS'AdChoices'
p4618
I3
sS'utos'
p4619
I1
sS'082e'
p4620
I1
sS'http'
p4621
I219
sS'toil'
p4622
I1
sS'promo'
p4623
I1
sS'premiere'
p4624
I2
sS'869861925'
p4625
I1
sS'2c2b6bc3f1f60c7f275171a5c96c5517'
p4626
I1
sS'messagesEnabled'
p4627
I1
sS'v1'
p4628
I2
sS'v2'
p4629
I1
sS'JDMSudTjh89f5xTkJtqlNQ'
p4630
I1
sS'cmnt'
p4631
I7
sS'cf1c4dd3'
p4632
I1
sS'91bd'
p4633
I7
sS'modChromeHtml'
p4634
I1
sS'col1'
p4635
I1
sS'teigen'
p4636
I4
sS'francisco'
p4637
I1
sS'30345818'
p4638
I5
sS'Houston'
p4639
I1
sS'off'
p4640
I10
sS'adsMAST'
p4641
I2
sS'920d'
p4642
I1
sS'Senate'
p4643
I2
sS'SouthKorea'
p4644
I4
sS'colour'
p4645
I1
sS'adsfallback'
p4646
I14
sS'well'
p4647
I1
sS'resourcemgr'
p4648
I3
sS'Makers'
p4649
I1
sS'Fantasy'
p4650
I4
sS'vtestid'
p4651
I1
sS'Horoscopes'
p4652
I4
sS'001000215'
p4653
I3
sS'oops'
p4654
I13
sS'cssFontSizeSAYT'
p4655
I1
sS'Need'
p4656
I3
sS'position'
p4657
I19
sS'3987'
p4658
I1
sS'5406d05f'
p4659
I6
sS'Bkn'
p4660
I1
sS'latest'
p4661
I1
sS'Jenner'
p4662
I11
sS'72c65523'
p4663
I1
sS'carrie'
p4664
I3
sS'safari'
p4665
I2
sS'sfqg'
p4666
I1
sS'001000031'
p4667
I4
sS'42'
p4668
I9
sS'6fe0'
p4669
I5
sS'3a9f'
p4670
I3
sS'Sunday'
p4671
I1
sS'van2'
p4672
I1
sS'DZhuasBV9cmUQV2YbmrA'
p4673
I1
sS'a5be8d822618'
p4674
I6
sS'2c38'
p4675
I1
sS'illinois'
p4676
I1
sS'8fd3'
p4677
I1
sS'adv'
p4678
I3
sS'web'
p4679
I5
sS'wea'
p4680
I14
sS'rapid'
p4681
I81
sS'qjYvA'
p4682
I1
sS'ads'
p4683
I53
sS'Mario'
p4684
I1
sS'NiyVBGdjaDvNAkb7jvKouA'
p4685
I1
sS'30345979'
p4686
I1
sS'30345978'
p4687
I7
sS'YouTube'
p4688
I4
sS'142x37'
p4689
I1
sS'locdrop'
p4690
I4
sS'Victoria'
p4691
I1
sS'spinner'
p4692
I2
sS'3751'
p4693
I1
sS'Israeli'
p4694
I2
sS'Bw'
p4695
I1
sS'a090'
p4696
I2
sS'adc'
p4697
I3
sS'vKfyuKLtAIlzM1nib90wsg'
p4698
I1
sS'videoPlayerStopRelated'
p4699
I1
sS'pkgIds'
p4700
I1
sS'FIRST'
p4701
I1
sS'noclick'
p4702
I52
sS'HKG'
p4703
I1
sS'match'
p4704
I10
sS'WhatILea'
p4705
I1
sS'css3'
p4706
I3
sS'css2'
p4707
I3
sS'DZhuasBVKD0hQl2YbmrA'
p4708
I1
sS'0173'
p4709
I1
sS'd113'
p4710
I1
sS'magnify'
p4711
I1
sS'government'
p4712
I1
sS'dest'
p4713
I4
sS'reqList'
p4714
I1
sS'jvmajed5yygwv1'
p4715
I1
sS'Syed'
p4716
I2
sS'Searchterm'
p4717
I1
sS'3561'
p4718
I1
sS'NewYorkPost'
p4719
I1
sS'bd2a'
p4720
I1
sS'0553f2c2'
p4721
I3
sS'aa81'
p4722
I4
sS'2d367b6fc5f6'
p4723
I1
sS'213803714'
p4724
I1
sS'San'
p4725
I17
sS'7cf8'
p4726
I1
sS'a09e'
p4727
I1
sS'Carrie'
p4728
I4
sS'like'
p4729
I40
sS'Sac'
p4730
I1
sS'surgery'
p4731
I2
sS'warned'
p4732
I3
sS'17f9f1a3d6fd'
p4733
I1
sS'become'
p4734
I1
sS'3e11'
p4735
I1
sS'works'
p4736
I1
sS'page'
p4737
I3
sS'11px'
p4738
I2
sS'didn'
p4739
I3
sS'3f99fa20ee'
p4740
I1
sS'12px'
p4741
I1
sS'classical'
p4742
I22
sS'Great'
p4743
I1
sS'hail'
p4744
I1
sS'tumblr'
p4745
I3
sS'114'
p4746
I2
sS'93b7ad7a'
p4747
I1
sS'350K'
p4748
I2
sS'111'
p4749
I3
sS'Editor'
p4750
I1
sS'272b7ce602e7'
p4751
I1
sS'ec33bd1d4717'
p4752
I1
sS'home'
p4753
I9
sS'119'
p4754
I2
sS'transport'
p4755
I9
sS'tmp'
p4756
I1
sS'Mike'
p4757
I1
sS'lead'
p4758
I1
sS'overlay'
p4759
I30
sS'ucomics'
p4760
I1
sS'tmz'
p4761
I2
sS'deee'
p4762
I1
sS'aab2d03b'
p4763
I1
sS'tooltip'
p4764
I7
sS'8b19'
p4765
I1
sS'74c76a5c'
p4766
I1
sS'SOMETHING'
p4767
I1
sS'gettheapp'
p4768
I1
sS'00f0581d'
p4769
I1
sS'searchScrollHide'
p4770
I1
sS'topvideos'
p4771
I19
sS'debuts'
p4772
I4
sS'dcn'
p4773
I1
sS'GSPC'
p4774
I1
sS'flaunts'
p4775
I1
sS'ab4e'
p4776
I1
sS'023015334'
p4777
I1
sS'95f7'
p4778
I1
sS'indexOf'
p4779
I3
sS'SCIENCE'
p4780
I1
sS'DZhuasBVMlRbQV2YbmrA'
p4781
I1
sS'Hobbies'
p4782
I1
sS'Up'
p4783
I2
sS'Us'
p4784
I1
sS'YCT'
p4785
I61
sS'how'
p4786
I2
sS'host'
p4787
I5
sS'addthis'
p4788
I1
sS'049'
p4789
I1
sS'snapped'
p4790
I1
sS'MASTHEAD'
p4791
I3
sS'Huffington'
p4792
I1
sS'Microsoft'
p4793
I3
sS'776bd8fb671b'
p4794
I1
sS'panel'
p4795
I17
sS'Kendall'
p4796
I5
sS'a1'
p4797
I1
sS'about'
p4798
I12
sS'FLAGTEXT'
p4799
I1
sS'chromecolor'
p4800
I41
sS'webRichPanelUrl'
p4801
I1
sS'9cc2dc27291c'
p4802
I1
sS'getting'
p4803
I3
sS'column'
p4804
I1
sS'December'
p4805
I1
sS'promoCode'
p4806
I1
sS'DZhuasBV1AYZQV2YbmrA'
p4807
I1
sS'US'
p4808
I17
sS'important'
p4809
I4
sS'topheadlines'
p4810
I15
sS'3b5a'
p4811
I1
sS'UE'
p4812
I2
sS'locdropCrumb'
p4813
I1
sS'Radicalized'
p4814
I2
sS'a7f6'
p4815
I1
sS'ultBeaconHost'
p4816
I1
sS'own'
p4817
I1
sS'el'
p4818
I3
sS'h2'
p4819
I30
sS'h3'
p4820
I100
sS'h1'
p4821
I2
sS'Two'
p4822
I4
sS'h4'
p4823
I20
sS'three'
p4824
I1
sS'dmaName'
p4825
I1
sS'3dff'
p4826
I1
sS'3dfe'
p4827
I6
sS'gtaa'
p4828
I1
sS'promise'
p4829
I1
sS'female'
p4830
I1
sS'registration'
p4831
I1
sS'6602fa62e74d'
p4832
I1
sS'ea2'
p4833
I2
sS'87bc'
p4834
I1
sS'9d697468a2b3'
p4835
I1
sS'van'
p4836
I2
sS'Finance'
p4837
I7
sS'1981'
p4838
I6
sS'USjWcTgRFygSEmpOnFbWAg'
p4839
I1
sS'bce01e98de00'
p4840
I1
sS'Utah'
p4841
I2
sS'67d9'
p4842
I1
sS'ns'
p4843
I43
sS'125846669'
p4844
I2
sS'Amy'
p4845
I2
sS'7990cea6'
p4846
I6
sS'8821'
p4847
I1
sS'inner'
p4848
I2
sS'biggest'
p4849
I1
sS'39c4'
p4850
I1
sS'November'
p4851
I1
sS'HISTORY'
p4852
I1
sS'337c'
p4853
I1
sS'bf9d'
p4854
I2
sS'openAnimDisabled'
p4855
I1
sS'function'
p4856
I27
sS'9be8'
p4857
I1
sS'north'
p4858
I2
sS'interest'
p4859
I98
sS'cookieValue'
p4860
I4
sS'a88d'
p4861
I1
sS'hr'
p4862
I2
sS'Science'
p4863
I1
sS'hp'
p4864
I4
sS'Det'
p4865
I1
sS'CSZGYh3TKAag0pvUneUr6Q'
p4866
I1
sS'Detroit'
p4867
I1
sS'NASDAQ'
p4868
I1
sS'c66aac624991'
p4869
I1
sS'TEXT'
p4870
I1
sS'Oops'
p4871
I3
sS'hl'
p4872
I2
sS'7644'
p4873
I1
sS'ctr'
p4874
I1
sS'hsBczS9s5Sqg6iuckrAtAQ'
p4875
I1
sS'overflow'
p4876
I1
sS'Dec'
p4877
I3
sS'buf'
p4878
I3
sS'50b2e19c'
p4879
I1
sS'hd'
p4880
I20
sS'\xe2\x80\x94'
p4881
I2
sS'count'
p4882
I55
sS'also'
p4883
I2
sS'Luann'
p4884
I1
sS'tossed'
p4885
I1
sS'5428'
p4886
I1
sS'temp'
p4887
I12
sS'cscPath'
p4888
I1
sS'Wall'
p4889
I5
sS'dangerous'
p4890
I1
sS'j'
p4891
I20
sS'restoreStateExpire'
p4892
I1
sS'signed'
p4893
I1
sS'a356'
p4894
I1
sS'record'
p4895
I1
sS'tosses'
p4896
I2
sS'stories'
p4897
I10
sS'empty'
p4898
I8
sS'saData'
p4899
I1
sS'ec7ee361'
p4900
I1
sS'DONE'
p4901
I2
sS'problem'
p4902
I3
sS'threw'
p4903
I2
sS'display'
p4904
I3
sS'\xc2\xbb'
p4905
I1
sS'31e8'
p4906
I1
sS'b263'
p4907
I1
sS'links'
p4908
I2
sS'settingsUrl'
p4909
I2
sS'universal'
p4910
I5
sS'year'
p4911
I4
sS'pd2upload'
p4912
I1
sS'myt'
p4913
I1
sS'56f364cb'
p4914
I1
sS'persistent'
p4915
I1
sS'ed9e31d3'
p4916
I1
sS'highlighted'
p4917
I1
sS'Vancouver'
p4918
I1
sS'wave3badge'
p4919
I1
sS'3307'
p4920
I1
sS'ind'
p4921
I3
sS'NEWS'
p4922
I1
sS'RTROPTP'
p4923
I1
sS'shooting'
p4924
I36
sS'ADSTART'
p4925
I1
sS'Learned'
p4926
I1
sS'ccode'
p4927
I92
sS'848a'
p4928
I1
sS'keepLocation'
p4929
I1
sS'6A0AB3ED'
p4930
I1
sS'Families'
p4931
I1
sS'48'
p4932
I4
sS'49'
p4933
I8
sS'46'
p4934
I2
sS'47'
p4935
I2
sS'44'
p4936
I8
sS'45'
p4937
I3
sS'percent'
p4938
I1
sS'43'
p4939
I2
sS'40'
p4940
I25
sS'41'
p4941
I3
sS'Islamic'
p4942
I6
sS'36f7'
p4943
I1
sS'other'
p4944
I5
sS'gossip'
p4945
I4
sS'details'
p4946
I4
sS'branch'
p4947
I1
sS'379a86d96e32'
p4948
I1
sS'hpc'
p4949
I1
sS'mass'
p4950
I4
sS'out'
p4951
I3
sS'yahoofrontpageapp'
p4952
I4
sS'nra'
p4953
I1
sS'pinkett'
p4954
I1
sS'eventId'
p4955
I3
sS'proxyTimeout'
p4956
I1
sS'repeat'
p4957
I2
sS'star'
p4958
I3
sS'Like'
p4959
I1
sS'insertBefore'
p4960
I1
sS'worker'
p4961
I3
sS'Remove'
p4962
I46
sS'7jUICaAKzNQ5a01s7ZxwzQaV1m1ta3MPTguzxCLiUwTpEyXG7iA'
p4963
I1
sS'chance'
p4964
I1
sS'U'
p4965
I2
sS'videoPlayerMaxInstances'
p4966
I1
sS'34d7'
p4967
I1
sS'N'
p4968
I2
sS'friends'
p4969
I2
sS'South'
p4970
I17
sS'channelNodeId'
p4971
I5
sS'markup'
p4972
I1
sS'3bfc'
p4973
I1
sS'Shooting'
p4974
I1
sS'weiland'
p4975
I1
sS'36fc'
p4976
I1
sS'e8ee5536ef13'
p4977
I1
sS'space'
p4978
I1
sS'UP12YbmrA'
p4979
I1
sS'maxHeight'
p4980
I2
sS'original'
p4981
I2
sS'tabNavigationMode'
p4982
I3
sS'3195'
p4983
I1
sS'extras'
p4984
I3
sS'htmlparser'
p4985
I6
sS'477'
p4986
I2
sS'sasb'
p4987
I2
sS'knicks'
p4988
I1
sS'tnmod'
p4989
I5
sS'unspeakable'
p4990
I3
sS'0d49414e93ca'
p4991
I1
s.